EXPORTS 
	??_R0?AV?$_Iosb@H@std@@@8 	 DATA
	??_R0?AV?$basic_filebuf@DU?$char_traits@D@std@@@std@@@8 	 DATA
	??_R0?AV?$basic_fstream@DU?$char_traits@D@std@@@std@@@8 	 DATA
	??_R0?AV?$basic_ifstream@DU?$char_traits@D@std@@@std@@@8 	 DATA
	??_R0?AV?$basic_ios@DU?$char_traits@D@std@@@std@@@8 	 DATA
	??_R0?AV?$basic_iostream@DU?$char_traits@D@std@@@std@@@8 	 DATA
	??_R0?AV?$basic_istream@DU?$char_traits@D@std@@@std@@@8 	 DATA
	??_R0?AV?$basic_istringstream@DU?$char_traits@D@std@@V?$allocator@D@2@@std@@@8 	 DATA
	??_R0?AV?$basic_ofstream@DU?$char_traits@D@std@@@std@@@8 	 DATA
	??_R0?AV?$basic_ostream@DU?$char_traits@D@std@@@std@@@8 	 DATA
	??_R0?AV?$basic_ostringstream@DU?$char_traits@D@std@@V?$allocator@D@2@@std@@@8 	 DATA
	??_R0?AV?$basic_streambuf@DU?$char_traits@D@std@@@std@@@8 	 DATA
	??_R0?AV?$basic_stringbuf@DU?$char_traits@D@std@@V?$allocator@D@2@@std@@@8 	 DATA
	??_R0?AV?$basic_stringstream@DU?$char_traits@D@std@@V?$allocator@D@2@@std@@@8 	 DATA
	??_R0?AVAgeModel@@@8 	 DATA
	??_R0?AVCM_HeadLossModel@@@8 	 DATA
	??_R0?AVChemModel@@@8 	 DATA
	??_R0?AVConstrainedDemandModel@@@8 	 DATA
	??_R0?AVControl@@@8 	 DATA
	??_R0?AVCurve@@@8 	 DATA
	??_R0?AVDW_HeadLossModel@@@8 	 DATA
	??_R0?AVDemandModel@@@8 	 DATA
	??_R0?AVENerror@@@8 	 DATA
	??_R0?AVElement@@@8 	 DATA
	??_R0?AVFavadLeakageModel@@@8 	 DATA
	??_R0?AVFileError@@@8 	 DATA
	??_R0?AVFixedDemandModel@@@8 	 DATA
	??_R0?AVFixedPattern@@@8 	 DATA
	??_R0?AVGGASolver@@@8 	 DATA
	??_R0?AVHW_HeadLossModel@@@8 	 DATA
	??_R0?AVHeadLossModel@@@8 	 DATA
	??_R0?AVHydSolver@@@8 	 DATA
	??_R0?AVInputError@@@8 	 DATA
	??_R0?AVInputParser@@@8 	 DATA
	??_R0?AVJunction@@@8 	 DATA
	??_R0?AVLTDSolver@@@8 	 DATA
	??_R0?AVLeakageModel@@@8 	 DATA
	??_R0?AVLink@@@8 	 DATA
	??_R0?AVLogisticDemandModel@@@8 	 DATA
	??_R0?AVMatrixSolver@@@8 	 DATA
	??_R0?AVNetworkError@@@8 	 DATA
	??_R0?AVNode@@@8 	 DATA
	??_R0?AVObjectParser@@@8 	 DATA
	??_R0?AVPattern@@@8 	 DATA
	??_R0?AVPipe@@@8 	 DATA
	??_R0?AVPowerDemandModel@@@8 	 DATA
	??_R0?AVPowerLeakageModel@@@8 	 DATA
	??_R0?AVPropertyParser@@@8 	 DATA
	??_R0?AVPump@@@8 	 DATA
	??_R0?AVQualModel@@@8 	 DATA
	??_R0?AVQualSolver@@@8 	 DATA
	??_R0?AVReservoir@@@8 	 DATA
	??_R0?AVSparspakSolver@@@8 	 DATA
	??_R0?AVSystemError@@@8 	 DATA
	??_R0?AVTank@@@8 	 DATA
	??_R0?AVTraceModel@@@8 	 DATA
	??_R0?AVValve@@@8 	 DATA
	??_R0?AVVariablePattern@@@8 	 DATA
	??_R0?AVbad_cast@std@@@8 	 DATA
	??_R0?AVios_base@std@@@8 	 DATA
	?CurveTypeWords@Curve@@2PAPEBDA 	 DATA
	?LinkFieldNames@ReportFields@@2PAPEBDA 	 DATA
	?MixingModelWords@TankMixModel@@2PAPEBDA 	 DATA
	?NodeFieldNames@ReportFields@@2PAPEBDA 	 DATA
	?SourceTypeWords@QualSource@@2PAPEBDA 	 DATA
	?ValveTypeWords@Valve@@2PAPEBDA 	 DATA
	?_OptionsStorage@?1??__local_stdio_scanf_options@@9@4_KA 	 DATA
	?_Psave@?$_Facetptr@V?$codecvt@DDU_Mbstatet@@@std@@@std@@2PEBVfacet@locale@2@EB 	 DATA
	?_Psave@?$_Facetptr@V?$ctype@D@std@@@std@@2PEBVfacet@locale@2@EB 	 DATA
	?_Stinit@?1??_Init@?$basic_filebuf@DU?$char_traits@D@std@@@std@@IEAAXPEAU_iobuf@@W4_Initfl@23@@Z@4U_Mbstatet@@A 	 DATA
	?sections@@3PAPEBDA 	 DATA
	??$?0V?$istream_iterator@V?$basic_string@DU?$char_traits@D@std@@V?$allocator@D@2@@std@@DU?$char_traits@D@2@_J@std@@X@?$vector@V?$basic_string@DU?$char_traits@D@std@@V?$allocator@D@2@@std@@V?$allocator@V?$basic_string@DU?$char_traits@D@std@@V?$allocator@D@2@@std@@@2@@std@@QEAA@V?$istream_iterator@V?$basic_string@DU?$char_traits@D@std@@V?$allocator@D@2@@std@@DU?$char_traits@D@2@_J@1@0@Z
	??$?5DU?$char_traits@D@std@@V?$allocator@D@1@@std@@YAAEAV?$basic_istream@DU?$char_traits@D@std@@@0@$$QEAV10@AEAV?$basic_string@DU?$char_traits@D@std@@V?$allocator@D@2@@0@@Z
	??$?6DU?$char_traits@D@std@@V?$allocator@D@1@@std@@YAAEAV?$basic_ostream@DU?$char_traits@D@std@@@0@AEAV10@AEBV?$basic_string@DU?$char_traits@D@std@@V?$allocator@D@2@@0@@Z
	??$?6U?$char_traits@D@std@@@std@@YAAEAV?$basic_ostream@DU?$char_traits@D@std@@@0@AEAV10@PEBD@Z
	??$?HDU?$char_traits@D@std@@V?$allocator@D@1@@std@@YA?AV?$basic_string@DU?$char_traits@D@std@@V?$allocator@D@2@@0@$$QEAV10@0@Z
	??$?HDU?$char_traits@D@std@@V?$allocator@D@1@@std@@YA?AV?$basic_string@DU?$char_traits@D@std@@V?$allocator@D@2@@0@$$QEAV10@AEBV10@@Z
	??$?HDU?$char_traits@D@std@@V?$allocator@D@1@@std@@YA?AV?$basic_string@DU?$char_traits@D@std@@V?$allocator@D@2@@0@$$QEAV10@PEBD@Z
	??$?HDU?$char_traits@D@std@@V?$allocator@D@1@@std@@YA?AV?$basic_string@DU?$char_traits@D@std@@V?$allocator@D@2@@0@AEBV10@0@Z
	??$?HDU?$char_traits@D@std@@V?$allocator@D@1@@std@@YA?AV?$basic_string@DU?$char_traits@D@std@@V?$allocator@D@2@@0@AEBV10@PEBD@Z
	??$?HDU?$char_traits@D@std@@V?$allocator@D@1@@std@@YA?AV?$basic_string@DU?$char_traits@D@std@@V?$allocator@D@2@@0@PEBDAEBV10@@Z
	??$_Buynode@AEBUpiecewise_construct_t@std@@V?$tuple@AEBV?$basic_string@DU?$char_traits@D@std@@V?$allocator@D@2@@std@@@2@V?$tuple@$$V@2@@?$_List_buy@U?$pair@$$CBV?$basic_string@DU?$char_traits@D@std@@V?$allocator@D@2@@std@@PEAVElement@@@std@@V?$allocator@U?$pair@$$CBV?$basic_string@DU?$char_traits@D@std@@V?$allocator@D@2@@std@@PEAVElement@@@std@@@2@@std@@QEAAPEAU?$_List_node@U?$pair@$$CBV?$basic_string@DU?$char_traits@D@std@@V?$allocator@D@2@@std@@PEAVElement@@@std@@PEAX@1@PEAU21@0AEBUpiecewise_construct_t@1@$$QEAV?$tuple@AEBV?$basic_string@DU?$char_traits@D@std@@V?$allocator@D@2@@std@@@1@$$QEAV?$tuple@$$V@1@@Z
	??$_Buynode@AEBVDemand@@@?$_List_buy@VDemand@@V?$allocator@VDemand@@@std@@@std@@QEAAPEAU?$_List_node@VDemand@@PEAX@1@PEAU21@0AEBVDemand@@@Z
	??$_Construct@V?$istream_iterator@V?$basic_string@DU?$char_traits@D@std@@V?$allocator@D@2@@std@@DU?$char_traits@D@2@_J@std@@@?$vector@V?$basic_string@DU?$char_traits@D@std@@V?$allocator@D@2@@std@@V?$allocator@V?$basic_string@DU?$char_traits@D@std@@V?$allocator@D@2@@std@@@2@@std@@QEAAXV?$istream_iterator@V?$basic_string@DU?$char_traits@D@std@@V?$allocator@D@2@@std@@DU?$char_traits@D@2@_J@1@0@Z
	??$_Construct@V?$istream_iterator@V?$basic_string@DU?$char_traits@D@std@@V?$allocator@D@2@@std@@DU?$char_traits@D@2@_J@std@@@?$vector@V?$basic_string@DU?$char_traits@D@std@@V?$allocator@D@2@@std@@V?$allocator@V?$basic_string@DU?$char_traits@D@std@@V?$allocator@D@2@@std@@@2@@std@@QEAAXV?$istream_iterator@V?$basic_string@DU?$char_traits@D@std@@V?$allocator@D@2@@std@@DU?$char_traits@D@2@_J@1@0Uinput_iterator_tag@1@@Z
	??$_Destroy_range1@V?$allocator@V?$basic_string@DU?$char_traits@D@std@@V?$allocator@D@2@@std@@@std@@PEAV?$basic_string@DU?$char_traits@D@std@@V?$allocator@D@2@@2@@std@@YAXPEAV?$basic_string@DU?$char_traits@D@std@@V?$allocator@D@2@@0@0AEAU?$_Wrap_alloc@V?$allocator@V?$basic_string@DU?$char_traits@D@std@@V?$allocator@D@2@@std@@@std@@@0@U?$integral_constant@_N$0A@@0@@Z
	??$_Insert@AEAU?$pair@$$CBV?$basic_string@DU?$char_traits@D@std@@V?$allocator@D@2@@std@@PEAVElement@@@std@@V?$_List_unchecked_iterator@V?$_List_val@U?$_List_simple_types@U?$pair@$$CBV?$basic_string@DU?$char_traits@D@std@@V?$allocator@D@2@@std@@PEAVElement@@@std@@@std@@@std@@@2@@?$_Hash@V?$_Umap_traits@V?$basic_string@DU?$char_traits@D@std@@V?$allocator@D@2@@std@@PEAVElement@@V?$_Uhash_compare@V?$basic_string@DU?$char_traits@D@std@@V?$allocator@D@2@@std@@U?$hash@V?$basic_string@DU?$char_traits@D@std@@V?$allocator@D@2@@std@@@2@U?$equal_to@V?$basic_string@DU?$char_traits@D@std@@V?$allocator@D@2@@std@@@2@@2@V?$allocator@U?$pair@$$CBV?$basic_string@DU?$char_traits@D@std@@V?$allocator@D@2@@std@@PEAVElement@@@std@@@2@$0A@@std@@@std@@IEAA?AU?$pair@V?$_List_iterator@V?$_List_val@U?$_List_simple_types@U?$pair@$$CBV?$basic_string@DU?$char_traits@D@std@@V?$allocator@D@2@@std@@PEAVElement@@@std@@@std@@@std@@@std@@_N@1@AEAU?$pair@$$CBV?$basic_string@DU?$char_traits@D@std@@V?$allocator@D@2@@std@@PEAVElement@@@1@V?$_List_unchecked_iterator@V?$_List_val@U?$_List_simple_types@U?$pair@$$CBV?$basic_string@DU?$char_traits@D@std@@V?$allocator@D@2@@std@@PEAVElement@@@std@@@std@@@std@@@1@@Z
	??$_Try_emplace@AEBV?$basic_string@DU?$char_traits@D@std@@V?$allocator@D@2@@std@@$$V@?$unordered_map@V?$basic_string@DU?$char_traits@D@std@@V?$allocator@D@2@@std@@PEAVElement@@U?$hash@V?$basic_string@DU?$char_traits@D@std@@V?$allocator@D@2@@std@@@2@U?$equal_to@V?$basic_string@DU?$char_traits@D@std@@V?$allocator@D@2@@std@@@2@V?$allocator@U?$pair@$$CBV?$basic_string@DU?$char_traits@D@std@@V?$allocator@D@2@@std@@PEAVElement@@@std@@@2@@std@@QEAA?AU?$pair@V?$_List_iterator@V?$_List_val@U?$_List_simple_types@U?$pair@$$CBV?$basic_string@DU?$char_traits@D@std@@V?$allocator@D@2@@std@@PEAVElement@@@std@@@std@@@std@@@std@@_N@1@AEBV?$basic_string@DU?$char_traits@D@std@@V?$allocator@D@2@@1@@Z
	??$_Uninit_alloc_fill_n1@PEAH_KV?$allocator@H@std@@@std@@YAXPEAH_KPEBHAEAU?$_Wrap_alloc@V?$allocator@H@std@@@0@U?$integral_constant@_N$0A@@0@@Z
	??$_Uninit_alloc_fill_n1@PEAN_KV?$allocator@N@std@@@std@@YAXPEAN_KPEBNAEAU?$_Wrap_alloc@V?$allocator@N@std@@@0@U?$integral_constant@_N$0A@@0@@Z
	??$_Uninit_alloc_fill_n1@PEAPEAUSegment@@_KV?$allocator@PEAUSegment@@@std@@@std@@YAXPEAPEAUSegment@@_KPEBQEAU1@AEAU?$_Wrap_alloc@V?$allocator@PEAUSegment@@@std@@@0@U?$integral_constant@_N$0A@@0@@Z
	??$_Uninit_alloc_fill_n1@PEAV?$_List_unchecked_iterator@V?$_List_val@U?$_List_simple_types@U?$pair@$$CBV?$basic_string@DU?$char_traits@D@std@@V?$allocator@D@2@@std@@PEAVElement@@@std@@@std@@@std@@@std@@_KU?$_Wrap_alloc@V?$allocator@V?$_List_unchecked_iterator@V?$_List_val@U?$_List_simple_types@U?$pair@$$CBV?$basic_string@DU?$char_traits@D@std@@V?$allocator@D@2@@std@@PEAVElement@@@std@@@std@@@std@@@std@@@std@@@2@@std@@YAXPEAV?$_List_unchecked_iterator@V?$_List_val@U?$_List_simple_types@U?$pair@$$CBV?$basic_string@DU?$char_traits@D@std@@V?$allocator@D@2@@std@@PEAVElement@@@std@@@std@@@std@@@0@_KPEBV10@AEAU?$_Wrap_alloc@U?$_Wrap_alloc@V?$allocator@V?$_List_unchecked_iterator@V?$_List_val@U?$_List_simple_types@U?$pair@$$CBV?$basic_string@DU?$char_traits@D@std@@V?$allocator@D@2@@std@@PEAVElement@@@std@@@std@@@std@@@std@@@std@@@std@@@0@U?$integral_constant@_N$0A@@0@@Z
	??$_Uninitialized_move_al_unchecked1@PEAV?$_List_unchecked_iterator@V?$_List_val@U?$_List_simple_types@U?$pair@$$CBV?$basic_string@DU?$char_traits@D@std@@V?$allocator@D@2@@std@@PEAVElement@@@std@@@std@@@std@@@std@@PEAV12@U?$_Wrap_alloc@V?$allocator@V?$_List_unchecked_iterator@V?$_List_val@U?$_List_simple_types@U?$pair@$$CBV?$basic_string@DU?$char_traits@D@std@@V?$allocator@D@2@@std@@PEAVElement@@@std@@@std@@@std@@@std@@@std@@@2@@std@@YAPEAV?$_List_unchecked_iterator@V?$_List_val@U?$_List_simple_types@U?$pair@$$CBV?$basic_string@DU?$char_traits@D@std@@V?$allocator@D@2@@std@@PEAVElement@@@std@@@std@@@std@@@0@PEAV10@00AEAU?$_Wrap_alloc@U?$_Wrap_alloc@V?$allocator@V?$_List_unchecked_iterator@V?$_List_val@U?$_List_simple_types@U?$pair@$$CBV?$basic_string@DU?$char_traits@D@std@@V?$allocator@D@2@@std@@PEAVElement@@@std@@@std@@@std@@@std@@@std@@@std@@@0@U_General_ptr_iterator_tag@0@U_Any_tag@0@@Z
	??$_Uninitialized_move_al_unchecked1@PEAV?$basic_string@DU?$char_traits@D@std@@V?$allocator@D@2@@std@@PEAV12@V?$allocator@V?$basic_string@DU?$char_traits@D@std@@V?$allocator@D@2@@std@@@2@@std@@YAPEAV?$basic_string@DU?$char_traits@D@std@@V?$allocator@D@2@@0@PEAV10@00AEAU?$_Wrap_alloc@V?$allocator@V?$basic_string@DU?$char_traits@D@std@@V?$allocator@D@2@@std@@@std@@@0@U_General_ptr_iterator_tag@0@U_Any_tag@0@@Z
	??$__vcrt_va_start_verify_argument_type@QEBD@@YAXXZ
	??$destroy@PEAD@?$_Wrap_alloc@V?$allocator@D@std@@@std@@QEAAXPEAPEAD@Z
	??$endl@DU?$char_traits@D@std@@@std@@YAAEAV?$basic_ostream@DU?$char_traits@D@std@@@0@AEAV10@@Z
	??$getline@DU?$char_traits@D@std@@V?$allocator@D@2@@std@@YAAEAV?$basic_istream@DU?$char_traits@D@std@@@0@$$QEAV10@AEAV?$basic_string@DU?$char_traits@D@std@@V?$allocator@D@2@@0@D@Z
	??$parseNumber@H@Utilities@@SA_NAEBV?$basic_string@DU?$char_traits@D@std@@V?$allocator@D@2@@std@@AEAH@Z
	??$parseNumber@N@Utilities@@SA_NAEBV?$basic_string@DU?$char_traits@D@std@@V?$allocator@D@2@@std@@AEAN@Z
	??$to_string@N@Utilities@@SA?AV?$basic_string@DU?$char_traits@D@std@@V?$allocator@D@2@@std@@AEBN@Z
	??$use_facet@V?$codecvt@DDU_Mbstatet@@@std@@@std@@YAAEBV?$codecvt@DDU_Mbstatet@@@0@AEBVlocale@0@@Z
	??$use_facet@V?$ctype@D@std@@@std@@YAAEBV?$ctype@D@0@AEBVlocale@0@@Z
	??0?$_Wrap_alloc@V?$allocator@D@std@@@std@@QEAA@XZ
	??0?$basic_fstream@DU?$char_traits@D@std@@@std@@QEAA@XZ
	??0?$basic_ifstream@DU?$char_traits@D@std@@@std@@QEAA@PEBDHH@Z
	??0?$basic_ifstream@DU?$char_traits@D@std@@@std@@QEAA@XZ
	??0?$basic_ofstream@DU?$char_traits@D@std@@@std@@QEAA@XZ
	??0?$basic_string@DU?$char_traits@D@std@@V?$allocator@D@2@@std@@QEAA@AEBV01@@Z
	??0?$basic_string@DU?$char_traits@D@std@@V?$allocator@D@2@@std@@QEAA@PEBD@Z
	??0?$basic_string@DU?$char_traits@D@std@@V?$allocator@D@2@@std@@QEAA@XZ
	??0?$basic_stringbuf@DU?$char_traits@D@std@@V?$allocator@D@2@@std@@QEAA@AEBV?$basic_string@DU?$char_traits@D@std@@V?$allocator@D@2@@1@H@Z
	??0?$basic_stringbuf@DU?$char_traits@D@std@@V?$allocator@D@2@@std@@QEAA@H@Z
	??0?$unordered_map@V?$basic_string@DU?$char_traits@D@std@@V?$allocator@D@2@@std@@PEAVElement@@U?$hash@V?$basic_string@DU?$char_traits@D@std@@V?$allocator@D@2@@std@@@2@U?$equal_to@V?$basic_string@DU?$char_traits@D@std@@V?$allocator@D@2@@std@@@2@V?$allocator@U?$pair@$$CBV?$basic_string@DU?$char_traits@D@std@@V?$allocator@D@2@@std@@PEAVElement@@@std@@@2@@std@@QEAA@XZ
	??0?$vector@HV?$allocator@H@std@@@std@@QEAA@_K@Z
	??0CM_HeadLossModel@@QEAA@N@Z
	??0ChemModel@@QEAA@XZ
	??0ConstrainedDemandModel@@QEAA@XZ
	??0Control@@QEAA@HV?$basic_string@DU?$char_traits@D@std@@V?$allocator@D@2@@std@@@Z
	??0ControlParser@@QEAA@XZ
	??0Curve@@QEAA@V?$basic_string@DU?$char_traits@D@std@@V?$allocator@D@2@@std@@@Z
	??0DW_HeadLossModel@@QEAA@N@Z
	??0Demand@@QEAA@XZ
	??0DemandModel@@QEAA@N@Z
	??0DemandModel@@QEAA@XZ
	??0ENerror@@QEAA@AEBV0@@Z
	??0ENerror@@QEAA@XZ
	??0Element@@QEAA@V?$basic_string@DU?$char_traits@D@std@@V?$allocator@D@2@@std@@@Z
	??0Emitter@@QEAA@XZ
	??0FavadLeakageModel@@QEAA@N@Z
	??0Field@@QEAA@XZ
	??0FileError@@QEAA@AEBV0@@Z
	??0FileError@@QEAA@H@Z
	??0FixedDemandModel@@QEAA@XZ
	??0FixedPattern@@QEAA@V?$basic_string@DU?$char_traits@D@std@@V?$allocator@D@2@@std@@@Z
	??0GGASolver@@QEAA@PEAVNetwork@@PEAVMatrixSolver@@@Z
	??0Graph@@QEAA@XZ
	??0HW_HeadLossModel@@QEAA@N@Z
	??0HeadLossModel@@QEAA@N@Z
	??0HydEngine@@QEAA@XZ
	??0HydSolver@@QEAA@PEAVNetwork@@PEAVMatrixSolver@@@Z
	??0InputError@@QEAA@AEBV0@@Z
	??0InputError@@QEAA@HV?$basic_string@DU?$char_traits@D@std@@V?$allocator@D@2@@std@@@Z
	??0InputParser@@QEAA@PEAVNetwork@@@Z
	??0InputReader@@QEAA@XZ
	??0Junction@@QEAA@V?$basic_string@DU?$char_traits@D@std@@V?$allocator@D@2@@std@@@Z
	??0LTDSolver@@QEAA@PEAVNetwork@@@Z
	??0LeakageModel@@QEAA@XZ
	??0Link@@QEAA@V?$basic_string@DU?$char_traits@D@std@@V?$allocator@D@2@@std@@@Z
	??0LogisticDemandModel@@QEAA@N@Z
	??0MatrixSolver@@QEAA@XZ
	??0MemPool@@QEAA@XZ
	??0Network@@QEAA@XZ
	??0NetworkError@@QEAA@AEBV0@@Z
	??0NetworkError@@QEAA@HV?$basic_string@DU?$char_traits@D@std@@V?$allocator@D@2@@std@@@Z
	??0Node@@QEAA@V?$basic_string@DU?$char_traits@D@std@@V?$allocator@D@2@@std@@@Z
	??0ObjectParser@@QEAA@PEAVNetwork@@@Z
	??0OptionParser@@QEAA@XZ
	??0Options@@QEAA@XZ
	??0OutputFile@@QEAA@XZ
	??0Pattern@@QEAA@V?$basic_string@DU?$char_traits@D@std@@V?$allocator@D@2@@std@@H@Z
	??0Pipe@@QEAA@V?$basic_string@DU?$char_traits@D@std@@V?$allocator@D@2@@std@@@Z
	??0PowerDemandModel@@QEAA@N@Z
	??0PowerLeakageModel@@QEAA@NN@Z
	??0Project@Epanet@@QEAA@XZ
	??0ProjectWriter@@QEAA@XZ
	??0PropertyParser@@QEAA@PEAVNetwork@@@Z
	??0Pump@@QEAA@V?$basic_string@DU?$char_traits@D@std@@V?$allocator@D@2@@std@@@Z
	??0PumpCurve@@QEAA@XZ
	??0PumpEnergy@@QEAA@XZ
	??0QualEngine@@QEAA@XZ
	??0QualModel@@QEAA@H@Z
	??0QualSolver@@QEAA@PEAVNetwork@@@Z
	??0QualSource@@QEAA@XZ
	??0ReportFields@@QEAA@XZ
	??0ReportWriter@@QEAA@AEAV?$basic_ofstream@DU?$char_traits@D@std@@@std@@PEAVNetwork@@@Z
	??0Reservoir@@QEAA@V?$basic_string@DU?$char_traits@D@std@@V?$allocator@D@2@@std@@@Z
	??0SegPool@@QEAA@XZ
	??0SparspakSolver@@QEAA@AEAV?$basic_ostream@DU?$char_traits@D@std@@@std@@@Z
	??0SystemError@@QEAA@AEBV0@@Z
	??0SystemError@@QEAA@H@Z
	??0Tank@@QEAA@V?$basic_string@DU?$char_traits@D@std@@V?$allocator@D@2@@std@@@Z
	??0TankMixModel@@QEAA@XZ
	??0Units@@QEAA@XZ
	??0Valve@@QEAA@V?$basic_string@DU?$char_traits@D@std@@V?$allocator@D@2@@std@@@Z
	??0VariablePattern@@QEAA@V?$basic_string@DU?$char_traits@D@std@@V?$allocator@D@2@@std@@@Z
	??0bad_cast@std@@QEAA@AEBV01@@Z
	??1?$_String_alloc@U?$_String_base_types@DV?$allocator@D@std@@@std@@@std@@QEAA@XZ
	??1?$basic_filebuf@DU?$char_traits@D@std@@@std@@UEAA@XZ
	??1?$basic_fstream@DU?$char_traits@D@std@@@std@@UEAA@XZ
	??1?$basic_ifstream@DU?$char_traits@D@std@@@std@@UEAA@XZ
	??1?$basic_istringstream@DU?$char_traits@D@std@@V?$allocator@D@2@@std@@UEAA@XZ
	??1?$basic_ofstream@DU?$char_traits@D@std@@@std@@UEAA@XZ
	??1?$basic_ostringstream@DU?$char_traits@D@std@@V?$allocator@D@2@@std@@UEAA@XZ
	??1?$basic_string@DU?$char_traits@D@std@@V?$allocator@D@2@@std@@QEAA@XZ
	??1?$basic_stringbuf@DU?$char_traits@D@std@@V?$allocator@D@2@@std@@UEAA@XZ
	??1?$basic_stringstream@DU?$char_traits@D@std@@V?$allocator@D@2@@std@@UEAA@XZ
	??1?$istream_iterator@V?$basic_string@DU?$char_traits@D@std@@V?$allocator@D@2@@std@@DU?$char_traits@D@2@_J@std@@QEAA@XZ
	??1?$list@U?$pair@$$CBV?$basic_string@DU?$char_traits@D@std@@V?$allocator@D@2@@std@@PEAVElement@@@std@@V?$allocator@U?$pair@$$CBV?$basic_string@DU?$char_traits@D@std@@V?$allocator@D@2@@std@@PEAVElement@@@std@@@2@@std@@QEAA@XZ
	??1?$list@VDemand@@V?$allocator@VDemand@@@std@@@std@@QEAA@XZ
	??1?$unordered_map@V?$basic_string@DU?$char_traits@D@std@@V?$allocator@D@2@@std@@PEAVElement@@U?$hash@V?$basic_string@DU?$char_traits@D@std@@V?$allocator@D@2@@std@@@2@U?$equal_to@V?$basic_string@DU?$char_traits@D@std@@V?$allocator@D@2@@std@@@2@V?$allocator@U?$pair@$$CBV?$basic_string@DU?$char_traits@D@std@@V?$allocator@D@2@@std@@PEAVElement@@@std@@@2@@std@@QEAA@XZ
	??1?$vector@DV?$allocator@D@std@@@std@@QEAA@XZ
	??1?$vector@HV?$allocator@H@std@@@std@@QEAA@XZ
	??1?$vector@NV?$allocator@N@std@@@std@@QEAA@XZ
	??1?$vector@PEAUSegment@@V?$allocator@PEAUSegment@@@std@@@std@@QEAA@XZ
	??1?$vector@PEAVControl@@V?$allocator@PEAVControl@@@std@@@std@@QEAA@XZ
	??1?$vector@PEAVCurve@@V?$allocator@PEAVCurve@@@std@@@std@@QEAA@XZ
	??1?$vector@PEAVLink@@V?$allocator@PEAVLink@@@std@@@std@@QEAA@XZ
	??1?$vector@PEAVNode@@V?$allocator@PEAVNode@@@std@@@std@@QEAA@XZ
	??1?$vector@PEAVPattern@@V?$allocator@PEAVPattern@@@std@@@std@@QEAA@XZ
	??1?$vector@V?$_List_unchecked_iterator@V?$_List_val@U?$_List_simple_types@U?$pair@$$CBV?$basic_string@DU?$char_traits@D@std@@V?$allocator@D@2@@std@@PEAVElement@@@std@@@std@@@std@@@std@@U?$_Wrap_alloc@V?$allocator@V?$_List_unchecked_iterator@V?$_List_val@U?$_List_simple_types@U?$pair@$$CBV?$basic_string@DU?$char_traits@D@std@@V?$allocator@D@2@@std@@PEAVElement@@@std@@@std@@@std@@@std@@@std@@@2@@std@@QEAA@XZ
	??1?$vector@V?$basic_string@DU?$char_traits@D@std@@V?$allocator@D@2@@std@@V?$allocator@V?$basic_string@DU?$char_traits@D@std@@V?$allocator@D@2@@std@@@2@@std@@QEAA@XZ
	??1Control@@UEAA@XZ
	??1Curve@@UEAA@XZ
	??1Demand@@QEAA@XZ
	??1DemandModel@@UEAA@XZ
	??1ENerror@@UEAA@XZ
	??1Element@@UEAA@XZ
	??1Emitter@@QEAA@XZ
	??1Field@@QEAA@XZ
	??1FileError@@UEAA@XZ
	??1FixedPattern@@UEAA@XZ
	??1GGASolver@@UEAA@XZ
	??1Graph@@QEAA@XZ
	??1HeadLossModel@@UEAA@XZ
	??1HydEngine@@QEAA@XZ
	??1HydSolver@@UEAA@XZ
	??1InputError@@UEAA@XZ
	??1InputParser@@UEAA@XZ
	??1InputReader@@QEAA@XZ
	??1Junction@@UEAA@XZ
	??1LTDSolver@@UEAA@XZ
	??1LeakageModel@@UEAA@XZ
	??1Link@@UEAA@XZ
	??1MatrixSolver@@UEAA@XZ
	??1MemPool@@QEAA@XZ
	??1Network@@QEAA@XZ
	??1NetworkError@@UEAA@XZ
	??1Node@@UEAA@XZ
	??1ObjectParser@@UEAA@XZ
	??1Options@@QEAA@XZ
	??1OutputFile@@QEAA@XZ
	??1Pattern@@UEAA@XZ
	??1Pipe@@UEAA@XZ
	??1Project@Epanet@@QEAA@XZ
	??1ProjectWriter@@QEAA@XZ
	??1PropertyParser@@UEAA@XZ
	??1Pump@@UEAA@XZ
	??1PumpCurve@@QEAA@XZ
	??1QualEngine@@QEAA@XZ
	??1QualModel@@UEAA@XZ
	??1QualSolver@@UEAA@XZ
	??1QualSource@@QEAA@XZ
	??1ReportFields@@QEAA@XZ
	??1ReportWriter@@QEAA@XZ
	??1Reservoir@@UEAA@XZ
	??1SegPool@@QEAA@XZ
	??1SparspakSolver@@UEAA@XZ
	??1SystemError@@UEAA@XZ
	??1TankMixModel@@QEAA@XZ
	??1Units@@QEAA@XZ
	??1Valve@@UEAA@XZ
	??1VariablePattern@@UEAA@XZ
	??1_Sentry_base@?$basic_istream@DU?$char_traits@D@std@@@std@@QEAA@XZ
	??1_Sentry_base@?$basic_ostream@DU?$char_traits@D@std@@@std@@QEAA@XZ
	??1bad_cast@std@@UEAA@XZ
	??1locale@std@@QEAA@XZ
	??1sentry@?$basic_istream@DU?$char_traits@D@std@@@std@@QEAA@XZ
	??1sentry@?$basic_ostream@DU?$char_traits@D@std@@@std@@QEAA@XZ
	??3@YAXPEAX0@Z
	??4?$basic_string@DU?$char_traits@D@std@@V?$allocator@D@2@@std@@QEAAAEAV01@$$QEAV01@@Z
	??Y?$basic_string@DU?$char_traits@D@std@@V?$allocator@D@2@@std@@QEAAAEAV01@D@Z
	??_D?$basic_fstream@DU?$char_traits@D@std@@@std@@QEAAXXZ
	??_D?$basic_ifstream@DU?$char_traits@D@std@@@std@@QEAAXXZ
	??_D?$basic_istringstream@DU?$char_traits@D@std@@V?$allocator@D@2@@std@@QEAAXXZ
	??_D?$basic_ofstream@DU?$char_traits@D@std@@@std@@QEAAXXZ
	??_D?$basic_ostringstream@DU?$char_traits@D@std@@V?$allocator@D@2@@std@@QEAAXXZ
	??_D?$basic_stringstream@DU?$char_traits@D@std@@V?$allocator@D@2@@std@@QEAAXXZ
	?_Assign_rv@?$basic_string@DU?$char_traits@D@std@@V?$allocator@D@2@@std@@QEAAX$$QEAV12@@Z
	?_Buynode0@?$_List_alloc@U?$_List_base_types@U?$pair@$$CBV?$basic_string@DU?$char_traits@D@std@@V?$allocator@D@2@@std@@PEAVElement@@@std@@V?$allocator@U?$pair@$$CBV?$basic_string@DU?$char_traits@D@std@@V?$allocator@D@2@@std@@PEAVElement@@@std@@@2@@std@@@std@@QEAAPEAU?$_List_node@U?$pair@$$CBV?$basic_string@DU?$char_traits@D@std@@V?$allocator@D@2@@std@@PEAVElement@@@std@@PEAX@2@PEAU32@0@Z
	?_Buynode0@?$_List_alloc@U?$_List_base_types@VDemand@@V?$allocator@VDemand@@@std@@@std@@@std@@QEAAPEAU?$_List_node@VDemand@@PEAX@2@PEAU32@0@Z
	?_Check_size@?$_Hash@V?$_Umap_traits@V?$basic_string@DU?$char_traits@D@std@@V?$allocator@D@2@@std@@PEAVElement@@V?$_Uhash_compare@V?$basic_string@DU?$char_traits@D@std@@V?$allocator@D@2@@std@@U?$hash@V?$basic_string@DU?$char_traits@D@std@@V?$allocator@D@2@@std@@@2@U?$equal_to@V?$basic_string@DU?$char_traits@D@std@@V?$allocator@D@2@@std@@@2@@2@V?$allocator@U?$pair@$$CBV?$basic_string@DU?$char_traits@D@std@@V?$allocator@D@2@@std@@PEAVElement@@@std@@@2@$0A@@std@@@std@@IEAAXXZ
	?_Construct_n@?$vector@DV?$allocator@D@std@@@std@@QEAAX_KPEBD@Z
	?_Construct_n@?$vector@HV?$allocator@H@std@@@std@@QEAAX_KPEBH@Z
	?_Copy@?$basic_string@DU?$char_traits@D@std@@V?$allocator@D@2@@std@@QEAAX_K0@Z
	?_Destroy_if_not_nil@?$_Hash@V?$_Umap_traits@V?$basic_string@DU?$char_traits@D@std@@V?$allocator@D@2@@std@@PEAVElement@@V?$_Uhash_compare@V?$basic_string@DU?$char_traits@D@std@@V?$allocator@D@2@@std@@U?$hash@V?$basic_string@DU?$char_traits@D@std@@V?$allocator@D@2@@std@@@2@U?$equal_to@V?$basic_string@DU?$char_traits@D@std@@V?$allocator@D@2@@std@@@2@@2@V?$allocator@U?$pair@$$CBV?$basic_string@DU?$char_traits@D@std@@V?$allocator@D@2@@std@@PEAVElement@@@std@@@2@$0A@@std@@@std@@IEAAXV?$_List_unchecked_iterator@V?$_List_val@U?$_List_simple_types@U?$pair@$$CBV?$basic_string@DU?$char_traits@D@std@@V?$allocator@D@2@@std@@PEAVElement@@@std@@@std@@@std@@@2@@Z
	?_Endwrite@?$basic_filebuf@DU?$char_traits@D@std@@@std@@IEAA_NXZ
	?_Init@?$_Hash@V?$_Umap_traits@V?$basic_string@DU?$char_traits@D@std@@V?$allocator@D@2@@std@@PEAVElement@@V?$_Uhash_compare@V?$basic_string@DU?$char_traits@D@std@@V?$allocator@D@2@@std@@U?$hash@V?$basic_string@DU?$char_traits@D@std@@V?$allocator@D@2@@std@@@2@U?$equal_to@V?$basic_string@DU?$char_traits@D@std@@V?$allocator@D@2@@std@@@2@@2@V?$allocator@U?$pair@$$CBV?$basic_string@DU?$char_traits@D@std@@V?$allocator@D@2@@std@@PEAVElement@@@std@@@2@$0A@@std@@@std@@IEAAX_K@Z
	?_Init@?$basic_stringbuf@DU?$char_traits@D@std@@V?$allocator@D@2@@std@@IEAAXPEBD_KH@Z
	?_Insert_n@?$vector@V?$_List_unchecked_iterator@V?$_List_val@U?$_List_simple_types@U?$pair@$$CBV?$basic_string@DU?$char_traits@D@std@@V?$allocator@D@2@@std@@PEAVElement@@@std@@@std@@@std@@@std@@U?$_Wrap_alloc@V?$allocator@V?$_List_unchecked_iterator@V?$_List_val@U?$_List_simple_types@U?$pair@$$CBV?$basic_string@DU?$char_traits@D@std@@V?$allocator@D@2@@std@@PEAVElement@@@std@@@std@@@std@@@std@@@std@@@2@@std@@IEAA?AV?$_Vector_iterator@V?$_Vector_val@U?$_Simple_types@V?$_List_unchecked_iterator@V?$_List_val@U?$_List_simple_types@U?$pair@$$CBV?$basic_string@DU?$char_traits@D@std@@V?$allocator@D@2@@std@@PEAVElement@@@std@@@std@@@std@@@std@@@std@@@std@@@2@V?$_Vector_const_iterator@V?$_Vector_val@U?$_Simple_types@V?$_List_unchecked_iterator@V?$_List_val@U?$_List_simple_types@U?$pair@$$CBV?$basic_string@DU?$char_traits@D@std@@V?$allocator@D@2@@std@@PEAVElement@@@std@@@std@@@std@@@std@@@std@@@std@@@2@_KAEBV?$_List_unchecked_iterator@V?$_List_val@U?$_List_simple_types@U?$pair@$$CBV?$basic_string@DU?$char_traits@D@std@@V?$allocator@D@2@@std@@PEAVElement@@@std@@@std@@@std@@@2@@Z
	?_Lock@?$basic_filebuf@DU?$char_traits@D@std@@@std@@UEAAXXZ
	?_Myptr@?$_String_alloc@U?$_String_base_types@DV?$allocator@D@std@@@std@@@std@@QEBAPEBDXZ
	?_Reallocate@?$vector@DV?$allocator@D@std@@@std@@IEAAX_K@Z
	?_Reallocate@?$vector@HV?$allocator@H@std@@@std@@IEAAX_K@Z
	?_Reallocate@?$vector@NV?$allocator@N@std@@@std@@IEAAX_K@Z
	?_Reallocate@?$vector@PEAUSegment@@V?$allocator@PEAUSegment@@@std@@@std@@IEAAX_K@Z
	?_Reallocate@?$vector@PEAVControl@@V?$allocator@PEAVControl@@@std@@@std@@IEAAX_K@Z
	?_Reallocate@?$vector@PEAVCurve@@V?$allocator@PEAVCurve@@@std@@@std@@IEAAX_K@Z
	?_Reallocate@?$vector@PEAVLink@@V?$allocator@PEAVLink@@@std@@@std@@IEAAX_K@Z
	?_Reallocate@?$vector@PEAVNode@@V?$allocator@PEAVNode@@@std@@@std@@IEAAX_K@Z
	?_Reallocate@?$vector@PEAVPattern@@V?$allocator@PEAVPattern@@@std@@@std@@IEAAX_K@Z
	?_Reallocate@?$vector@V?$_List_unchecked_iterator@V?$_List_val@U?$_List_simple_types@U?$pair@$$CBV?$basic_string@DU?$char_traits@D@std@@V?$allocator@D@2@@std@@PEAVElement@@@std@@@std@@@std@@@std@@U?$_Wrap_alloc@V?$allocator@V?$_List_unchecked_iterator@V?$_List_val@U?$_List_simple_types@U?$pair@$$CBV?$basic_string@DU?$char_traits@D@std@@V?$allocator@D@2@@std@@PEAVElement@@@std@@@std@@@std@@@std@@@std@@@2@@std@@IEAAX_K@Z
	?_Reallocate@?$vector@V?$basic_string@DU?$char_traits@D@std@@V?$allocator@D@2@@std@@V?$allocator@V?$basic_string@DU?$char_traits@D@std@@V?$allocator@D@2@@std@@@2@@std@@IEAAX_K@Z
	?_Reserve@?$vector@HV?$allocator@H@std@@@std@@IEAAX_K@Z
	?_Reserve@?$vector@NV?$allocator@N@std@@@std@@IEAAX_K@Z
	?_Reserve@?$vector@PEAUSegment@@V?$allocator@PEAUSegment@@@std@@@std@@IEAAX_K@Z
	?_Reserve@?$vector@PEAVControl@@V?$allocator@PEAVControl@@@std@@@std@@IEAAX_K@Z
	?_Reserve@?$vector@PEAVCurve@@V?$allocator@PEAVCurve@@@std@@@std@@IEAAX_K@Z
	?_Reserve@?$vector@PEAVLink@@V?$allocator@PEAVLink@@@std@@@std@@IEAAX_K@Z
	?_Reserve@?$vector@PEAVNode@@V?$allocator@PEAVNode@@@std@@@std@@IEAAX_K@Z
	?_Reserve@?$vector@PEAVPattern@@V?$allocator@PEAVPattern@@@std@@@std@@IEAAX_K@Z
	?_Reserve@?$vector@V?$basic_string@DU?$char_traits@D@std@@V?$allocator@D@2@@std@@V?$allocator@V?$basic_string@DU?$char_traits@D@std@@V?$allocator@D@2@@std@@@2@@std@@IEAAX_K@Z
	?_Reset_back@?$basic_filebuf@DU?$char_traits@D@std@@@std@@AEAAXXZ
	?_Set_back@?$basic_filebuf@DU?$char_traits@D@std@@@std@@AEAAXXZ
	?_Tidy@?$basic_string@DU?$char_traits@D@std@@V?$allocator@D@2@@std@@QEAAX_N_K@Z
	?_Tidy@?$basic_stringbuf@DU?$char_traits@D@std@@V?$allocator@D@2@@std@@IEAAXXZ
	?_Tidy@?$vector@DV?$allocator@D@std@@@std@@IEAAXXZ
	?_Tidy@?$vector@HV?$allocator@H@std@@@std@@IEAAXXZ
	?_Tidy@?$vector@NV?$allocator@N@std@@@std@@IEAAXXZ
	?_Tidy@?$vector@PEAUSegment@@V?$allocator@PEAUSegment@@@std@@@std@@IEAAXXZ
	?_Unlock@?$basic_filebuf@DU?$char_traits@D@std@@@std@@UEAAXXZ
	?activate@Control@@AEAA_N_NAEAV?$basic_ostream@DU?$char_traits@D@std@@@std@@@Z
	?addCVHeadLoss@HeadLossModel@@SAXNAEAN0@Z
	?addElement@Network@@QEAA_NW4ElementType@Element@@HV?$basic_string@DU?$char_traits@D@std@@V?$allocator@D@2@@std@@@Z
	?addEmitter@Emitter@@SA_NPEAVJunction@@NNPEAVPattern@@@Z
	?addSegment@LTDSolver@@AEAAXHNN@Z
	?addSource@QualSource@@SA_NPEAVNode@@HNPEAVPattern@@@Z
	?addTime@VariablePattern@@QEAAXH@Z
	?addToDiag@SparspakSolver@@UEAAXHN@Z
	?addToOffDiag@SparspakSolver@@UEAAXHN@Z
	?addToRhs@SparspakSolver@@UEAAXHN@Z
	?adjustOptions@Options@@QEAAXXZ
	?advance@FixedPattern@@UEAAXH@Z
	?advance@HydEngine@@QEAAXPEAH@Z
	?advance@VariablePattern@@UEAAXH@Z
	?advanceSolver@Project@Epanet@@QEAAHPEAH@Z
	?aij2lnz@@YAXHPEAH000000@Z
	?alloc@MemPool@@QEAAPEAD_K@Z
	?allocate@?$_Wrap_alloc@V?$allocator@D@std@@@std@@QEAAPEAD_K@Z
	?allocate@?$allocator@D@std@@QEAAPEAD_K@Z
	?allocate@?$allocator@H@std@@QEAAPEAH_K@Z
	?allocate@?$allocator@N@std@@QEAAPEAN_K@Z
	?allocate@?$allocator@PEAUSegment@@@std@@QEAAPEAPEAUSegment@@_K@Z
	?allocate@?$allocator@PEAVControl@@@std@@QEAAPEAPEAVControl@@_K@Z
	?allocate@?$allocator@PEAVCurve@@@std@@QEAAPEAPEAVCurve@@_K@Z
	?allocate@?$allocator@PEAVLink@@@std@@QEAAPEAPEAVLink@@_K@Z
	?allocate@?$allocator@PEAVNode@@@std@@QEAAPEAPEAVNode@@_K@Z
	?allocate@?$allocator@PEAVPattern@@@std@@QEAAPEAPEAVPattern@@_K@Z
	?allocate@?$allocator@V?$_List_unchecked_iterator@V?$_List_val@U?$_List_simple_types@U?$pair@$$CBV?$basic_string@DU?$char_traits@D@std@@V?$allocator@D@2@@std@@PEAVElement@@@std@@@std@@@std@@@std@@@std@@QEAAPEAV?$_List_unchecked_iterator@V?$_List_val@U?$_List_simple_types@U?$pair@$$CBV?$basic_string@DU?$char_traits@D@std@@V?$allocator@D@2@@std@@PEAVElement@@@std@@@std@@@std@@@2@_K@Z
	?allocate@?$allocator@V?$basic_string@DU?$char_traits@D@std@@V?$allocator@D@2@@std@@@std@@QEAAPEAV?$basic_string@DU?$char_traits@D@std@@V?$allocator@D@2@@2@_K@Z
	?append@?$basic_string@DU?$char_traits@D@std@@V?$allocator@D@2@@std@@QEAAAEAV12@AEBV12@_K1@Z
	?append@?$basic_string@DU?$char_traits@D@std@@V?$allocator@D@2@@std@@QEAAAEAV12@PEBD_K@Z
	?append@?$basic_string@DU?$char_traits@D@std@@V?$allocator@D@2@@std@@QEAAAEAV12@_KD@Z
	?apply@Control@@QEAAXPEAVNetwork@@HH@Z
	?applyControlPattern@Link@@UEAAXAEAV?$basic_ostream@DU?$char_traits@D@std@@@std@@@Z
	?applyControlPattern@Pump@@UEAAXAEAV?$basic_ostream@DU?$char_traits@D@std@@@std@@@Z
	?applyPressureControls@Control@@SAXPEAVNetwork@@@Z
	?assign@?$basic_string@DU?$char_traits@D@std@@V?$allocator@D@2@@std@@QEAAAEAV12@AEBV12@_K1@Z
	?assign@?$basic_string@DU?$char_traits@D@std@@V?$allocator@D@2@@std@@QEAAAEAV12@PEBD_K@Z
	?buildAdjncy@@YAXHHPEAH000000@Z
	?canLeak@Link@@UEAA_NXZ
	?canLeak@Pipe@@UEAA_NXZ
	?changeSetting@Link@@UEAA_NN_NV?$basic_string@DU?$char_traits@D@std@@V?$allocator@D@2@@std@@AEAV?$basic_ostream@DU?$char_traits@D@std@@@3@@Z
	?changeSetting@Pump@@UEAA_NN_NV?$basic_string@DU?$char_traits@D@std@@V?$allocator@D@2@@std@@AEAV?$basic_ostream@DU?$char_traits@D@std@@@3@@Z
	?changeSetting@Valve@@UEAA_NN_NV?$basic_string@DU?$char_traits@D@std@@V?$allocator@D@2@@std@@AEAV?$basic_ostream@DU?$char_traits@D@std@@@3@@Z
	?changeStatus@Link@@UEAA_NH_NV?$basic_string@DU?$char_traits@D@std@@V?$allocator@D@2@@std@@AEAV?$basic_ostream@DU?$char_traits@D@std@@@3@@Z
	?changeStatus@Pipe@@UEAA_NH_NV?$basic_string@DU?$char_traits@D@std@@V?$allocator@D@2@@std@@AEAV?$basic_ostream@DU?$char_traits@D@std@@@3@@Z
	?changeStatus@Pump@@UEAA_NH_NV?$basic_string@DU?$char_traits@D@std@@V?$allocator@D@2@@std@@AEAV?$basic_ostream@DU?$char_traits@D@std@@@3@@Z
	?changeStatus@Valve@@UEAA_NH_NV?$basic_string@DU?$char_traits@D@std@@V?$allocator@D@2@@std@@AEAV?$basic_ostream@DU?$char_traits@D@std@@@3@@Z
	?clear@?$list@U?$pair@$$CBV?$basic_string@DU?$char_traits@D@std@@V?$allocator@D@2@@std@@PEAVElement@@@std@@V?$allocator@U?$pair@$$CBV?$basic_string@DU?$char_traits@D@std@@V?$allocator@D@2@@std@@PEAVElement@@@std@@@2@@std@@QEAAXXZ
	?clear@Network@@QEAAXXZ
	?clear@Project@Epanet@@QEAAXXZ
	?close@?$basic_filebuf@DU?$char_traits@D@std@@@std@@QEAAPEAV12@XZ
	?close@?$basic_ofstream@DU?$char_traits@D@std@@@std@@QEAAXXZ
	?close@HydEngine@@QEAAXXZ
	?close@OutputFile@@QEAAXXZ
	?close@QualEngine@@QEAAXXZ
	?closeReport@Project@Epanet@@AEAAXXZ
	?compress@@YAHHHPEAH0000@Z
	?constHpHeadLoss@PumpCurve@@AEAAXNNAEAN0@Z
	?control@Network@@QEAAPEAVControl@@AEBV?$basic_string@DU?$char_traits@D@std@@V?$allocator@D@2@@std@@@Z
	?control@Network@@QEAAPEAVControl@@H@Z
	?convertSetting@Link@@UEAANPEAVNetwork@@N@Z
	?convertSetting@Valve@@UEAANPEAVNetwork@@N@Z
	?convertUnits@Control@@QEAAXPEAVNetwork@@@Z
	?convertUnits@Emitter@@QEAAXPEAVNetwork@@@Z
	?convertUnits@Junction@@UEAAXPEAVNetwork@@@Z
	?convertUnits@Network@@QEAAXXZ
	?convertUnits@Pipe@@UEAAXPEAVNetwork@@@Z
	?convertUnits@Pump@@UEAAXPEAVNetwork@@@Z
	?convertUnits@Reservoir@@UEAAXPEAVNetwork@@@Z
	?convertUnits@Tank@@UEAAXPEAVNetwork@@@Z
	?convertUnits@Valve@@UEAAXPEAVNetwork@@@Z
	?count@Network@@QEAAHW4ElementType@Element@@@Z
	?createAdjLists@Graph@@QEAAXPEAVNetwork@@@Z
	?createControl@ControlParser@@AEAAXPEAVNetwork@@@Z
	?createDemandModel@Network@@QEAA_NXZ
	?createHeadLossModel@Network@@QEAA_NXZ
	?createLeakageModel@Network@@QEAA_NXZ
	?createQualModel@Network@@QEAA_NXZ
	?currentFactor@Pattern@@QEAANXZ
	?curve@Network@@QEAAPEAVCurve@@AEBV?$basic_string@DU?$char_traits@D@std@@V?$allocator@D@2@@std@@@Z
	?curve@Network@@QEAAPEAVCurve@@H@Z
	?customCurveHeadLoss@PumpCurve@@AEAAXNNAEAN0@Z
	?deallocate@?$_Wrap_alloc@V?$allocator@D@std@@@std@@QEAAXPEAD_K@Z
	?deallocate@?$allocator@D@std@@QEAAXPEAD_K@Z
	?deallocate@?$allocator@H@std@@QEAAXPEAH_K@Z
	?deallocate@?$allocator@N@std@@QEAAXPEAN_K@Z
	?deallocate@?$allocator@PEAUSegment@@@std@@QEAAXPEAPEAUSegment@@_K@Z
	?deallocate@?$allocator@PEAVControl@@@std@@QEAAXPEAPEAVControl@@_K@Z
	?deallocate@?$allocator@PEAVCurve@@@std@@QEAAXPEAPEAVCurve@@_K@Z
	?deallocate@?$allocator@PEAVLink@@@std@@QEAAXPEAPEAVLink@@_K@Z
	?deallocate@?$allocator@PEAVNode@@@std@@QEAAXPEAPEAVNode@@_K@Z
	?deallocate@?$allocator@PEAVPattern@@@std@@QEAAXPEAPEAVPattern@@_K@Z
	?deallocate@?$allocator@V?$_List_unchecked_iterator@V?$_List_val@U?$_List_simple_types@U?$pair@$$CBV?$basic_string@DU?$char_traits@D@std@@V?$allocator@D@2@@std@@PEAVElement@@@std@@@std@@@std@@@std@@@std@@QEAAXPEAV?$_List_unchecked_iterator@V?$_List_val@U?$_List_simple_types@U?$pair@$$CBV?$basic_string@DU?$char_traits@D@std@@V?$allocator@D@2@@std@@PEAVElement@@@std@@@std@@@std@@@2@_K@Z
	?deallocate@?$allocator@V?$basic_string@DU?$char_traits@D@std@@V?$allocator@D@2@@std@@@std@@QEAAXPEAV?$basic_string@DU?$char_traits@D@std@@V?$allocator@D@2@@2@_K@Z
	?debug@MatrixSolver@@UEAAXAEAV?$basic_ostream@DU?$char_traits@D@std@@@std@@@Z
	?demandOptionsToStr@Options@@QEAA?AV?$basic_string@DU?$char_traits@D@std@@V?$allocator@D@2@@std@@XZ
	?energyOptionsToStr@Options@@QEAA?AV?$basic_string@DU?$char_traits@D@std@@V?$allocator@D@2@@std@@PEAVNetwork@@@Z
	?erase@?$_Hash@V?$_Umap_traits@V?$basic_string@DU?$char_traits@D@std@@V?$allocator@D@2@@std@@PEAVElement@@V?$_Uhash_compare@V?$basic_string@DU?$char_traits@D@std@@V?$allocator@D@2@@std@@U?$hash@V?$basic_string@DU?$char_traits@D@std@@V?$allocator@D@2@@std@@@2@U?$equal_to@V?$basic_string@DU?$char_traits@D@std@@V?$allocator@D@2@@std@@@2@@2@V?$allocator@U?$pair@$$CBV?$basic_string@DU?$char_traits@D@std@@V?$allocator@D@2@@std@@PEAVElement@@@std@@@2@$0A@@std@@@std@@QEAA?AV?$_List_iterator@V?$_List_val@U?$_List_simple_types@U?$pair@$$CBV?$basic_string@DU?$char_traits@D@std@@V?$allocator@D@2@@std@@PEAVElement@@@std@@@std@@@std@@@2@V?$_List_const_iterator@V?$_List_val@U?$_List_simple_types@U?$pair@$$CBV?$basic_string@DU?$char_traits@D@std@@V?$allocator@D@2@@std@@PEAVElement@@@std@@@std@@@std@@@2@@Z
	?erase@?$basic_string@DU?$char_traits@D@std@@V?$allocator@D@2@@std@@QEAAAEAV12@_K0@Z
	?evaluate@HydBalance@@QEAANNQEAN00PEAVNetwork@@@Z
	?factorize@@YAHHAEAHPEAH111111@Z
	?factory@DemandModel@@SAPEAV1@V?$basic_string@DU?$char_traits@D@std@@V?$allocator@D@2@@std@@N@Z
	?factory@HeadLossModel@@SAPEAV1@V?$basic_string@DU?$char_traits@D@std@@V?$allocator@D@2@@std@@N@Z
	?factory@HydSolver@@SAPEAV1@V?$basic_string@DU?$char_traits@D@std@@V?$allocator@D@2@@std@@PEAVNetwork@@PEAVMatrixSolver@@@Z
	?factory@LeakageModel@@SAPEAV1@V?$basic_string@DU?$char_traits@D@std@@V?$allocator@D@2@@std@@NN@Z
	?factory@Link@@SAPEAV1@HV?$basic_string@DU?$char_traits@D@std@@V?$allocator@D@2@@std@@PEAVMemPool@@@Z
	?factory@MatrixSolver@@SAPEAV1@V?$basic_string@DU?$char_traits@D@std@@V?$allocator@D@2@@std@@AEAV?$basic_ostream@DU?$char_traits@D@std@@@3@@Z
	?factory@Node@@SAPEAV1@HV?$basic_string@DU?$char_traits@D@std@@V?$allocator@D@2@@std@@PEAVMemPool@@@Z
	?factory@Pattern@@SAPEAV1@HV?$basic_string@DU?$char_traits@D@std@@V?$allocator@D@2@@std@@PEAVMemPool@@@Z
	?factory@QualModel@@SAPEAV1@V?$basic_string@DU?$char_traits@D@std@@V?$allocator@D@2@@std@@@Z
	?factory@QualSolver@@SAPEAV1@V?$basic_string@DU?$char_traits@D@std@@V?$allocator@D@2@@std@@PEAVNetwork@@@Z
	?finalizeSolver@Project@Epanet@@AEAAXXZ
	?find@?$basic_string@DU?$char_traits@D@std@@V?$allocator@D@2@@std@@QEBA_KD_K@Z
	?find@?$basic_string@DU?$char_traits@D@std@@V?$allocator@D@2@@std@@QEBA_KPEBD_K1@Z
	?findActualDemand@Junction@@UEAANPEAVNetwork@@NAEAN@Z
	?findActualDemand@Node@@UEAANPEAVNetwork@@NAEAN@Z
	?findBulkRate@ChemModel@@AEAANNNN@Z
	?findClosedHeadLoss@HeadLossModel@@SAXNAEAN0@Z
	?findCostFactor@PumpEnergy@@AEAANPEAVPump@@PEAVNetwork@@@Z
	?findDemand@ConstrainedDemandModel@@UEAANPEAVJunction@@NAEAN@Z
	?findDemand@DemandModel@@UEAANPEAVJunction@@NAEAN@Z
	?findDemand@LogisticDemandModel@@UEAANPEAVJunction@@NAEAN@Z
	?findDemand@PowerDemandModel@@UEAANPEAVJunction@@NAEAN@Z
	?findEfficiency@PumpEnergy@@AEAANPEAVPump@@PEAVNetwork@@@Z
	?findEmitterFlow@Junction@@UEAANNAEAN@Z
	?findEmitterFlow@Node@@UEAANNAEAN@Z
	?findErrorNorm@GGASolver@@AEAANN@Z
	?findFIFOQuality@TankMixModel@@AEAANNNNPEAVSegPool@@@Z
	?findFcvHeadLoss@Valve@@IEAAXN@Z
	?findFlow@FavadLeakageModel@@UEAANNNNNAEAN@Z
	?findFlow@PowerLeakageModel@@UEAANNNNNAEAN@Z
	?findFlowChanges@GGASolver@@AEAAXXZ
	?findFlowErrorNorm@HydBalance@@QEAANQEANPEAVNetwork@@@Z
	?findFlowRate@Emitter@@QEAANNAEAN@Z
	?findFullDemand@Junction@@UEAAXNN@Z
	?findFullDemand@Node@@UEAAXNN@Z
	?findFullMatch@Utilities@@SAHAEBV?$basic_string@DU?$char_traits@D@std@@V?$allocator@D@2@@std@@QEAPEBD@Z
	?findGpvHeadLoss@Valve@@IEAAXPEAVNetwork@@N@Z
	?findHead@Tank@@QEAANN@Z
	?findHeadChanges@GGASolver@@AEAAHXZ
	?findHeadErrorNorm@HydBalance@@QEAANNQEAN00PEAVNetwork@@@Z
	?findHeadLoss@CM_HeadLossModel@@UEAAXPEAVPipe@@NAEAN1@Z
	?findHeadLoss@DW_HeadLossModel@@UEAAXPEAVPipe@@NAEAN1@Z
	?findHeadLoss@HW_HeadLossModel@@UEAAXPEAVPipe@@NAEAN1@Z
	?findHeadLoss@Pipe@@UEAAXPEAVNetwork@@N@Z
	?findHeadLoss@Pump@@UEAAXPEAVNetwork@@N@Z
	?findHeadLoss@PumpCurve@@QEAAXNNAEAN0@Z
	?findHeadLoss@Valve@@UEAAXPEAVNetwork@@N@Z
	?findLIFOQuality@TankMixModel@@AEAANNNNPEAVSegPool@@@Z
	?findLeakage@Link@@UEAANPEAVNetwork@@NAEAN@Z
	?findLeakage@Pipe@@UEAANPEAVNetwork@@NAEAN@Z
	?findLeakageFlows@@YAXNQEAN0PEAVNetwork@@@Z
	?findMIX1Quality@TankMixModel@@AEAANNNN@Z
	?findMIX2Quality@TankMixModel@@AEAANNNN@Z
	?findMassTransCoeff@ChemModel@@UEAAXPEAVPipe@@@Z
	?findMassTransCoeff@QualModel@@UEAAXPEAVPipe@@@Z
	?findMatch@Utilities@@SAHAEBV?$basic_string@DU?$char_traits@D@std@@V?$allocator@D@2@@std@@QEAPEBD@Z
	?findNodeOutflows@@YAXNQEAN0PEAVNetwork@@@Z
	?findOpenHeadLoss@Valve@@IEAAXN@Z
	?findPbvHeadLoss@Valve@@IEAAXN@Z
	?findQuality@TankMixModel@@QEAANNNNPEAVSegPool@@@Z
	?findSection@InputReader@@IEAAXAEAV?$basic_string@DU?$char_traits@D@std@@V?$allocator@D@2@@std@@@Z
	?findSegment@Curve@@QEAAXNAEAN0@Z
	?findStepSize@GGASolver@@AEAANH@Z
	?findStoredMass@LTDSolver@@AEAANXZ
	?findTcvHeadLoss@Valve@@IEAAXN@Z
	?findTotalFlowChange@@YANNQEANPEAVNetwork@@@Z
	?findTracerAdded@QualModel@@UEAANPEAVNode@@N@Z
	?findTracerAdded@TraceModel@@UEAANPEAVNode@@N@Z
	?findVolume@Tank@@QEAANN@Z
	?findWallRate@ChemModel@@AEAANNNNN@Z
	?fixed@std@@YAAEAVios_base@1@AEAV21@@Z
	?flowDirectionsChanged@QualEngine@@AEAA_NXZ
	?freeSegment@SegPool@@QEAAXPEAUSegment@@@Z
	?frictionFactor@@YANNNNAEAN@Z
	?getCount@DataManager@@SAHHPEAHPEAVNetwork@@@Z
	?getDiag@MatrixSolver@@UEAANH@Z
	?getDiag@SparspakSolver@@UEAANH@Z
	?getEpanet3Keyword@OptionParser@@AEAA?AV?$basic_string@DU?$char_traits@D@std@@V?$allocator@D@2@@std@@AEBV23@0AEAV23@@Z
	?getFileName@Utilities@@SA?AV?$basic_string@DU?$char_traits@D@std@@V?$allocator@D@2@@std@@V23@@Z
	?getFullDemand@Demand@@QEAANNN@Z
	?getLinkId@DataManager@@SAHHPEADPEAVNetwork@@@Z
	?getLinkIndex@DataManager@@SAHPEADPEAHPEAVNetwork@@@Z
	?getLinkNodes@DataManager@@SAHHPEAH0PEAVNetwork@@@Z
	?getLinkType@DataManager@@SAHHPEAHPEAVNetwork@@@Z
	?getLinkValue@DataManager@@SAHHHPEANPEAVNetwork@@@Z
	?getNodeId@DataManager@@SAHHPEADPEAVNetwork@@@Z
	?getNodeIndex@DataManager@@SAHPEADPEAHPEAVNetwork@@@Z
	?getNodeType@DataManager@@SAHHPEAHPEAVNetwork@@@Z
	?getNodeValue@DataManager@@SAHHHPEANPEAVNetwork@@@Z
	?getOffDiag@MatrixSolver@@UEAANH@Z
	?getOffDiag@SparspakSolver@@UEAANH@Z
	?getPipeValue@@YAHHPEAVLink@@PEANPEAVNetwork@@@Z
	?getQualSourceValue@@YAHHPEAVNode@@PEANPEAVNetwork@@@Z
	?getQuality@QualSource@@QEAANPEAVNode@@@Z
	?getRe@Link@@UEAANNN@Z
	?getRe@Pipe@@UEAANNN@Z
	?getRe@Valve@@UEAANNN@Z
	?getResistance@Link@@UEAANXZ
	?getResistance@Pipe@@UEAANXZ
	?getRhs@MatrixSolver@@UEAANH@Z
	?getRhs@SparspakSolver@@UEAANH@Z
	?getSeconds@Utilities@@SAHAEBV?$basic_string@DU?$char_traits@D@std@@V?$allocator@D@2@@std@@0@Z
	?getSegment@SegPool@@QEAAPEAUSegment@@NN@Z
	?getSetting@Link@@UEAANPEAVNetwork@@@Z
	?getSetting@Pipe@@UEAANPEAVNetwork@@@Z
	?getSetting@Pump@@UEAANPEAVNetwork@@@Z
	?getSetting@Valve@@UEAANPEAVNetwork@@@Z
	?getTankValue@@YAHHPEAVNode@@PEANPEAVNetwork@@@Z
	?getTime@Utilities@@SA?AV?$basic_string@DU?$char_traits@D@std@@V?$allocator@D@2@@std@@H@Z
	?getTimeStep@HydEngine@@AEAAHXZ
	?getTmpFileName@Utilities@@SA_NAEAV?$basic_string@DU?$char_traits@D@std@@V?$allocator@D@2@@std@@@Z
	?getUnitHeadLoss@Link@@UEAANXZ
	?getUnitHeadLoss@Pipe@@UEAANXZ
	?getUnits@Network@@QEAA?AV?$basic_string@DU?$char_traits@D@std@@V?$allocator@D@2@@std@@W4Quantity@Units@@@Z
	?getVelocity@Link@@UEAANXZ
	?getVelocity@Pipe@@UEAANXZ
	?getVelocity@Valve@@UEAANXZ
	?getVolume@Link@@UEAANXZ
	?getVolume@Node@@UEAANXZ
	?getVolume@Pipe@@UEAANXZ
	?getVolume@Tank@@UEAANXZ
	?getXofY@Curve@@QEAANN@Z
	?getYofX@Curve@@QEAANN@Z
	?hasConnectedNodes@@YA_NPEAVNetwork@@@Z
	?hasConverged@GGASolver@@AEAA_NXZ
	?hasEmitter@Junction@@UEAA_NXZ
	?hasEmitter@Node@@UEAA_NXZ
	?hasFixedGradeNodes@@YA_NPEAVNetwork@@@Z
	?hasValidCurves@@YA_NPEAVNetwork@@@Z
	?hasValidLinks@@YA_NPEAVNetwork@@@Z
	?hasValidNodes@@YA_NPEAVNetwork@@@Z
	?hasValidValves@@YA_NPEAVNetwork@@@Z
	?hydOptionsToStr@Options@@QEAA?AV?$basic_string@DU?$char_traits@D@std@@V?$allocator@D@2@@std@@XZ
	?imbue@?$basic_filebuf@DU?$char_traits@D@std@@@std@@MEAAXAEBVlocale@2@@Z
	?indexOf@Network@@QEAAHW4ElementType@Element@@AEBV?$basic_string@DU?$char_traits@D@std@@V?$allocator@D@2@@std@@@Z
	?init@ChemModel@@UEAAXPEAVNetwork@@@Z
	?init@FixedPattern@@UEAAXHH@Z
	?init@HydEngine@@QEAAX_N@Z
	?init@LTDSolver@@UEAAXXZ
	?init@PumpEnergy@@QEAAXXZ
	?init@QualBalance@@QEAAXN@Z
	?init@QualEngine@@QEAAXXZ
	?init@QualModel@@UEAAXPEAVNetwork@@@Z
	?init@QualSolver@@UEAAXXZ
	?init@SegPool@@QEAAXXZ
	?init@SparspakSolver@@UEAAHHHPEAH0@Z
	?init@TankMixModel@@QEAAXPEAVTank@@PEAVSegPool@@N@Z
	?init@TraceModel@@UEAAXPEAVNetwork@@@Z
	?init@VariablePattern@@UEAAXHH@Z
	?initMatrixSolver@HydEngine@@AEAAXXZ
	?initReader@OutputFile@@QEAAHXZ
	?initSolver@Project@Epanet@@QEAAH_N@Z
	?initWriter@OutputFile@@QEAAHXZ
	?initialize@Junction@@UEAAXPEAVNetwork@@@Z
	?initialize@Link@@UEAAX_N@Z
	?initialize@Node@@UEAAXPEAVNetwork@@@Z
	?initialize@Tank@@UEAAXPEAVNetwork@@@Z
	?initialize@Valve@@UEAAX_N@Z
	?initializeControlSettings@ControlParser@@AEAAXXZ
	?insert@?$basic_string@DU?$char_traits@D@std@@V?$allocator@D@2@@std@@QEAAAEAV12@_KAEBV12@00@Z
	?isClosed@Node@@UEAA_NN@Z
	?isClosed@Tank@@UEAA_NN@Z
	?isEmpty@Node@@UEAA_NXZ
	?isEmpty@Tank@@UEAA_NXZ
	?isFull@Node@@UEAA_NXZ
	?isFull@Tank@@UEAA_NXZ
	?isHpPump@Link@@UEAA_NXZ
	?isHpPump@Pump@@UEAA_NXZ
	?isPRV@Link@@UEAA_NXZ
	?isPRV@Valve@@UEAA_NXZ
	?isPSV@Link@@UEAA_NXZ
	?isPSV@Valve@@UEAA_NXZ
	?isPressureDeficient@ConstrainedDemandModel@@UEAA_NPEAVJunction@@@Z
	?isPressureDeficient@DemandModel@@UEAA_NPEAVJunction@@@Z
	?isPressureDeficient@HydEngine@@AEAA_NXZ
	?isPressureDeficient@Junction@@UEAA_NPEAVNetwork@@@Z
	?isPressureDeficient@Node@@UEAA_NPEAVNetwork@@@Z
	?isReactive@AgeModel@@UEAA_NXZ
	?isReactive@ChemModel@@UEAA_NXZ
	?isReactive@Link@@UEAA_NXZ
	?isReactive@Node@@UEAA_NXZ
	?isReactive@Pipe@@UEAA_NXZ
	?isReactive@QualModel@@UEAA_NXZ
	?isReactive@Tank@@UEAA_NXZ
	?left@std@@YAAEAVios_base@1@AEAV21@@Z
	?link@Network@@QEAAPEAVLink@@AEBV?$basic_string@DU?$char_traits@D@std@@V?$allocator@D@2@@std@@@Z
	?link@Network@@QEAAPEAVLink@@H@Z
	?linksChangedStatus@GGASolver@@AEAA_NXZ
	?load@Project@Epanet@@QEAAHPEBD@Z
	?lower_bound@?$_Hash@V?$_Umap_traits@V?$basic_string@DU?$char_traits@D@std@@V?$allocator@D@2@@std@@PEAVElement@@V?$_Uhash_compare@V?$basic_string@DU?$char_traits@D@std@@V?$allocator@D@2@@std@@U?$hash@V?$basic_string@DU?$char_traits@D@std@@V?$allocator@D@2@@std@@@2@U?$equal_to@V?$basic_string@DU?$char_traits@D@std@@V?$allocator@D@2@@std@@@2@@2@V?$allocator@U?$pair@$$CBV?$basic_string@DU?$char_traits@D@std@@V?$allocator@D@2@@std@@PEAVElement@@@std@@@2@$0A@@std@@@std@@QEAA?AV?$_List_iterator@V?$_List_val@U?$_List_simple_types@U?$pair@$$CBV?$basic_string@DU?$char_traits@D@std@@V?$allocator@D@2@@std@@PEAVElement@@@std@@@std@@@std@@@2@AEBV?$basic_string@DU?$char_traits@D@std@@V?$allocator@D@2@@2@@Z
	?match@Utilities@@SA_NAEBV?$basic_string@DU?$char_traits@D@std@@V?$allocator@D@2@@std@@0@Z
	?mmdelm_@@YAHPEAH0000000000@Z
	?mmdint_@@YAHPEAH00000000@Z
	?mmdnum_@@YAHPEAH000@Z
	?mmdupd_@@YAXPEAH0000000000000@Z
	?name@Units@@QEAA?AV?$basic_string@DU?$char_traits@D@std@@V?$allocator@D@2@@std@@W4Quantity@1@@Z
	?nextTime@FixedPattern@@UEAAHH@Z
	?nextTime@VariablePattern@@UEAAHH@Z
	?node@Network@@QEAAPEAVNode@@AEBV?$basic_string@DU?$char_traits@D@std@@V?$allocator@D@2@@std@@@Z
	?node@Network@@QEAAPEAVNode@@H@Z
	?open@?$basic_filebuf@DU?$char_traits@D@std@@@std@@QEAAPEAV12@PEBDHH@Z
	?open@HydEngine@@QEAAXPEAVNetwork@@@Z
	?open@OutputFile@@QEAAHV?$basic_string@DU?$char_traits@D@std@@V?$allocator@D@2@@std@@PEAVNetwork@@@Z
	?open@QualEngine@@QEAAXPEAVNetwork@@@Z
	?openOutput@Project@Epanet@@QEAAHPEBD@Z
	?openReport@Project@Epanet@@QEAAHPEBD@Z
	?option@Network@@QEAA?AV?$basic_string@DU?$char_traits@D@std@@V?$allocator@D@2@@std@@W4StringOption@Options@@@Z
	?overflow@?$basic_filebuf@DU?$char_traits@D@std@@@std@@MEAAHH@Z
	?overflow@?$basic_stringbuf@DU?$char_traits@D@std@@V?$allocator@D@2@@std@@MEAAHH@Z
	?parseControlLine@ControlParser@@QEAAXAEAV?$basic_string@DU?$char_traits@D@std@@V?$allocator@D@2@@std@@PEAVNetwork@@@Z
	?parseCoords@NodeParser@@QEAAXPEAVNode@@AEAV?$vector@V?$basic_string@DU?$char_traits@D@std@@V?$allocator@D@2@@std@@V?$allocator@V?$basic_string@DU?$char_traits@D@std@@V?$allocator@D@2@@std@@@2@@std@@@Z
	?parseCurveData@CurveParser@@QEAAXPEAVCurve@@AEAV?$vector@V?$basic_string@DU?$char_traits@D@std@@V?$allocator@D@2@@std@@V?$allocator@V?$basic_string@DU?$char_traits@D@std@@V?$allocator@D@2@@std@@@2@@std@@@Z
	?parseDemand@NodeParser@@QEAAXPEAVNode@@PEAVNetwork@@AEAV?$vector@V?$basic_string@DU?$char_traits@D@std@@V?$allocator@D@2@@std@@V?$allocator@V?$basic_string@DU?$char_traits@D@std@@V?$allocator@D@2@@std@@@2@@std@@@Z
	?parseEmitter@NodeParser@@QEAAXPEAVNode@@PEAVNetwork@@AEAV?$vector@V?$basic_string@DU?$char_traits@D@std@@V?$allocator@D@2@@std@@V?$allocator@V?$basic_string@DU?$char_traits@D@std@@V?$allocator@D@2@@std@@@2@@std@@@Z
	?parseEnergy@LinkParser@@QEAAXPEAVLink@@PEAVNetwork@@AEAV?$vector@V?$basic_string@DU?$char_traits@D@std@@V?$allocator@D@2@@std@@V?$allocator@V?$basic_string@DU?$char_traits@D@std@@V?$allocator@D@2@@std@@@2@@std@@@Z
	?parseEnergyOption@OptionParser@@QEAAXPEAVNetwork@@AEAV?$vector@V?$basic_string@DU?$char_traits@D@std@@V?$allocator@D@2@@std@@V?$allocator@V?$basic_string@DU?$char_traits@D@std@@V?$allocator@D@2@@std@@@2@@std@@@Z
	?parseFile@InputReader@@IEAAXAEAV?$basic_istream@DU?$char_traits@D@std@@@std@@AEAVInputParser@@@Z
	?parseFixedPattern@PatternParser@@IEAAXPEAVPattern@@AEAV?$vector@V?$basic_string@DU?$char_traits@D@std@@V?$allocator@D@2@@std@@V?$allocator@V?$basic_string@DU?$char_traits@D@std@@V?$allocator@D@2@@std@@@2@@std@@@Z
	?parseInitQual@NodeParser@@QEAAXPEAVNode@@AEAV?$vector@V?$basic_string@DU?$char_traits@D@std@@V?$allocator@D@2@@std@@V?$allocator@V?$basic_string@DU?$char_traits@D@std@@V?$allocator@D@2@@std@@@2@@std@@@Z
	?parseLeakage@LinkParser@@QEAAXPEAVLink@@AEAV?$vector@V?$basic_string@DU?$char_traits@D@std@@V?$allocator@D@2@@std@@V?$allocator@V?$basic_string@DU?$char_traits@D@std@@V?$allocator@D@2@@std@@@2@@std@@@Z
	?parseLevelSetting@ControlParser@@AEAAXPEAVNetwork@@@Z
	?parseLine@ObjectParser@@UEAAXAEAV?$basic_string@DU?$char_traits@D@std@@V?$allocator@D@2@@std@@H@Z
	?parseLine@PropertyParser@@UEAAXAEAV?$basic_string@DU?$char_traits@D@std@@V?$allocator@D@2@@std@@H@Z
	?parseLinkData@LinkParser@@QEAAXAEAV?$basic_string@DU?$char_traits@D@std@@V?$allocator@D@2@@std@@PEAVNetwork@@AEAV?$vector@V?$basic_string@DU?$char_traits@D@std@@V?$allocator@D@2@@std@@V?$allocator@V?$basic_string@DU?$char_traits@D@std@@V?$allocator@D@2@@std@@@2@@3@@Z
	?parseLinkProperty@PropertyParser@@AEAAXHAEAV?$basic_string@DU?$char_traits@D@std@@V?$allocator@D@2@@std@@@Z
	?parseLinkSetting@ControlParser@@AEAAXPEAVNetwork@@@Z
	?parseNodeData@NodeParser@@QEAAXAEAV?$basic_string@DU?$char_traits@D@std@@V?$allocator@D@2@@std@@PEAVNetwork@@AEAV?$vector@V?$basic_string@DU?$char_traits@D@std@@V?$allocator@D@2@@std@@V?$allocator@V?$basic_string@DU?$char_traits@D@std@@V?$allocator@D@2@@std@@@2@@3@@Z
	?parseNodeProperty@PropertyParser@@AEAAXHAEAV?$basic_string@DU?$char_traits@D@std@@V?$allocator@D@2@@std@@@Z
	?parseOption@OptionParser@@QEAAXPEAVNetwork@@AEAV?$vector@V?$basic_string@DU?$char_traits@D@std@@V?$allocator@D@2@@std@@V?$allocator@V?$basic_string@DU?$char_traits@D@std@@V?$allocator@D@2@@std@@@2@@std@@@Z
	?parsePatternData@PatternParser@@QEAAXPEAVPattern@@AEAV?$vector@V?$basic_string@DU?$char_traits@D@std@@V?$allocator@D@2@@std@@V?$allocator@V?$basic_string@DU?$char_traits@D@std@@V?$allocator@D@2@@std@@@2@@std@@@Z
	?parseQualOption@OptionParser@@AEAAXAEBV?$basic_string@DU?$char_traits@D@std@@V?$allocator@D@2@@std@@0PEAVNetwork@@@Z
	?parseQualSource@NodeParser@@QEAAXPEAVNode@@PEAVNetwork@@AEAV?$vector@V?$basic_string@DU?$char_traits@D@std@@V?$allocator@D@2@@std@@V?$allocator@V?$basic_string@DU?$char_traits@D@std@@V?$allocator@D@2@@std@@@2@@std@@@Z
	?parseReactOption@OptionParser@@QEAAXPEAVNetwork@@AEAV?$vector@V?$basic_string@DU?$char_traits@D@std@@V?$allocator@D@2@@std@@V?$allocator@V?$basic_string@DU?$char_traits@D@std@@V?$allocator@D@2@@std@@@2@@std@@@Z
	?parseReactProperty@PropertyParser@@AEAAXAEAV?$basic_string@DU?$char_traits@D@std@@V?$allocator@D@2@@std@@@Z
	?parseReaction@LinkParser@@QEAAXPEAVLink@@HAEAV?$vector@V?$basic_string@DU?$char_traits@D@std@@V?$allocator@D@2@@std@@V?$allocator@V?$basic_string@DU?$char_traits@D@std@@V?$allocator@D@2@@std@@@2@@std@@@Z
	?parseReportField@OptionParser@@AEAAXPEAVNetwork@@HPEAV?$basic_string@DU?$char_traits@D@std@@V?$allocator@D@2@@std@@@Z
	?parseReportItems@OptionParser@@AEAAXHPEAVNetwork@@HPEAV?$basic_string@DU?$char_traits@D@std@@V?$allocator@D@2@@std@@@Z
	?parseReportOption@OptionParser@@QEAAXPEAVNetwork@@AEAV?$vector@V?$basic_string@DU?$char_traits@D@std@@V?$allocator@D@2@@std@@V?$allocator@V?$basic_string@DU?$char_traits@D@std@@V?$allocator@D@2@@std@@@2@@std@@@Z
	?parseStatus@LinkParser@@QEAAXPEAVLink@@AEAV?$vector@V?$basic_string@DU?$char_traits@D@std@@V?$allocator@D@2@@std@@V?$allocator@V?$basic_string@DU?$char_traits@D@std@@V?$allocator@D@2@@std@@@2@@std@@@Z
	?parseTankMixing@NodeParser@@QEAAXPEAVNode@@AEAV?$vector@V?$basic_string@DU?$char_traits@D@std@@V?$allocator@D@2@@std@@V?$allocator@V?$basic_string@DU?$char_traits@D@std@@V?$allocator@D@2@@std@@@2@@std@@@Z
	?parseTankReact@NodeParser@@QEAAXPEAVNode@@AEAV?$vector@V?$basic_string@DU?$char_traits@D@std@@V?$allocator@D@2@@std@@V?$allocator@V?$basic_string@DU?$char_traits@D@std@@V?$allocator@D@2@@std@@@2@@std@@@Z
	?parseTimeOfDaySetting@ControlParser@@AEAAXXZ
	?parseTimeOption@OptionParser@@QEAAXPEAVNetwork@@AEAV?$vector@V?$basic_string@DU?$char_traits@D@std@@V?$allocator@D@2@@std@@V?$allocator@V?$basic_string@DU?$char_traits@D@std@@V?$allocator@D@2@@std@@@2@@std@@@Z
	?parseTimeSetting@ControlParser@@AEAAXXZ
	?parseVariablePattern@PatternParser@@IEAAXPEAVPattern@@AEAV?$vector@V?$basic_string@DU?$char_traits@D@std@@V?$allocator@D@2@@std@@V?$allocator@V?$basic_string@DU?$char_traits@D@std@@V?$allocator@D@2@@std@@@2@@std@@@Z
	?pattern@Network@@QEAAPEAVPattern@@AEBV?$basic_string@DU?$char_traits@D@std@@V?$allocator@D@2@@std@@@Z
	?pattern@Network@@QEAAPEAVPattern@@H@Z
	?pbackfail@?$basic_filebuf@DU?$char_traits@D@std@@@std@@MEAAHH@Z
	?pbackfail@?$basic_stringbuf@DU?$char_traits@D@std@@V?$allocator@D@2@@std@@MEAAHH@Z
	?pipeReact@AgeModel@@UEAANPEAVPipe@@NN@Z
	?pipeReact@ChemModel@@UEAANPEAVPipe@@NN@Z
	?pipeReact@QualModel@@UEAANPEAVPipe@@NN@Z
	?powerFuncHeadLoss@PumpCurve@@AEAAXNNAEAN0@Z
	?push_back@?$list@VDemand@@V?$allocator@VDemand@@@std@@@std@@QEAAXAEBVDemand@@@Z
	?push_back@?$vector@PEAVControl@@V?$allocator@PEAVControl@@@std@@@std@@QEAAXAEBQEAVControl@@@Z
	?push_back@?$vector@PEAVCurve@@V?$allocator@PEAVCurve@@@std@@@std@@QEAAXAEBQEAVCurve@@@Z
	?push_back@?$vector@PEAVPattern@@V?$allocator@PEAVPattern@@@std@@@std@@QEAAXAEBQEAVPattern@@@Z
	?push_back@?$vector@V?$basic_string@DU?$char_traits@D@std@@V?$allocator@D@2@@std@@V?$allocator@V?$basic_string@DU?$char_traits@D@std@@V?$allocator@D@2@@std@@@2@@std@@QEAAXAEBV?$basic_string@DU?$char_traits@D@std@@V?$allocator@D@2@@2@@Z
	?qualOptionsToStr@Options@@QEAA?AV?$basic_string@DU?$char_traits@D@std@@V?$allocator@D@2@@std@@XZ
	?react@LTDSolver@@AEAAXXZ
	?react@TankMixModel@@QEAANPEAVTank@@PEAVQualModel@@N@Z
	?reactOptionsToStr@Options@@QEAA?AV?$basic_string@DU?$char_traits@D@std@@V?$allocator@D@2@@std@@XZ
	?readEnergyDemandCharge@OutputFile@@QEAAXPEAM@Z
	?readEnergyResults@OutputFile@@QEAAXPEAH@Z
	?readFile@InputReader@@QEAAXPEBDPEAVNetwork@@@Z
	?readLinkResults@OutputFile@@QEAAXXZ
	?readNodeResults@OutputFile@@QEAAXXZ
	?release@LTDSolver@@AEAAXH@Z
	?removeQuotes@Utilities@@SAXAEAV?$basic_string@DU?$char_traits@D@std@@V?$allocator@D@2@@std@@@Z
	?reorder@@YAHHPEAH000AEAH@Z
	?reportDiagnostics@HydEngine@@AEAAXHH@Z
	?reportOptionsToStr@Options@@QEAA?AV?$basic_string@DU?$char_traits@D@std@@V?$allocator@D@2@@std@@XZ
	?reportTrial@GGASolver@@AEAAXHN@Z
	?reserve@?$basic_string@DU?$char_traits@D@std@@V?$allocator@D@2@@std@@QEAAX_K@Z
	?reset@MemPool@@QEAAXXZ
	?reset@SparspakSolver@@UEAAXXZ
	?resize@?$vector@DV?$allocator@D@std@@@std@@QEAAX_KAEBD@Z
	?resize@?$vector@HV?$allocator@H@std@@@std@@QEAAX_KAEBH@Z
	?resize@?$vector@NV?$allocator@N@std@@@std@@QEAAX_KAEBN@Z
	?resize@?$vector@PEAUSegment@@V?$allocator@PEAUSegment@@@std@@@std@@QEAAX_KAEBQEAUSegment@@@Z
	?resolvePressureDeficiency@HydEngine@@AEAAHAEAH@Z
	?reverseFlow@LTDSolver@@UEAAXH@Z
	?reverseFlow@QualSolver@@UEAAXH@Z
	?rfind@?$basic_string@DU?$char_traits@D@std@@V?$allocator@D@2@@std@@QEBA_KD_K@Z
	?right@std@@YAAEAVios_base@1@AEAV21@@Z
	?runSolver@Project@Epanet@@QEAAHPEAH@Z
	?save@Project@Epanet@@QEAAHPEBD@Z
	?saveOutput@Project@Epanet@@QEAAHXZ
	?scientific@std@@YAAEAVios_base@1@AEAV21@@Z
	?seekEnergyOffset@OutputFile@@QEAAXXZ
	?seekNetworkOffset@OutputFile@@QEAAXXZ
	?seekoff@?$basic_filebuf@DU?$char_traits@D@std@@@std@@MEAA?AV?$fpos@U_Mbstatet@@@2@_JHH@Z
	?seekoff@?$basic_stringbuf@DU?$char_traits@D@std@@V?$allocator@D@2@@std@@MEAA?AV?$fpos@U_Mbstatet@@@2@_JHH@Z
	?seekpos@?$basic_filebuf@DU?$char_traits@D@std@@@std@@MEAA?AV?$fpos@U_Mbstatet@@@2@V32@H@Z
	?seekpos@?$basic_stringbuf@DU?$char_traits@D@std@@V?$allocator@D@2@@std@@MEAA?AV?$fpos@U_Mbstatet@@@2@V32@H@Z
	?setCoeffs@LogisticDemandModel@@AEAAXNN@Z
	?setConvergenceLimits@GGASolver@@AEAAXXZ
	?setCurve@PumpCurve@@QEAAXPEAVCurve@@@Z
	?setDefaults@Options@@QEAAXXZ
	?setDefaults@ReportFields@@QEAAXXZ
	?setDiag@SparspakSolver@@UEAAXHN@Z
	?setField@ReportFields@@QEAAXHHHHNN@Z
	?setFixedGrade@Node@@UEAAXXZ
	?setFixedGrade@Reservoir@@UEAAXXZ
	?setFixedGrade@Tank@@UEAAXXZ
	?setFixedGradeNodes@GGASolver@@AEAAXXZ
	?setFlowDirections@QualEngine@@AEAAXXZ
	?setFlowFactor@Units@@AEAAHH@Z
	?setInitFlow@Link@@UEAAXXZ
	?setInitFlow@Pipe@@UEAAXXZ
	?setInitFlow@Pump@@UEAAXXZ
	?setInitFlow@Valve@@UEAAXXZ
	?setInitSetting@Link@@UEAAXN@Z
	?setInitSetting@Pipe@@UEAAXN@Z
	?setInitSetting@Pump@@UEAAXN@Z
	?setInitSetting@Valve@@UEAAXN@Z
	?setInitStatus@Link@@UEAAXH@Z
	?setInitStatus@Pipe@@UEAAXH@Z
	?setInitStatus@Pump@@UEAAXH@Z
	?setInitStatus@Valve@@UEAAXH@Z
	?setLinkCoeffs@GGASolver@@AEAAXXZ
	?setMatrixCoeffs@GGASolver@@AEAAXXZ
	?setNodeCoeffs@GGASolver@@AEAAXXZ
	?setOption@OptionParser@@AEAAXAEBV?$basic_string@DU?$char_traits@D@std@@V?$allocator@D@2@@std@@0PEAVNetwork@@@Z
	?setOption@Options@@QEAAHW4IndexOption@1@AEBV?$basic_string@DU?$char_traits@D@std@@V?$allocator@D@2@@std@@PEAVNetwork@@@Z
	?setOption@Options@@QEAAHW4StringOption@1@AEBV?$basic_string@DU?$char_traits@D@std@@V?$allocator@D@2@@std@@@Z
	?setOption@Options@@QEAAXW4IndexOption@1@H@Z
	?setOption@Options@@QEAAXW4TimeOption@1@H@Z
	?setOption@Options@@QEAAXW4ValueOption@1@N@Z
	?setOtherFactors@Units@@AEAAXH@Z
	?setPressureFactor@Units@@AEAAXHAEAVOptions@@@Z
	?setProperties@Control@@QEAAXHPEAVLink@@HNPEAVNode@@NHH@Z
	?setReactive@ChemModel@@AEAA_NPEAVNetwork@@@Z
	?setReportFieldOption@Options@@QEAAXHHHHNN@Z
	?setResistance@CM_HeadLossModel@@UEAAXPEAVPipe@@@Z
	?setResistance@DW_HeadLossModel@@UEAAXPEAVPipe@@@Z
	?setResistance@HW_HeadLossModel@@UEAAXPEAVPipe@@@Z
	?setResistance@Link@@UEAAXPEAVNetwork@@@Z
	?setResistance@Pipe@@UEAAXPEAVNetwork@@@Z
	?setRhs@SparspakSolver@@UEAAXHN@Z
	?setSourceQuality@QualEngine@@AEAAXXZ
	?setStrength@QualSource@@QEAAXPEAVNode@@@Z
	?setUnits@Units@@QEAAXAEAVOptions@@@Z
	?setValveCoeffs@GGASolver@@AEAAXXZ
	?setbuf@?$basic_filebuf@DU?$char_traits@D@std@@@std@@MEAAPEAV?$basic_streambuf@DU?$char_traits@D@std@@@2@PEAD_J@Z
	?setupConstHpCurve@PumpCurve@@AEAAXXZ
	?setupCurve@PumpCurve@@QEAAHPEAVNetwork@@@Z
	?setupCustomCurve@PumpCurve@@AEAAHXZ
	?setupPowerFuncCurve@PumpCurve@@AEAAHXZ
	?showpoint@std@@YAAEAVios_base@1@AEAV21@@Z
	?skipLinkResults@OutputFile@@QEAAXXZ
	?skipNodeResults@OutputFile@@QEAAXXZ
	?solve@GGASolver@@UEAAHNAEAH@Z
	?solve@HydEngine@@QEAAHPEAH@Z
	?solve@LTDSolver@@UEAAHPEAHH@Z
	?solve@QualEngine@@QEAAXH@Z
	?solve@SparspakSolver@@UEAAHHQEAN@Z
	?sortAdjncy@@YAXHHPEAH0000@Z
	?sortLinks@QualEngine@@AEAAXXZ
	?sp_genmmd@@YAHPEAH00000000000@Z
	?sp_numfct@@YAXHPEAHPEAN001001AEAH@Z
	?sp_smbfct@@YAXHPEAH0000AEAH0010001@Z
	?sp_solve@@YAXHPEAHPEAN0011@Z
	?split@Utilities@@SA?AV?$vector@V?$basic_string@DU?$char_traits@D@std@@V?$allocator@D@2@@std@@V?$allocator@V?$basic_string@DU?$char_traits@D@std@@V?$allocator@D@2@@std@@@2@@std@@AEBV?$basic_string@DU?$char_traits@D@std@@V?$allocator@D@2@@3@@Z
	?split@Utilities@@SAXAEAV?$vector@V?$basic_string@DU?$char_traits@D@std@@V?$allocator@D@2@@std@@V?$allocator@V?$basic_string@DU?$char_traits@D@std@@V?$allocator@D@2@@std@@@2@@std@@AEBV?$basic_string@DU?$char_traits@D@std@@V?$allocator@D@2@@3@@Z
	?storedMass@TankMixModel@@QEAANXZ
	?str@?$basic_ostringstream@DU?$char_traits@D@std@@V?$allocator@D@2@@std@@QEBA?AV?$basic_string@DU?$char_traits@D@std@@V?$allocator@D@2@@2@XZ
	?str@?$basic_stringbuf@DU?$char_traits@D@std@@V?$allocator@D@2@@std@@QEBA?AV?$basic_string@DU?$char_traits@D@std@@V?$allocator@D@2@@2@XZ
	?str@?$basic_stringstream@DU?$char_traits@D@std@@V?$allocator@D@2@@std@@QEBA?AV?$basic_string@DU?$char_traits@D@std@@V?$allocator@D@2@@2@XZ
	?stringOption@Options@@QEAA?AV?$basic_string@DU?$char_traits@D@std@@V?$allocator@D@2@@std@@W4StringOption@1@@Z
	?substr@?$basic_string@DU?$char_traits@D@std@@V?$allocator@D@2@@std@@QEBA?AV12@_K0@Z
	?sync@?$basic_filebuf@DU?$char_traits@D@std@@@std@@MEAAHXZ
	?tankReact@AgeModel@@UEAANPEAVTank@@NN@Z
	?tankReact@ChemModel@@UEAANPEAVTank@@NN@Z
	?tankReact@QualModel@@UEAANPEAVTank@@NN@Z
	?timeOptionsToStr@Options@@QEAA?AV?$basic_string@DU?$char_traits@D@std@@V?$allocator@D@2@@std@@XZ
	?timeToActivate@Control@@QEAAHPEAVNetwork@@HH@Z
	?timeToActivateControl@HydEngine@@AEAAHH@Z
	?timeToCloseTank@HydEngine@@AEAAHH@Z
	?timeToPatternChange@HydEngine@@AEAAHH@Z
	?timeToVolume@Tank@@QEAAHN@Z
	?toStr@Control@@QEAA?AV?$basic_string@DU?$char_traits@D@std@@V?$allocator@D@2@@std@@PEAVNetwork@@@Z
	?transport@LTDSolver@@AEAAXH@Z
	?transpose@@YAXHPEAH0000@Z
	?trimLine@InputReader@@IEAAXAEAV?$basic_string@DU?$char_traits@D@std@@V?$allocator@D@2@@std@@@Z
	?type@Junction@@UEAAHXZ
	?type@Pipe@@UEAAHXZ
	?type@Pump@@UEAAHXZ
	?type@Reservoir@@UEAAHXZ
	?type@Tank@@UEAAHXZ
	?type@Valve@@UEAAHXZ
	?typeStr@Pipe@@UEAA?AV?$basic_string@DU?$char_traits@D@std@@V?$allocator@D@2@@std@@XZ
	?typeStr@Pump@@UEAA?AV?$basic_string@DU?$char_traits@D@std@@V?$allocator@D@2@@std@@XZ
	?typeStr@Valve@@UEAA?AV?$basic_string@DU?$char_traits@D@std@@V?$allocator@D@2@@std@@XZ
	?uflow@?$basic_filebuf@DU?$char_traits@D@std@@@std@@MEAAHXZ
	?underflow@?$basic_filebuf@DU?$char_traits@D@std@@@std@@MEAAHXZ
	?underflow@?$basic_stringbuf@DU?$char_traits@D@std@@V?$allocator@D@2@@std@@MEAAHXZ
	?updateArea@Tank@@QEAAXXZ
	?updateCurrentConditions@HydEngine@@AEAAXXZ
	?updateEnergyUsage@HydEngine@@AEAAXXZ
	?updateEnergyUsage@Link@@UEAANPEAVNetwork@@H@Z
	?updateEnergyUsage@Pump@@UEAANPEAVNetwork@@H@Z
	?updateEnergyUsage@PumpEnergy@@QEAANPEAVPump@@PEAVNetwork@@H@Z
	?updateLinkQuality@LTDSolver@@AEAAXXZ
	?updateMassBalance@LTDSolver@@AEAAXXZ
	?updateNodeQuality@LTDSolver@@AEAAXXZ
	?updatePatterns@HydEngine@@AEAAXXZ
	?updatePrvStatus@Valve@@IEAAHNNN@Z
	?updatePsvStatus@Valve@@IEAAHNNN@Z
	?updateSolution@GGASolver@@AEAAXN@Z
	?updateStatus@Link@@UEAAXNNN@Z
	?updateStatus@Valve@@UEAAXNNN@Z
	?updateTanks@HydEngine@@AEAAXXZ
	?updateVolume@Tank@@QEAAXH@Z
	?upperCase@Utilities@@SA?AV?$basic_string@DU?$char_traits@D@std@@V?$allocator@D@2@@std@@AEBV23@@Z
	?validate@Link@@UEAAXPEAVNetwork@@@Z
	?validate@Node@@UEAAXPEAVNetwork@@@Z
	?validate@Pump@@UEAAXPEAVNetwork@@@Z
	?validate@Tank@@UEAAXPEAVNetwork@@@Z
	?validateNetwork@Diagnostics@@QEAAXPEAVNetwork@@@Z
	?validateStatus@Link@@UEAAXPEAVNetwork@@N@Z
	?validateStatus@Pipe@@UEAAXPEAVNetwork@@N@Z
	?validateStatus@Pump@@UEAAXPEAVNetwork@@N@Z
	?validateStatus@Valve@@UEAAXPEAVNetwork@@N@Z
	?writeAuxData@ProjectWriter@@AEAAXXZ
	?writeBalance@QualBalance@@QEAAXAEAV?$basic_ostream@DU?$char_traits@D@std@@@std@@@Z
	?writeControls@ProjectWriter@@AEAAXXZ
	?writeCoords@ProjectWriter@@AEAAXXZ
	?writeCurves@ProjectWriter@@AEAAXXZ
	?writeDemands@ProjectWriter@@AEAAXXZ
	?writeEmitters@ProjectWriter@@AEAAXXZ
	?writeEnergy@ProjectWriter@@AEAAXXZ
	?writeEnergyHeader@ReportWriter@@AEAAXXZ
	?writeEnergyResults@OutputFile@@QEAAHNN@Z
	?writeEnergyResults@ReportWriter@@AEAAXPEAVOutputFile@@@Z
	?writeFile@ProjectWriter@@QEAAHPEBDPEAVNetwork@@@Z
	?writeHeading@ReportWriter@@QEAAXXZ
	?writeJunctions@ProjectWriter@@AEAAXXZ
	?writeLeakages@ProjectWriter@@AEAAXXZ
	?writeLinkHeader@ReportWriter@@AEAAXXZ
	?writeLinkResults@OutputFile@@AEAAXXZ
	?writeLinkResults@ReportWriter@@AEAAXPEAVLink@@PEAM@Z
	?writeMixing@ProjectWriter@@AEAAXXZ
	?writeMsg@Project@Epanet@@QEAAXAEBV?$basic_string@DU?$char_traits@D@std@@V?$allocator@D@2@@std@@@Z
	?writeMsgLog@Project@Epanet@@QEAAXAEAV?$basic_ostream@DU?$char_traits@D@std@@@std@@@Z
	?writeMsgLog@Project@Epanet@@QEAAXXZ
	?writeNetworkResults@OutputFile@@QEAAHXZ
	?writeNodeHeader@ReportWriter@@AEAAXXZ
	?writeNodeResults@OutputFile@@AEAAXXZ
	?writeNodeResults@ReportWriter@@AEAAXPEAVNode@@PEAM@Z
	?writeNumber@ReportWriter@@AEAAXMHH@Z
	?writeOptions@ProjectWriter@@AEAAXXZ
	?writePatterns@ProjectWriter@@AEAAXXZ
	?writePipes@ProjectWriter@@AEAAXXZ
	?writePumpResults@ReportWriter@@AEAAXPEAVLink@@PEAM@Z
	?writePumps@ProjectWriter@@AEAAXXZ
	?writeQuality@ProjectWriter@@AEAAXXZ
	?writeReactions@ProjectWriter@@AEAAXXZ
	?writeReport@Project@Epanet@@QEAAHXZ
	?writeReport@ProjectWriter@@AEAAXXZ
	?writeReport@ReportWriter@@QEAAHV?$basic_string@DU?$char_traits@D@std@@V?$allocator@D@2@@std@@PEAVOutputFile@@@Z
	?writeReservoirs@ProjectWriter@@AEAAXXZ
	?writeResults@Project@Epanet@@QEAAXH@Z
	?writeResults@ReportWriter@@QEAAXH@Z
	?writeSavedResults@ReportWriter@@AEAAXPEAVOutputFile@@@Z
	?writeSources@ProjectWriter@@AEAAXXZ
	?writeStatus@ProjectWriter@@AEAAXXZ
	?writeStatusChange@Link@@QEAA?AV?$basic_string@DU?$char_traits@D@std@@V?$allocator@D@2@@std@@H@Z
	?writeSummary@Project@Epanet@@QEAAXXZ
	?writeSummary@ReportWriter@@QEAAXV?$basic_string@DU?$char_traits@D@std@@V?$allocator@D@2@@std@@@Z
	?writeTags@ProjectWriter@@AEAAXXZ
	?writeTanks@ProjectWriter@@AEAAXXZ
	?writeTimes@ProjectWriter@@AEAAXXZ
	?writeTitle@Network@@QEAAXAEAV?$basic_ostream@DU?$char_traits@D@std@@@std@@@Z
	?writeTitle@ProjectWriter@@AEAAXXZ
	?writeValves@ProjectWriter@@AEAAXXZ
	EN_advanceSolver
	EN_clearProject
	EN_cloneProject
	EN_createProject
	EN_deleteProject
	EN_getCount
	EN_getLinkId
	EN_getLinkIndex
	EN_getLinkNodes
	EN_getLinkType
	EN_getLinkValue
	EN_getNodeId
	EN_getNodeIndex
	EN_getNodeType
	EN_getNodeValue
	EN_getVersion
	EN_initSolver
	EN_loadProject
	EN_openOutput
	EN_openReport
	EN_runEpanet
	EN_runProject
	EN_runSolver
	EN_saveOutput
	EN_saveProject
	EN_writeMsgLog
	EN_writeReport
	EN_writeResults
	EN_writeSummary
	__local_stdio_scanf_options
	sscanf
