EXPORTS 
	??_R0?AV?$_Iosb@H@std@@@8 	 DATA
	??_R0?AV?$basic_filebuf@DU?$char_traits@D@std@@@std@@@8 	 DATA
	??_R0?AV?$basic_fstream@DU?$char_traits@D@std@@@std@@@8 	 DATA
	??_R0?AV?$basic_ifstream@DU?$char_traits@D@std@@@std@@@8 	 DATA
	??_R0?AV?$basic_ios@DU?$char_traits@D@std@@@std@@@8 	 DATA
	??_R0?AV?$basic_iostream@DU?$char_traits@D@std@@@std@@@8 	 DATA
	??_R0?AV?$basic_istream@DU?$char_traits@D@std@@@std@@@8 	 DATA
	??_R0?AV?$basic_istringstream@DU?$char_traits@D@std@@V?$allocator@D@2@@std@@@8 	 DATA
	??_R0?AV?$basic_ofstream@DU?$char_traits@D@std@@@std@@@8 	 DATA
	??_R0?AV?$basic_ostream@DU?$char_traits@D@std@@@std@@@8 	 DATA
	??_R0?AV?$basic_ostringstream@DU?$char_traits@D@std@@V?$allocator@D@2@@std@@@8 	 DATA
	??_R0?AV?$basic_streambuf@DU?$char_traits@D@std@@@std@@@8 	 DATA
	??_R0?AV?$basic_stringbuf@DU?$char_traits@D@std@@V?$allocator@D@2@@std@@@8 	 DATA
	??_R0?AV?$basic_stringstream@DU?$char_traits@D@std@@V?$allocator@D@2@@std@@@8 	 DATA
	??_R0?AVAgeModel@@@8 	 DATA
	??_R0?AVCM_HeadLossModel@@@8 	 DATA
	??_R0?AVChemModel@@@8 	 DATA
	??_R0?AVConstrainedDemandModel@@@8 	 DATA
	??_R0?AVControl@@@8 	 DATA
	??_R0?AVCurve@@@8 	 DATA
	??_R0?AVDW_HeadLossModel@@@8 	 DATA
	??_R0?AVDemandModel@@@8 	 DATA
	??_R0?AVENerror@@@8 	 DATA
	??_R0?AVElement@@@8 	 DATA
	??_R0?AVFavadLeakageModel@@@8 	 DATA
	??_R0?AVFileError@@@8 	 DATA
	??_R0?AVFixedDemandModel@@@8 	 DATA
	??_R0?AVFixedPattern@@@8 	 DATA
	??_R0?AVGGASolver@@@8 	 DATA
	??_R0?AVHW_HeadLossModel@@@8 	 DATA
	??_R0?AVHeadLossModel@@@8 	 DATA
	??_R0?AVHydSolver@@@8 	 DATA
	??_R0?AVInputError@@@8 	 DATA
	??_R0?AVInputParser@@@8 	 DATA
	??_R0?AVJunction@@@8 	 DATA
	??_R0?AVLTDSolver@@@8 	 DATA
	??_R0?AVLeakageModel@@@8 	 DATA
	??_R0?AVLink@@@8 	 DATA
	??_R0?AVLogisticDemandModel@@@8 	 DATA
	??_R0?AVMatrixSolver@@@8 	 DATA
	??_R0?AVNetworkError@@@8 	 DATA
	??_R0?AVNode@@@8 	 DATA
	??_R0?AVObjectParser@@@8 	 DATA
	??_R0?AVPattern@@@8 	 DATA
	??_R0?AVPipe@@@8 	 DATA
	??_R0?AVPowerDemandModel@@@8 	 DATA
	??_R0?AVPowerLeakageModel@@@8 	 DATA
	??_R0?AVPropertyParser@@@8 	 DATA
	??_R0?AVPump@@@8 	 DATA
	??_R0?AVQualModel@@@8 	 DATA
	??_R0?AVQualSolver@@@8 	 DATA
	??_R0?AVReservoir@@@8 	 DATA
	??_R0?AVSparspakSolver@@@8 	 DATA
	??_R0?AVSystemError@@@8 	 DATA
	??_R0?AVTank@@@8 	 DATA
	??_R0?AVTraceModel@@@8 	 DATA
	??_R0?AVValve@@@8 	 DATA
	??_R0?AVVariablePattern@@@8 	 DATA
	??_R0?AVbad_cast@std@@@8 	 DATA
	??_R0?AVexception@std@@@8 	 DATA
	??_R0?AVios_base@std@@@8 	 DATA
	?CurveTypeWords@Curve@@2PAPEBDA 	 DATA
	?LinkFieldNames@ReportFields@@2PAPEBDA 	 DATA
	?MixingModelWords@TankMixModel@@2PAPEBDA 	 DATA
	?NodeFieldNames@ReportFields@@2PAPEBDA 	 DATA
	?SourceTypeWords@QualSource@@2PAPEBDA 	 DATA
	?ValveTypeWords@Valve@@2PAPEBDA 	 DATA
	?_OptionsStorage@?1??__local_stdio_scanf_options@@9@4_KA 	 DATA
	?_Psave@?$_Facetptr@V?$codecvt@DDU_Mbstatet@@@std@@@std@@2PEBVfacet@locale@2@EB 	 DATA
	?_Psave@?$_Facetptr@V?$ctype@D@std@@@std@@2PEBVfacet@locale@2@EB 	 DATA
	?_Stinit@?1??_Init@?$basic_filebuf@DU?$char_traits@D@std@@@std@@IEAAXPEAU_iobuf@@W4_Initfl@23@@Z@4U_Mbstatet@@A 	 DATA
	?sections@@3PAPEBDA 	 DATA
	??$?0$$V@?$_Compressed_pair@U?$_Wrap_alloc@V?$allocator@D@std@@@std@@V?$_String_val@U?$_Simple_types@D@std@@@2@$00@std@@QEAA@U_Zero_then_variadic_args_t@1@@Z
	??$?0$$V@?$_Compressed_pair@U?$_Wrap_alloc@V?$allocator@D@std@@@std@@V?$_Vector_val@U?$_Simple_types@D@std@@@2@$00@std@@QEAA@U_Zero_then_variadic_args_t@1@@Z
	??$?0$$V@?$_Compressed_pair@U?$_Wrap_alloc@V?$allocator@H@std@@@std@@V?$_Vector_val@U?$_Simple_types@H@std@@@2@$00@std@@QEAA@U_Zero_then_variadic_args_t@1@@Z
	??$?0$$V@?$_Compressed_pair@U?$_Wrap_alloc@V?$allocator@N@std@@@std@@V?$_Vector_val@U?$_Simple_types@N@std@@@2@$00@std@@QEAA@U_Zero_then_variadic_args_t@1@@Z
	??$?0$$V@?$_Compressed_pair@U?$_Wrap_alloc@V?$allocator@PEAUSegment@@@std@@@std@@V?$_Vector_val@U?$_Simple_types@PEAUSegment@@@std@@@2@$00@std@@QEAA@U_Zero_then_variadic_args_t@1@@Z
	??$?0$$V@?$_Compressed_pair@U?$_Wrap_alloc@V?$allocator@PEAVControl@@@std@@@std@@V?$_Vector_val@U?$_Simple_types@PEAVControl@@@std@@@2@$00@std@@QEAA@U_Zero_then_variadic_args_t@1@@Z
	??$?0$$V@?$_Compressed_pair@U?$_Wrap_alloc@V?$allocator@PEAVCurve@@@std@@@std@@V?$_Vector_val@U?$_Simple_types@PEAVCurve@@@std@@@2@$00@std@@QEAA@U_Zero_then_variadic_args_t@1@@Z
	??$?0$$V@?$_Compressed_pair@U?$_Wrap_alloc@V?$allocator@PEAVLink@@@std@@@std@@V?$_Vector_val@U?$_Simple_types@PEAVLink@@@std@@@2@$00@std@@QEAA@U_Zero_then_variadic_args_t@1@@Z
	??$?0$$V@?$_Compressed_pair@U?$_Wrap_alloc@V?$allocator@PEAVNode@@@std@@@std@@V?$_Vector_val@U?$_Simple_types@PEAVNode@@@std@@@2@$00@std@@QEAA@U_Zero_then_variadic_args_t@1@@Z
	??$?0$$V@?$_Compressed_pair@U?$_Wrap_alloc@V?$allocator@PEAVPattern@@@std@@@std@@V?$_Vector_val@U?$_Simple_types@PEAVPattern@@@std@@@2@$00@std@@QEAA@U_Zero_then_variadic_args_t@1@@Z
	??$?0$$V@?$_Compressed_pair@U?$_Wrap_alloc@V?$allocator@U?$_List_node@VDemand@@PEAX@std@@@std@@@std@@V?$_List_val@U?$_List_simple_types@VDemand@@@std@@@2@$00@std@@QEAA@U_Zero_then_variadic_args_t@1@@Z
	??$?0$$V@?$_Compressed_pair@U?$_Wrap_alloc@V?$allocator@V?$basic_string@DU?$char_traits@D@std@@V?$allocator@D@2@@std@@@std@@@std@@V?$_Vector_val@U?$_Simple_types@V?$basic_string@DU?$char_traits@D@std@@V?$allocator@D@2@@std@@@std@@@2@$00@std@@QEAA@U_Zero_then_variadic_args_t@1@@Z
	??$?0AEAU?$_Wrap_alloc@U?$_Wrap_alloc@V?$allocator@V?$_List_unchecked_iterator@V?$_List_val@U?$_List_simple_types@U?$pair@$$CBV?$basic_string@DU?$char_traits@D@std@@V?$allocator@D@2@@std@@PEAVElement@@@std@@@std@@@std@@@std@@@std@@@std@@@std@@@?$_Wrap_alloc@U?$_Wrap_alloc@V?$allocator@U_Container_proxy@std@@@std@@@std@@@std@@QEAA@AEAU?$_Wrap_alloc@U?$_Wrap_alloc@V?$allocator@V?$_List_unchecked_iterator@V?$_List_val@U?$_List_simple_types@U?$pair@$$CBV?$basic_string@DU?$char_traits@D@std@@V?$allocator@D@2@@std@@PEAVElement@@@std@@@std@@@std@@@std@@@std@@@std@@@1@@Z
	??$?0AEAU?$_Wrap_alloc@U?$_Wrap_alloc@V?$allocator@V?$_List_unchecked_iterator@V?$_List_val@U?$_List_simple_types@U?$pair@$$CBV?$basic_string@DU?$char_traits@D@std@@V?$allocator@D@2@@std@@PEAVElement@@@std@@@std@@@std@@@std@@@std@@@std@@@std@@@?$_Wrap_alloc@V?$allocator@U_Container_proxy@std@@@std@@@std@@QEAA@AEAU?$_Wrap_alloc@U?$_Wrap_alloc@V?$allocator@V?$_List_unchecked_iterator@V?$_List_val@U?$_List_simple_types@U?$pair@$$CBV?$basic_string@DU?$char_traits@D@std@@V?$allocator@D@2@@std@@PEAVElement@@@std@@@std@@@std@@@std@@@std@@@std@@@1@@Z
	??$?0AEAU?$_Wrap_alloc@V?$allocator@D@std@@@std@@@?$_Wrap_alloc@V?$allocator@U_Container_proxy@std@@@std@@@std@@QEAA@AEAU?$_Wrap_alloc@V?$allocator@D@std@@@1@@Z
	??$?0AEAU?$_Wrap_alloc@V?$allocator@H@std@@@std@@@?$_Wrap_alloc@V?$allocator@U_Container_proxy@std@@@std@@@std@@QEAA@AEAU?$_Wrap_alloc@V?$allocator@H@std@@@1@@Z
	??$?0AEAU?$_Wrap_alloc@V?$allocator@N@std@@@std@@@?$_Wrap_alloc@V?$allocator@U_Container_proxy@std@@@std@@@std@@QEAA@AEAU?$_Wrap_alloc@V?$allocator@N@std@@@1@@Z
	??$?0AEAU?$_Wrap_alloc@V?$allocator@PEAUSegment@@@std@@@std@@@?$_Wrap_alloc@V?$allocator@U_Container_proxy@std@@@std@@@std@@QEAA@AEAU?$_Wrap_alloc@V?$allocator@PEAUSegment@@@std@@@1@@Z
	??$?0AEAU?$_Wrap_alloc@V?$allocator@PEAVControl@@@std@@@std@@@?$_Wrap_alloc@V?$allocator@U_Container_proxy@std@@@std@@@std@@QEAA@AEAU?$_Wrap_alloc@V?$allocator@PEAVControl@@@std@@@1@@Z
	??$?0AEAU?$_Wrap_alloc@V?$allocator@PEAVCurve@@@std@@@std@@@?$_Wrap_alloc@V?$allocator@U_Container_proxy@std@@@std@@@std@@QEAA@AEAU?$_Wrap_alloc@V?$allocator@PEAVCurve@@@std@@@1@@Z
	??$?0AEAU?$_Wrap_alloc@V?$allocator@PEAVLink@@@std@@@std@@@?$_Wrap_alloc@V?$allocator@U_Container_proxy@std@@@std@@@std@@QEAA@AEAU?$_Wrap_alloc@V?$allocator@PEAVLink@@@std@@@1@@Z
	??$?0AEAU?$_Wrap_alloc@V?$allocator@PEAVNode@@@std@@@std@@@?$_Wrap_alloc@V?$allocator@U_Container_proxy@std@@@std@@@std@@QEAA@AEAU?$_Wrap_alloc@V?$allocator@PEAVNode@@@std@@@1@@Z
	??$?0AEAU?$_Wrap_alloc@V?$allocator@PEAVPattern@@@std@@@std@@@?$_Wrap_alloc@V?$allocator@U_Container_proxy@std@@@std@@@std@@QEAA@AEAU?$_Wrap_alloc@V?$allocator@PEAVPattern@@@std@@@1@@Z
	??$?0AEAU?$_Wrap_alloc@V?$allocator@U?$_List_node@U?$pair@$$CBV?$basic_string@DU?$char_traits@D@std@@V?$allocator@D@2@@std@@PEAVElement@@@std@@PEAX@std@@@std@@@std@@@?$_Wrap_alloc@V?$allocator@U_Container_proxy@std@@@std@@@std@@QEAA@AEAU?$_Wrap_alloc@V?$allocator@U?$_List_node@U?$pair@$$CBV?$basic_string@DU?$char_traits@D@std@@V?$allocator@D@2@@std@@PEAVElement@@@std@@PEAX@std@@@std@@@1@@Z
	??$?0AEAU?$_Wrap_alloc@V?$allocator@U?$_List_node@VDemand@@PEAX@std@@@std@@@std@@@?$_Wrap_alloc@V?$allocator@U_Container_proxy@std@@@std@@@std@@QEAA@AEAU?$_Wrap_alloc@V?$allocator@U?$_List_node@VDemand@@PEAX@std@@@std@@@1@@Z
	??$?0AEAU?$_Wrap_alloc@V?$allocator@V?$basic_string@DU?$char_traits@D@std@@V?$allocator@D@2@@std@@@std@@@std@@@?$_Wrap_alloc@V?$allocator@U_Container_proxy@std@@@std@@@std@@QEAA@AEAU?$_Wrap_alloc@V?$allocator@V?$basic_string@DU?$char_traits@D@std@@V?$allocator@D@2@@std@@@std@@@1@@Z
	??$?0AEAU?$equal_to@V?$basic_string@DU?$char_traits@D@std@@V?$allocator@D@2@@std@@@std@@M@?$_Compressed_pair@U?$equal_to@V?$basic_string@DU?$char_traits@D@std@@V?$allocator@D@2@@std@@@std@@M$00@std@@QEAA@U_One_then_variadic_args_t@1@AEAU?$equal_to@V?$basic_string@DU?$char_traits@D@std@@V?$allocator@D@2@@std@@@1@$$QEAM@Z
	??$?0AEAU?$hash@V?$basic_string@DU?$char_traits@D@std@@V?$allocator@D@2@@std@@@std@@U_One_then_variadic_args_t@1@AEAU?$equal_to@V?$basic_string@DU?$char_traits@D@std@@V?$allocator@D@2@@std@@@1@M@?$_Compressed_pair@U?$hash@V?$basic_string@DU?$char_traits@D@std@@V?$allocator@D@2@@std@@@std@@V?$_Compressed_pair@U?$equal_to@V?$basic_string@DU?$char_traits@D@std@@V?$allocator@D@2@@std@@@std@@M$00@2@$00@std@@QEAA@U_One_then_variadic_args_t@1@AEAU?$hash@V?$basic_string@DU?$char_traits@D@std@@V?$allocator@D@2@@std@@@1@$$QEAU21@AEAU?$equal_to@V?$basic_string@DU?$char_traits@D@std@@V?$allocator@D@2@@std@@@1@$$QEAM@Z
	??$?0AEAV?$_List_iterator@V?$_List_val@U?$_List_simple_types@U?$pair@$$CBV?$basic_string@DU?$char_traits@D@std@@V?$allocator@D@2@@std@@PEAVElement@@@std@@@std@@@std@@@std@@_NX$0A@@?$pair@V?$_List_iterator@V?$_List_val@U?$_List_simple_types@U?$pair@$$CBV?$basic_string@DU?$char_traits@D@std@@V?$allocator@D@2@@std@@PEAVElement@@@std@@@std@@@std@@@std@@_N@std@@QEAA@AEAV?$_List_iterator@V?$_List_val@U?$_List_simple_types@U?$pair@$$CBV?$basic_string@DU?$char_traits@D@std@@V?$allocator@D@2@@std@@PEAVElement@@@std@@@std@@@std@@@1@$$QEA_N@Z
	??$?0AEBU?$_Wrap_alloc@V?$allocator@V?$_List_unchecked_iterator@V?$_List_val@U?$_List_simple_types@U?$pair@$$CBV?$basic_string@DU?$char_traits@D@std@@V?$allocator@D@2@@std@@PEAVElement@@@std@@@std@@@std@@@std@@@std@@@std@@$$V@?$_Compressed_pair@U?$_Wrap_alloc@U?$_Wrap_alloc@V?$allocator@V?$_List_unchecked_iterator@V?$_List_val@U?$_List_simple_types@U?$pair@$$CBV?$basic_string@DU?$char_traits@D@std@@V?$allocator@D@2@@std@@PEAVElement@@@std@@@std@@@std@@@std@@@std@@@std@@@std@@V?$_Vector_val@U?$_Simple_types@V?$_List_unchecked_iterator@V?$_List_val@U?$_List_simple_types@U?$pair@$$CBV?$basic_string@DU?$char_traits@D@std@@V?$allocator@D@2@@std@@PEAVElement@@@std@@@std@@@std@@@std@@@std@@@2@$00@std@@QEAA@U_One_then_variadic_args_t@1@AEBU?$_Wrap_alloc@V?$allocator@V?$_List_unchecked_iterator@V?$_List_val@U?$_List_simple_types@U?$pair@$$CBV?$basic_string@DU?$char_traits@D@std@@V?$allocator@D@2@@std@@PEAVElement@@@std@@@std@@@std@@@std@@@std@@@1@@Z
	??$?0AEBU?$_Wrap_alloc@V?$allocator@V?$_List_unchecked_iterator@V?$_List_val@U?$_List_simple_types@U?$pair@$$CBV?$basic_string@DU?$char_traits@D@std@@V?$allocator@D@2@@std@@PEAVElement@@@std@@@std@@@std@@@std@@@std@@@std@@@?$_Wrap_alloc@U?$_Wrap_alloc@V?$allocator@V?$_List_unchecked_iterator@V?$_List_val@U?$_List_simple_types@U?$pair@$$CBV?$basic_string@DU?$char_traits@D@std@@V?$allocator@D@2@@std@@PEAVElement@@@std@@@std@@@std@@@std@@@std@@@std@@@std@@QEAA@AEBU?$_Wrap_alloc@V?$allocator@V?$_List_unchecked_iterator@V?$_List_val@U?$_List_simple_types@U?$pair@$$CBV?$basic_string@DU?$char_traits@D@std@@V?$allocator@D@2@@std@@PEAVElement@@@std@@@std@@@std@@@std@@@std@@@1@@Z
	??$?0AEBU?$_Wrap_alloc@V?$allocator@V?$_List_unchecked_iterator@V?$_List_val@U?$_List_simple_types@U?$pair@$$CBV?$basic_string@DU?$char_traits@D@std@@V?$allocator@D@2@@std@@PEAVElement@@@std@@@std@@@std@@@std@@@std@@@std@@X@?$_Vector_alloc@U?$_Vec_base_types@V?$_List_unchecked_iterator@V?$_List_val@U?$_List_simple_types@U?$pair@$$CBV?$basic_string@DU?$char_traits@D@std@@V?$allocator@D@2@@std@@PEAVElement@@@std@@@std@@@std@@@std@@U?$_Wrap_alloc@V?$allocator@V?$_List_unchecked_iterator@V?$_List_val@U?$_List_simple_types@U?$pair@$$CBV?$basic_string@DU?$char_traits@D@std@@V?$allocator@D@2@@std@@PEAVElement@@@std@@@std@@@std@@@std@@@std@@@2@@std@@@std@@QEAA@AEBU?$_Wrap_alloc@V?$allocator@V?$_List_unchecked_iterator@V?$_List_val@U?$_List_simple_types@U?$pair@$$CBV?$basic_string@DU?$char_traits@D@std@@V?$allocator@D@2@@std@@PEAVElement@@@std@@@std@@@std@@@std@@@std@@@1@@Z
	??$?0AEBV?$allocator@D@std@@$$V@?$_Compressed_pair@U?$_Wrap_alloc@V?$allocator@D@std@@@std@@V?$_String_val@U?$_Simple_types@D@std@@@2@$00@std@@QEAA@U_One_then_variadic_args_t@1@AEBV?$allocator@D@1@@Z
	??$?0AEBV?$allocator@D@std@@@?$_Wrap_alloc@V?$allocator@D@std@@@std@@QEAA@AEBV?$allocator@D@1@@Z
	??$?0AEBV?$allocator@D@std@@X@?$_String_alloc@U?$_String_base_types@DV?$allocator@D@std@@@std@@@std@@QEAA@AEBV?$allocator@D@1@@Z
	??$?0AEBV?$allocator@U?$pair@$$CBV?$basic_string@DU?$char_traits@D@std@@V?$allocator@D@2@@std@@PEAVElement@@@std@@@std@@$$V@?$_Compressed_pair@U?$_Wrap_alloc@V?$allocator@U?$_List_node@U?$pair@$$CBV?$basic_string@DU?$char_traits@D@std@@V?$allocator@D@2@@std@@PEAVElement@@@std@@PEAX@std@@@std@@@std@@V?$_List_val@U?$_List_simple_types@U?$pair@$$CBV?$basic_string@DU?$char_traits@D@std@@V?$allocator@D@2@@std@@PEAVElement@@@std@@@std@@@2@$00@std@@QEAA@U_One_then_variadic_args_t@1@AEBV?$allocator@U?$pair@$$CBV?$basic_string@DU?$char_traits@D@std@@V?$allocator@D@2@@std@@PEAVElement@@@std@@@1@@Z
	??$?0AEBV?$allocator@U?$pair@$$CBV?$basic_string@DU?$char_traits@D@std@@V?$allocator@D@2@@std@@PEAVElement@@@std@@@std@@@?$_Wrap_alloc@V?$allocator@U?$_List_node@U?$pair@$$CBV?$basic_string@DU?$char_traits@D@std@@V?$allocator@D@2@@std@@PEAVElement@@@std@@PEAX@std@@@std@@@std@@QEAA@AEBV?$allocator@U?$pair@$$CBV?$basic_string@DU?$char_traits@D@std@@V?$allocator@D@2@@std@@PEAVElement@@@std@@@1@@Z
	??$?0AEBV?$allocator@U?$pair@$$CBV?$basic_string@DU?$char_traits@D@std@@V?$allocator@D@2@@std@@PEAVElement@@@std@@@std@@@?$_Wrap_alloc@V?$allocator@V?$_List_unchecked_iterator@V?$_List_val@U?$_List_simple_types@U?$pair@$$CBV?$basic_string@DU?$char_traits@D@std@@V?$allocator@D@2@@std@@PEAVElement@@@std@@@std@@@std@@@std@@@std@@@std@@QEAA@AEBV?$allocator@U?$pair@$$CBV?$basic_string@DU?$char_traits@D@std@@V?$allocator@D@2@@std@@PEAVElement@@@std@@@1@@Z
	??$?0AEBV?$allocator@U?$pair@$$CBV?$basic_string@DU?$char_traits@D@std@@V?$allocator@D@2@@std@@PEAVElement@@@std@@@std@@X@?$_List_alloc@U?$_List_base_types@U?$pair@$$CBV?$basic_string@DU?$char_traits@D@std@@V?$allocator@D@2@@std@@PEAVElement@@@std@@V?$allocator@U?$pair@$$CBV?$basic_string@DU?$char_traits@D@std@@V?$allocator@D@2@@std@@PEAVElement@@@std@@@2@@std@@@std@@QEAA@AEBV?$allocator@U?$pair@$$CBV?$basic_string@DU?$char_traits@D@std@@V?$allocator@D@2@@std@@PEAVElement@@@std@@@1@@Z
	??$?0AEBV?$allocator@U?$pair@$$CBV?$basic_string@DU?$char_traits@D@std@@V?$allocator@D@2@@std@@PEAVElement@@@std@@@std@@X@?$_List_buy@U?$pair@$$CBV?$basic_string@DU?$char_traits@D@std@@V?$allocator@D@2@@std@@PEAVElement@@@std@@V?$allocator@U?$pair@$$CBV?$basic_string@DU?$char_traits@D@std@@V?$allocator@D@2@@std@@PEAVElement@@@std@@@2@@std@@QEAA@AEBV?$allocator@U?$pair@$$CBV?$basic_string@DU?$char_traits@D@std@@V?$allocator@D@2@@std@@PEAVElement@@@std@@@1@@Z
	??$?0AEBV?$basic_string@DU?$char_traits@D@std@@V?$allocator@D@2@@std@@$$Z$$V@?$pair@$$CBV?$basic_string@DU?$char_traits@D@std@@V?$allocator@D@2@@std@@PEAVElement@@@std@@QEAA@Upiecewise_construct_t@1@V?$tuple@AEBV?$basic_string@DU?$char_traits@D@std@@V?$allocator@D@2@@std@@@1@V?$tuple@$$V@1@@Z
	??$?0AEBV?$basic_string@DU?$char_traits@D@std@@V?$allocator@D@2@@std@@$0A@@?$tuple@AEBV?$basic_string@DU?$char_traits@D@std@@V?$allocator@D@2@@std@@@std@@QEAA@AEBV?$basic_string@DU?$char_traits@D@std@@V?$allocator@D@2@@1@@Z
	??$?0AEBV?$basic_string@DU?$char_traits@D@std@@V?$allocator@D@2@@std@@@?$_Tuple_val@AEBV?$basic_string@DU?$char_traits@D@std@@V?$allocator@D@2@@std@@@std@@QEAA@AEBV?$basic_string@DU?$char_traits@D@std@@V?$allocator@D@2@@1@@Z
	??$?0D@?$allocator@U_Container_proxy@std@@@std@@QEAA@AEBV?$allocator@D@1@@Z
	??$?0H@?$allocator@U_Container_proxy@std@@@std@@QEAA@AEBV?$allocator@H@1@@Z
	??$?0N@?$allocator@U_Container_proxy@std@@@std@@QEAA@AEBV?$allocator@N@1@@Z
	??$?0PEAUSegment@@@?$allocator@U_Container_proxy@std@@@std@@QEAA@AEBV?$allocator@PEAUSegment@@@1@@Z
	??$?0PEAVControl@@@?$allocator@U_Container_proxy@std@@@std@@QEAA@AEBV?$allocator@PEAVControl@@@1@@Z
	??$?0PEAVCurve@@@?$allocator@U_Container_proxy@std@@@std@@QEAA@AEBV?$allocator@PEAVCurve@@@1@@Z
	??$?0PEAVLink@@@?$allocator@U_Container_proxy@std@@@std@@QEAA@AEBV?$allocator@PEAVLink@@@1@@Z
	??$?0PEAVNode@@@?$allocator@U_Container_proxy@std@@@std@@QEAA@AEBV?$allocator@PEAVNode@@@1@@Z
	??$?0PEAVPattern@@@?$allocator@U_Container_proxy@std@@@std@@QEAA@AEBV?$allocator@PEAVPattern@@@1@@Z
	??$?0U?$_List_node@U?$pair@$$CBV?$basic_string@DU?$char_traits@D@std@@V?$allocator@D@2@@std@@PEAVElement@@@std@@PEAX@std@@@?$allocator@U_Container_proxy@std@@@std@@QEAA@AEBV?$allocator@U?$_List_node@U?$pair@$$CBV?$basic_string@DU?$char_traits@D@std@@V?$allocator@D@2@@std@@PEAVElement@@@std@@PEAX@std@@@1@@Z
	??$?0U?$_List_node@VDemand@@PEAX@std@@@?$allocator@U_Container_proxy@std@@@std@@QEAA@AEBV?$allocator@U?$_List_node@VDemand@@PEAX@std@@@1@@Z
	??$?0U?$_Wrap_alloc@V?$allocator@D@std@@@std@@$$V@?$_Compressed_pair@U?$_Wrap_alloc@V?$allocator@D@std@@@std@@V?$_String_val@U?$_Simple_types@D@std@@@2@$00@std@@QEAA@U_One_then_variadic_args_t@1@$$QEAU?$_Wrap_alloc@V?$allocator@D@std@@@1@@Z
	??$?0U?$_Wrap_alloc@V?$allocator@D@std@@@std@@X@?$_String_alloc@U?$_String_base_types@DV?$allocator@D@std@@@std@@@std@@QEAA@$$QEAU?$_Wrap_alloc@V?$allocator@D@std@@@1@@Z
	??$?0U?$_Wrap_alloc@V?$allocator@V?$basic_string@DU?$char_traits@D@std@@V?$allocator@D@2@@std@@@std@@@std@@$$V@?$_Compressed_pair@U?$_Wrap_alloc@V?$allocator@V?$basic_string@DU?$char_traits@D@std@@V?$allocator@D@2@@std@@@std@@@std@@V?$_Vector_val@U?$_Simple_types@V?$basic_string@DU?$char_traits@D@std@@V?$allocator@D@2@@std@@@std@@@2@$00@std@@QEAA@U_One_then_variadic_args_t@1@$$QEAU?$_Wrap_alloc@V?$allocator@V?$basic_string@DU?$char_traits@D@std@@V?$allocator@D@2@@std@@@std@@@1@@Z
	??$?0U?$_Wrap_alloc@V?$allocator@V?$basic_string@DU?$char_traits@D@std@@V?$allocator@D@2@@std@@@std@@@std@@X@?$_Vector_alloc@U?$_Vec_base_types@V?$basic_string@DU?$char_traits@D@std@@V?$allocator@D@2@@std@@V?$allocator@V?$basic_string@DU?$char_traits@D@std@@V?$allocator@D@2@@std@@@2@@std@@@std@@QEAA@$$QEAU?$_Wrap_alloc@V?$allocator@V?$basic_string@DU?$char_traits@D@std@@V?$allocator@D@2@@std@@@std@@@1@@Z
	??$?0U?$integral_constant@_N$00@std@@@_Any_tag@std@@QEAA@$$QEAU?$integral_constant@_N$00@1@@Z
	??$?0U?$integral_constant@_N$0A@@std@@@_Any_tag@std@@QEAA@$$QEAU?$integral_constant@_N$0A@@1@@Z
	??$?0U?$pair@$$CBV?$basic_string@DU?$char_traits@D@std@@V?$allocator@D@2@@std@@PEAVElement@@@std@@@?$allocator@U?$_List_node@U?$pair@$$CBV?$basic_string@DU?$char_traits@D@std@@V?$allocator@D@2@@std@@PEAVElement@@@std@@PEAX@std@@@std@@QEAA@AEBV?$allocator@U?$pair@$$CBV?$basic_string@DU?$char_traits@D@std@@V?$allocator@D@2@@std@@PEAVElement@@@std@@@1@@Z
	??$?0U?$pair@$$CBV?$basic_string@DU?$char_traits@D@std@@V?$allocator@D@2@@std@@PEAVElement@@@std@@@?$allocator@V?$_List_unchecked_iterator@V?$_List_val@U?$_List_simple_types@U?$pair@$$CBV?$basic_string@DU?$char_traits@D@std@@V?$allocator@D@2@@std@@PEAVElement@@@std@@@std@@@std@@@std@@@std@@QEAA@AEBV?$allocator@U?$pair@$$CBV?$basic_string@DU?$char_traits@D@std@@V?$allocator@D@2@@std@@PEAVElement@@@std@@@1@@Z
	??$?0U_Exact_args_t@std@@$0A@@?$tuple@$$V@std@@QEAA@U_Exact_args_t@1@@Z
	??$?0V?$_List_iterator@V?$_List_val@U?$_List_simple_types@U?$pair@$$CBV?$basic_string@DU?$char_traits@D@std@@V?$allocator@D@2@@std@@PEAVElement@@@std@@@std@@@std@@@std@@_NX$0A@@?$pair@V?$_List_iterator@V?$_List_val@U?$_List_simple_types@U?$pair@$$CBV?$basic_string@DU?$char_traits@D@std@@V?$allocator@D@2@@std@@PEAVElement@@@std@@@std@@@std@@@std@@_N@std@@QEAA@$$QEAV?$_List_iterator@V?$_List_val@U?$_List_simple_types@U?$pair@$$CBV?$basic_string@DU?$char_traits@D@std@@V?$allocator@D@2@@std@@PEAVElement@@@std@@@std@@@std@@@1@$$QEA_N@Z
	??$?0V?$_List_unchecked_iterator@V?$_List_val@U?$_List_simple_types@U?$pair@$$CBV?$basic_string@DU?$char_traits@D@std@@V?$allocator@D@2@@std@@PEAVElement@@@std@@@std@@@std@@@std@@@?$allocator@U_Container_proxy@std@@@std@@QEAA@AEBV?$allocator@V?$_List_unchecked_iterator@V?$_List_val@U?$_List_simple_types@U?$pair@$$CBV?$basic_string@DU?$char_traits@D@std@@V?$allocator@D@2@@std@@PEAVElement@@@std@@@std@@@std@@@std@@@1@@Z
	??$?0V?$allocator@D@std@@@?$_Wrap_alloc@V?$allocator@D@std@@@std@@QEAA@$$QEAV?$allocator@D@1@@Z
	??$?0V?$basic_string@DU?$char_traits@D@std@@V?$allocator@D@2@@std@@@?$allocator@U_Container_proxy@std@@@std@@QEAA@AEBV?$allocator@V?$basic_string@DU?$char_traits@D@std@@V?$allocator@D@2@@std@@@1@@Z
	??$?0V?$istream_iterator@V?$basic_string@DU?$char_traits@D@std@@V?$allocator@D@2@@std@@DU?$char_traits@D@2@_J@std@@X@?$vector@V?$basic_string@DU?$char_traits@D@std@@V?$allocator@D@2@@std@@V?$allocator@V?$basic_string@DU?$char_traits@D@std@@V?$allocator@D@2@@std@@@2@@std@@QEAA@V?$istream_iterator@V?$basic_string@DU?$char_traits@D@std@@V?$allocator@D@2@@std@@DU?$char_traits@D@2@_J@1@0@Z
	??$?0V?$tuple@AEBV?$basic_string@DU?$char_traits@D@std@@V?$allocator@D@2@@std@@@std@@V?$tuple@$$V@1@$0A@$$Z$S@?$pair@$$CBV?$basic_string@DU?$char_traits@D@std@@V?$allocator@D@2@@std@@PEAVElement@@@std@@QEAA@AEAV?$tuple@AEBV?$basic_string@DU?$char_traits@D@std@@V?$allocator@D@2@@std@@@1@AEAV?$tuple@$$V@1@U?$integer_sequence@_K$0A@@1@U?$integer_sequence@_K$S@1@@Z
	??$?5DU?$char_traits@D@std@@V?$allocator@D@1@@std@@YAAEAV?$basic_istream@DU?$char_traits@D@std@@@0@$$QEAV10@AEAV?$basic_string@DU?$char_traits@D@std@@V?$allocator@D@2@@0@@Z
	??$?5DU?$char_traits@D@std@@V?$allocator@D@1@@std@@YAAEAV?$basic_istream@DU?$char_traits@D@std@@@0@AEAV10@AEAV?$basic_string@DU?$char_traits@D@std@@V?$allocator@D@2@@0@@Z
	??$?6DU?$char_traits@D@std@@D@std@@YAAEAV?$basic_ostream@DU?$char_traits@D@std@@@0@AEAV10@AEBU?$_Fillobj@D@0@@Z
	??$?6DU?$char_traits@D@std@@V?$allocator@D@1@@std@@YAAEAV?$basic_ostream@DU?$char_traits@D@std@@@0@AEAV10@AEBV?$basic_string@DU?$char_traits@D@std@@V?$allocator@D@2@@0@@Z
	??$?6DU?$char_traits@D@std@@_J@std@@YAAEAV?$basic_ostream@DU?$char_traits@D@std@@@0@AEAV10@AEBU?$_Smanip@_J@0@@Z
	??$?6U?$char_traits@D@std@@@std@@YAAEAV?$basic_ostream@DU?$char_traits@D@std@@@0@AEAV10@PEBD@Z
	??$?8DD@std@@YA_NAEBV?$allocator@D@0@0@Z
	??$?8DU?$char_traits@D@std@@V?$allocator@D@1@@std@@YA_NAEBV?$basic_string@DU?$char_traits@D@std@@V?$allocator@D@2@@0@0@Z
	??$?8DU?$char_traits@D@std@@V?$allocator@D@1@@std@@YA_NAEBV?$basic_string@DU?$char_traits@D@std@@V?$allocator@D@2@@0@PEBD@Z
	??$?8V?$allocator@D@std@@V01@@std@@YA_NAEBU?$_Wrap_alloc@V?$allocator@D@std@@@0@0@Z
	??$?8V?$basic_string@DU?$char_traits@D@std@@V?$allocator@D@2@@std@@DU?$char_traits@D@1@_J@std@@YA_NAEBV?$istream_iterator@V?$basic_string@DU?$char_traits@D@std@@V?$allocator@D@2@@std@@DU?$char_traits@D@2@_J@0@0@Z
	??$?9DU?$char_traits@D@std@@V?$allocator@D@1@@std@@YA_NAEBV?$basic_string@DU?$char_traits@D@std@@V?$allocator@D@2@@0@PEBD@Z
	??$?9V?$allocator@D@std@@V01@@std@@YA_NAEBU?$_Wrap_alloc@V?$allocator@D@std@@@0@0@Z
	??$?9V?$basic_string@DU?$char_traits@D@std@@V?$allocator@D@2@@std@@DU?$char_traits@D@1@_J@std@@YA_NAEBV?$istream_iterator@V?$basic_string@DU?$char_traits@D@std@@V?$allocator@D@2@@std@@DU?$char_traits@D@2@_J@0@0@Z
	??$?HDU?$char_traits@D@std@@V?$allocator@D@1@@std@@YA?AV?$basic_string@DU?$char_traits@D@std@@V?$allocator@D@2@@0@$$QEAV10@0@Z
	??$?HDU?$char_traits@D@std@@V?$allocator@D@1@@std@@YA?AV?$basic_string@DU?$char_traits@D@std@@V?$allocator@D@2@@0@$$QEAV10@AEBV10@@Z
	??$?HDU?$char_traits@D@std@@V?$allocator@D@1@@std@@YA?AV?$basic_string@DU?$char_traits@D@std@@V?$allocator@D@2@@0@$$QEAV10@PEBD@Z
	??$?HDU?$char_traits@D@std@@V?$allocator@D@1@@std@@YA?AV?$basic_string@DU?$char_traits@D@std@@V?$allocator@D@2@@0@AEBV10@0@Z
	??$?HDU?$char_traits@D@std@@V?$allocator@D@1@@std@@YA?AV?$basic_string@DU?$char_traits@D@std@@V?$allocator@D@2@@0@AEBV10@PEBD@Z
	??$?HDU?$char_traits@D@std@@V?$allocator@D@1@@std@@YA?AV?$basic_string@DU?$char_traits@D@std@@V?$allocator@D@2@@0@PEBDAEBV10@@Z
	??$?RAEBHAEBH@?$less@X@std@@QEBA_NAEBH0@Z
	??$?RAEBNAEBN@?$less@X@std@@QEBA_NAEBN0@Z
	??$_Buynode@AEBUpiecewise_construct_t@std@@V?$tuple@AEBV?$basic_string@DU?$char_traits@D@std@@V?$allocator@D@2@@std@@@2@V?$tuple@$$V@2@@?$_List_buy@U?$pair@$$CBV?$basic_string@DU?$char_traits@D@std@@V?$allocator@D@2@@std@@PEAVElement@@@std@@V?$allocator@U?$pair@$$CBV?$basic_string@DU?$char_traits@D@std@@V?$allocator@D@2@@std@@PEAVElement@@@std@@@2@@std@@QEAAPEAU?$_List_node@U?$pair@$$CBV?$basic_string@DU?$char_traits@D@std@@V?$allocator@D@2@@std@@PEAVElement@@@std@@PEAX@1@PEAU21@0AEBUpiecewise_construct_t@1@$$QEAV?$tuple@AEBV?$basic_string@DU?$char_traits@D@std@@V?$allocator@D@2@@std@@@1@$$QEAV?$tuple@$$V@1@@Z
	??$_Buynode@AEBVDemand@@@?$_List_buy@VDemand@@V?$allocator@VDemand@@@std@@@std@@QEAAPEAU?$_List_node@VDemand@@PEAX@1@PEAU21@0AEBVDemand@@@Z
	??$_Buynode_if_nil@AEAU?$pair@$$CBV?$basic_string@DU?$char_traits@D@std@@V?$allocator@D@2@@std@@PEAVElement@@@std@@@?$_Hash@V?$_Umap_traits@V?$basic_string@DU?$char_traits@D@std@@V?$allocator@D@2@@std@@PEAVElement@@V?$_Uhash_compare@V?$basic_string@DU?$char_traits@D@std@@V?$allocator@D@2@@std@@U?$hash@V?$basic_string@DU?$char_traits@D@std@@V?$allocator@D@2@@std@@@2@U?$equal_to@V?$basic_string@DU?$char_traits@D@std@@V?$allocator@D@2@@std@@@2@@2@V?$allocator@U?$pair@$$CBV?$basic_string@DU?$char_traits@D@std@@V?$allocator@D@2@@std@@PEAVElement@@@std@@@2@$0A@@std@@@std@@IEAA?AV?$_List_unchecked_iterator@V?$_List_val@U?$_List_simple_types@U?$pair@$$CBV?$basic_string@DU?$char_traits@D@std@@V?$allocator@D@2@@std@@PEAVElement@@@std@@@std@@@std@@@1@AEAU?$pair@$$CBV?$basic_string@DU?$char_traits@D@std@@V?$allocator@D@2@@std@@PEAVElement@@@1@V21@@Z
	??$_Construct1@U_Container_proxy@std@@U12@@?$allocator_traits@U?$_Wrap_alloc@V?$allocator@U_Container_proxy@std@@@std@@@std@@@std@@SAXU?$integral_constant@_N$00@1@AEAU?$_Wrap_alloc@V?$allocator@U_Container_proxy@std@@@std@@@1@PEAU_Container_proxy@1@$$QEAU41@@Z
	??$_Construct1@V?$_List_unchecked_iterator@V?$_List_val@U?$_List_simple_types@U?$pair@$$CBV?$basic_string@DU?$char_traits@D@std@@V?$allocator@D@2@@std@@PEAVElement@@@std@@@std@@@std@@@std@@AEBV12@@?$allocator_traits@U?$_Wrap_alloc@V?$allocator@V?$_List_unchecked_iterator@V?$_List_val@U?$_List_simple_types@U?$pair@$$CBV?$basic_string@DU?$char_traits@D@std@@V?$allocator@D@2@@std@@PEAVElement@@@std@@@std@@@std@@@std@@@std@@@std@@@std@@SAXU?$integral_constant@_N$00@1@AEAU?$_Wrap_alloc@V?$allocator@V?$_List_unchecked_iterator@V?$_List_val@U?$_List_simple_types@U?$pair@$$CBV?$basic_string@DU?$char_traits@D@std@@V?$allocator@D@2@@std@@PEAVElement@@@std@@@std@@@std@@@std@@@std@@@1@PEAV?$_List_unchecked_iterator@V?$_List_val@U?$_List_simple_types@U?$pair@$$CBV?$basic_string@DU?$char_traits@D@std@@V?$allocator@D@2@@std@@PEAVElement@@@std@@@std@@@std@@@1@AEBV41@@Z
	??$_Construct1@V?$_List_unchecked_iterator@V?$_List_val@U?$_List_simple_types@U?$pair@$$CBV?$basic_string@DU?$char_traits@D@std@@V?$allocator@D@2@@std@@PEAVElement@@@std@@@std@@@std@@@std@@V12@@?$allocator_traits@U?$_Wrap_alloc@V?$allocator@V?$_List_unchecked_iterator@V?$_List_val@U?$_List_simple_types@U?$pair@$$CBV?$basic_string@DU?$char_traits@D@std@@V?$allocator@D@2@@std@@PEAVElement@@@std@@@std@@@std@@@std@@@std@@@std@@@std@@SAXU?$integral_constant@_N$00@1@AEAU?$_Wrap_alloc@V?$allocator@V?$_List_unchecked_iterator@V?$_List_val@U?$_List_simple_types@U?$pair@$$CBV?$basic_string@DU?$char_traits@D@std@@V?$allocator@D@2@@std@@PEAVElement@@@std@@@std@@@std@@@std@@@std@@@1@PEAV?$_List_unchecked_iterator@V?$_List_val@U?$_List_simple_types@U?$pair@$$CBV?$basic_string@DU?$char_traits@D@std@@V?$allocator@D@2@@std@@PEAVElement@@@std@@@std@@@std@@@1@$$QEAV41@@Z
	??$_Construct@V?$istream_iterator@V?$basic_string@DU?$char_traits@D@std@@V?$allocator@D@2@@std@@DU?$char_traits@D@2@_J@std@@@?$vector@V?$basic_string@DU?$char_traits@D@std@@V?$allocator@D@2@@std@@V?$allocator@V?$basic_string@DU?$char_traits@D@std@@V?$allocator@D@2@@std@@@2@@std@@QEAAXV?$istream_iterator@V?$basic_string@DU?$char_traits@D@std@@V?$allocator@D@2@@std@@DU?$char_traits@D@2@_J@1@0@Z
	??$_Construct@V?$istream_iterator@V?$basic_string@DU?$char_traits@D@std@@V?$allocator@D@2@@std@@DU?$char_traits@D@2@_J@std@@@?$vector@V?$basic_string@DU?$char_traits@D@std@@V?$allocator@D@2@@std@@V?$allocator@V?$basic_string@DU?$char_traits@D@std@@V?$allocator@D@2@@std@@@2@@std@@QEAAXV?$istream_iterator@V?$basic_string@DU?$char_traits@D@std@@V?$allocator@D@2@@std@@DU?$char_traits@D@2@_J@1@0Uinput_iterator_tag@1@@Z
	??$_Copy_backward_memmove@PEAV?$_List_unchecked_iterator@V?$_List_val@U?$_List_simple_types@U?$pair@$$CBV?$basic_string@DU?$char_traits@D@std@@V?$allocator@D@2@@std@@PEAVElement@@@std@@@std@@@std@@@std@@PEAV12@@std@@YAPEAV?$_List_unchecked_iterator@V?$_List_val@U?$_List_simple_types@U?$pair@$$CBV?$basic_string@DU?$char_traits@D@std@@V?$allocator@D@2@@std@@PEAVElement@@@std@@@std@@@std@@@0@PEAV10@00@Z
	??$_Copy_memmove@PEADPEAD@std@@YAPEADPEAD00@Z
	??$_Copy_memmove@PEAHPEAH@std@@YAPEAHPEAH00@Z
	??$_Copy_memmove@PEANPEAN@std@@YAPEANPEAN00@Z
	??$_Copy_memmove@PEAPEAUSegment@@PEAPEAU1@@std@@YAPEAPEAUSegment@@PEAPEAU1@00@Z
	??$_Copy_memmove@PEAPEAVControl@@PEAPEAV1@@std@@YAPEAPEAVControl@@PEAPEAV1@00@Z
	??$_Copy_memmove@PEAPEAVCurve@@PEAPEAV1@@std@@YAPEAPEAVCurve@@PEAPEAV1@00@Z
	??$_Copy_memmove@PEAPEAVLink@@PEAPEAV1@@std@@YAPEAPEAVLink@@PEAPEAV1@00@Z
	??$_Copy_memmove@PEAPEAVNode@@PEAPEAV1@@std@@YAPEAPEAVNode@@PEAPEAV1@00@Z
	??$_Copy_memmove@PEAPEAVPattern@@PEAPEAV1@@std@@YAPEAPEAVPattern@@PEAPEAV1@00@Z
	??$_Debug_lt@AEBHAEBH@std@@YA_NAEBH0PEB_WI@Z
	??$_Debug_lt@AEBNAEBN@std@@YA_NAEBN0PEB_WI@Z
	??$_Debug_lt_pred@U?$less@X@std@@AEBHAEBH@std@@YA_N$$QEAU?$less@X@0@AEBH1PEB_WI@Z
	??$_Debug_lt_pred@U?$less@X@std@@AEBNAEBN@std@@YA_N$$QEAU?$less@X@0@AEBN1PEB_WI@Z
	??$_Debug_pointer@$$CBD@std@@YAXPEBDPEB_WI@Z
	??$_Debug_pointer@V?$_List_unchecked_iterator@V?$_List_val@U?$_List_simple_types@U?$pair@$$CBV?$basic_string@DU?$char_traits@D@std@@V?$allocator@D@2@@std@@PEAVElement@@@std@@@std@@@std@@@std@@@std@@YAXPEAV?$_List_unchecked_iterator@V?$_List_val@U?$_List_simple_types@U?$pair@$$CBV?$basic_string@DU?$char_traits@D@std@@V?$allocator@D@2@@std@@PEAVElement@@@std@@@std@@@std@@@0@PEB_WI@Z
	??$_Debug_pointer_if@$$CBD@std@@YAX_NPEBDPEB_WI@Z
	??$_Debug_range2@PEAV?$_List_unchecked_iterator@V?$_List_val@U?$_List_simple_types@U?$pair@$$CBV?$basic_string@DU?$char_traits@D@std@@V?$allocator@D@2@@std@@PEAVElement@@@std@@@std@@@std@@@std@@@std@@YAXPEAV?$_List_unchecked_iterator@V?$_List_val@U?$_List_simple_types@U?$pair@$$CBV?$basic_string@DU?$char_traits@D@std@@V?$allocator@D@2@@std@@PEAVElement@@@std@@@std@@@std@@@0@0PEB_WIUrandom_access_iterator_tag@0@@Z
	??$_Debug_range@PEAV?$_List_unchecked_iterator@V?$_List_val@U?$_List_simple_types@U?$pair@$$CBV?$basic_string@DU?$char_traits@D@std@@V?$allocator@D@2@@std@@PEAVElement@@@std@@@std@@@std@@@std@@@std@@YAXPEAV?$_List_unchecked_iterator@V?$_List_val@U?$_List_simple_types@U?$pair@$$CBV?$basic_string@DU?$char_traits@D@std@@V?$allocator@D@2@@std@@PEAVElement@@@std@@@std@@@std@@@0@0PEB_WI@Z
	??$_Destroy1@U_Container_proxy@std@@@?$allocator_traits@U?$_Wrap_alloc@V?$allocator@U_Container_proxy@std@@@std@@@std@@@std@@SAXAEAU?$_Wrap_alloc@V?$allocator@U_Container_proxy@std@@@std@@@1@PEAU_Container_proxy@1@U?$integral_constant@_N$00@1@@Z
	??$_Destroy1@V?$_List_unchecked_iterator@V?$_List_val@U?$_List_simple_types@U?$pair@$$CBV?$basic_string@DU?$char_traits@D@std@@V?$allocator@D@2@@std@@PEAVElement@@@std@@@std@@@std@@@std@@@?$allocator_traits@U?$_Wrap_alloc@V?$allocator@V?$_List_unchecked_iterator@V?$_List_val@U?$_List_simple_types@U?$pair@$$CBV?$basic_string@DU?$char_traits@D@std@@V?$allocator@D@2@@std@@PEAVElement@@@std@@@std@@@std@@@std@@@std@@@std@@@std@@SAXAEAU?$_Wrap_alloc@V?$allocator@V?$_List_unchecked_iterator@V?$_List_val@U?$_List_simple_types@U?$pair@$$CBV?$basic_string@DU?$char_traits@D@std@@V?$allocator@D@2@@std@@PEAVElement@@@std@@@std@@@std@@@std@@@std@@@1@PEAV?$_List_unchecked_iterator@V?$_List_val@U?$_List_simple_types@U?$pair@$$CBV?$basic_string@DU?$char_traits@D@std@@V?$allocator@D@2@@std@@PEAVElement@@@std@@@std@@@std@@@1@U?$integral_constant@_N$00@1@@Z
	??$_Destroy_range1@U?$_Wrap_alloc@V?$allocator@V?$_List_unchecked_iterator@V?$_List_val@U?$_List_simple_types@U?$pair@$$CBV?$basic_string@DU?$char_traits@D@std@@V?$allocator@D@2@@std@@PEAVElement@@@std@@@std@@@std@@@std@@@std@@@std@@PEAV?$_List_unchecked_iterator@V?$_List_val@U?$_List_simple_types@U?$pair@$$CBV?$basic_string@DU?$char_traits@D@std@@V?$allocator@D@2@@std@@PEAVElement@@@std@@@std@@@std@@@2@@std@@YAXPEAV?$_List_unchecked_iterator@V?$_List_val@U?$_List_simple_types@U?$pair@$$CBV?$basic_string@DU?$char_traits@D@std@@V?$allocator@D@2@@std@@PEAVElement@@@std@@@std@@@std@@@0@0AEAU?$_Wrap_alloc@U?$_Wrap_alloc@V?$allocator@V?$_List_unchecked_iterator@V?$_List_val@U?$_List_simple_types@U?$pair@$$CBV?$basic_string@DU?$char_traits@D@std@@V?$allocator@D@2@@std@@PEAVElement@@@std@@@std@@@std@@@std@@@std@@@std@@@0@U?$integral_constant@_N$0A@@0@@Z
	??$_Destroy_range1@V?$allocator@D@std@@PEAD@std@@YAXPEAD0AEAU?$_Wrap_alloc@V?$allocator@D@std@@@0@U?$integral_constant@_N$00@0@@Z
	??$_Destroy_range1@V?$allocator@H@std@@PEAH@std@@YAXPEAH0AEAU?$_Wrap_alloc@V?$allocator@H@std@@@0@U?$integral_constant@_N$00@0@@Z
	??$_Destroy_range1@V?$allocator@N@std@@PEAN@std@@YAXPEAN0AEAU?$_Wrap_alloc@V?$allocator@N@std@@@0@U?$integral_constant@_N$00@0@@Z
	??$_Destroy_range1@V?$allocator@PEAUSegment@@@std@@PEAPEAUSegment@@@std@@YAXPEAPEAUSegment@@0AEAU?$_Wrap_alloc@V?$allocator@PEAUSegment@@@std@@@0@U?$integral_constant@_N$00@0@@Z
	??$_Destroy_range1@V?$allocator@PEAVControl@@@std@@PEAPEAVControl@@@std@@YAXPEAPEAVControl@@0AEAU?$_Wrap_alloc@V?$allocator@PEAVControl@@@std@@@0@U?$integral_constant@_N$00@0@@Z
	??$_Destroy_range1@V?$allocator@PEAVCurve@@@std@@PEAPEAVCurve@@@std@@YAXPEAPEAVCurve@@0AEAU?$_Wrap_alloc@V?$allocator@PEAVCurve@@@std@@@0@U?$integral_constant@_N$00@0@@Z
	??$_Destroy_range1@V?$allocator@PEAVLink@@@std@@PEAPEAVLink@@@std@@YAXPEAPEAVLink@@0AEAU?$_Wrap_alloc@V?$allocator@PEAVLink@@@std@@@0@U?$integral_constant@_N$00@0@@Z
	??$_Destroy_range1@V?$allocator@PEAVNode@@@std@@PEAPEAVNode@@@std@@YAXPEAPEAVNode@@0AEAU?$_Wrap_alloc@V?$allocator@PEAVNode@@@std@@@0@U?$integral_constant@_N$00@0@@Z
	??$_Destroy_range1@V?$allocator@PEAVPattern@@@std@@PEAPEAVPattern@@@std@@YAXPEAPEAVPattern@@0AEAU?$_Wrap_alloc@V?$allocator@PEAVPattern@@@std@@@0@U?$integral_constant@_N$00@0@@Z
	??$_Destroy_range1@V?$allocator@V?$basic_string@DU?$char_traits@D@std@@V?$allocator@D@2@@std@@@std@@PEAV?$basic_string@DU?$char_traits@D@std@@V?$allocator@D@2@@2@@std@@YAXPEAV?$basic_string@DU?$char_traits@D@std@@V?$allocator@D@2@@0@0AEAU?$_Wrap_alloc@V?$allocator@V?$basic_string@DU?$char_traits@D@std@@V?$allocator@D@2@@std@@@std@@@0@U?$integral_constant@_N$0A@@0@@Z
	??$_Destroy_range@U?$_Wrap_alloc@V?$allocator@V?$_List_unchecked_iterator@V?$_List_val@U?$_List_simple_types@U?$pair@$$CBV?$basic_string@DU?$char_traits@D@std@@V?$allocator@D@2@@std@@PEAVElement@@@std@@@std@@@std@@@std@@@std@@@std@@PEAV?$_List_unchecked_iterator@V?$_List_val@U?$_List_simple_types@U?$pair@$$CBV?$basic_string@DU?$char_traits@D@std@@V?$allocator@D@2@@std@@PEAVElement@@@std@@@std@@@std@@@2@@std@@YAXPEAV?$_List_unchecked_iterator@V?$_List_val@U?$_List_simple_types@U?$pair@$$CBV?$basic_string@DU?$char_traits@D@std@@V?$allocator@D@2@@std@@PEAVElement@@@std@@@std@@@std@@@0@0AEAU?$_Wrap_alloc@U?$_Wrap_alloc@V?$allocator@V?$_List_unchecked_iterator@V?$_List_val@U?$_List_simple_types@U?$pair@$$CBV?$basic_string@DU?$char_traits@D@std@@V?$allocator@D@2@@std@@PEAVElement@@@std@@@std@@@std@@@std@@@std@@@std@@@0@@Z
	??$_Destroy_range@V?$allocator@D@std@@PEAD@std@@YAXPEAD0AEAU?$_Wrap_alloc@V?$allocator@D@std@@@0@@Z
	??$_Destroy_range@V?$allocator@H@std@@PEAH@std@@YAXPEAH0AEAU?$_Wrap_alloc@V?$allocator@H@std@@@0@@Z
	??$_Destroy_range@V?$allocator@N@std@@PEAN@std@@YAXPEAN0AEAU?$_Wrap_alloc@V?$allocator@N@std@@@0@@Z
	??$_Destroy_range@V?$allocator@PEAUSegment@@@std@@PEAPEAUSegment@@@std@@YAXPEAPEAUSegment@@0AEAU?$_Wrap_alloc@V?$allocator@PEAUSegment@@@std@@@0@@Z
	??$_Destroy_range@V?$allocator@PEAVControl@@@std@@PEAPEAVControl@@@std@@YAXPEAPEAVControl@@0AEAU?$_Wrap_alloc@V?$allocator@PEAVControl@@@std@@@0@@Z
	??$_Destroy_range@V?$allocator@PEAVCurve@@@std@@PEAPEAVCurve@@@std@@YAXPEAPEAVCurve@@0AEAU?$_Wrap_alloc@V?$allocator@PEAVCurve@@@std@@@0@@Z
	??$_Destroy_range@V?$allocator@PEAVLink@@@std@@PEAPEAVLink@@@std@@YAXPEAPEAVLink@@0AEAU?$_Wrap_alloc@V?$allocator@PEAVLink@@@std@@@0@@Z
	??$_Destroy_range@V?$allocator@PEAVNode@@@std@@PEAPEAVNode@@@std@@YAXPEAPEAVNode@@0AEAU?$_Wrap_alloc@V?$allocator@PEAVNode@@@std@@@0@@Z
	??$_Destroy_range@V?$allocator@PEAVPattern@@@std@@PEAPEAVPattern@@@std@@YAXPEAPEAVPattern@@0AEAU?$_Wrap_alloc@V?$allocator@PEAVPattern@@@std@@@0@@Z
	??$_Destroy_range@V?$allocator@V?$basic_string@DU?$char_traits@D@std@@V?$allocator@D@2@@std@@@std@@PEAV?$basic_string@DU?$char_traits@D@std@@V?$allocator@D@2@@2@@std@@YAXPEAV?$basic_string@DU?$char_traits@D@std@@V?$allocator@D@2@@0@0AEAU?$_Wrap_alloc@V?$allocator@V?$basic_string@DU?$char_traits@D@std@@V?$allocator@D@2@@std@@@std@@@0@@Z
	??$_Fgetc@D@std@@YA_NAEADPEAU_iobuf@@@Z
	??$_Fill_memset_is_safe@PEAV?$_List_unchecked_iterator@V?$_List_val@U?$_List_simple_types@U?$pair@$$CBV?$basic_string@DU?$char_traits@D@std@@V?$allocator@D@2@@std@@PEAVElement@@@std@@@std@@@std@@@std@@V12@@std@@YA?AU?$integral_constant@_N$0A@@0@AEBQEAV?$_List_unchecked_iterator@V?$_List_val@U?$_List_simple_types@U?$pair@$$CBV?$basic_string@DU?$char_traits@D@std@@V?$allocator@D@2@@std@@PEAVElement@@@std@@@std@@@std@@@0@AEBV20@@Z
	??$_Fill_unchecked1@PEAV?$_List_unchecked_iterator@V?$_List_val@U?$_List_simple_types@U?$pair@$$CBV?$basic_string@DU?$char_traits@D@std@@V?$allocator@D@2@@std@@PEAVElement@@@std@@@std@@@std@@@std@@V12@@std@@YAXPEAV?$_List_unchecked_iterator@V?$_List_val@U?$_List_simple_types@U?$pair@$$CBV?$basic_string@DU?$char_traits@D@std@@V?$allocator@D@2@@std@@PEAVElement@@@std@@@std@@@std@@@0@0AEBV10@U?$integral_constant@_N$0A@@0@@Z
	??$_Fill_unchecked@PEAV?$_List_unchecked_iterator@V?$_List_val@U?$_List_simple_types@U?$pair@$$CBV?$basic_string@DU?$char_traits@D@std@@V?$allocator@D@2@@std@@PEAVElement@@@std@@@std@@@std@@@std@@V12@@std@@YAXPEAV?$_List_unchecked_iterator@V?$_List_val@U?$_List_simple_types@U?$pair@$$CBV?$basic_string@DU?$char_traits@D@std@@V?$allocator@D@2@@std@@PEAVElement@@@std@@@std@@@std@@@0@0AEBV10@@Z
	??$_Fn@U?$_Wrap_alloc@V?$allocator@V?$_List_unchecked_iterator@V?$_List_val@U?$_List_simple_types@U?$pair@$$CBV?$basic_string@DU?$char_traits@D@std@@V?$allocator@D@2@@std@@PEAVElement@@@std@@@std@@@std@@@std@@@std@@@std@@@_Alloc_max_size@std@@SA_KHAEBU?$_Wrap_alloc@V?$allocator@V?$_List_unchecked_iterator@V?$_List_val@U?$_List_simple_types@U?$pair@$$CBV?$basic_string@DU?$char_traits@D@std@@V?$allocator@D@2@@std@@PEAVElement@@@std@@@std@@@std@@@std@@@std@@@1@@Z
	??$_Fputc@D@std@@YA_NDPEAU_iobuf@@@Z
	??$_Insert@AEAU?$pair@$$CBV?$basic_string@DU?$char_traits@D@std@@V?$allocator@D@2@@std@@PEAVElement@@@std@@V?$_List_unchecked_iterator@V?$_List_val@U?$_List_simple_types@U?$pair@$$CBV?$basic_string@DU?$char_traits@D@std@@V?$allocator@D@2@@std@@PEAVElement@@@std@@@std@@@std@@@2@@?$_Hash@V?$_Umap_traits@V?$basic_string@DU?$char_traits@D@std@@V?$allocator@D@2@@std@@PEAVElement@@V?$_Uhash_compare@V?$basic_string@DU?$char_traits@D@std@@V?$allocator@D@2@@std@@U?$hash@V?$basic_string@DU?$char_traits@D@std@@V?$allocator@D@2@@std@@@2@U?$equal_to@V?$basic_string@DU?$char_traits@D@std@@V?$allocator@D@2@@std@@@2@@2@V?$allocator@U?$pair@$$CBV?$basic_string@DU?$char_traits@D@std@@V?$allocator@D@2@@std@@PEAVElement@@@std@@@2@$0A@@std@@@std@@IEAA?AU?$pair@V?$_List_iterator@V?$_List_val@U?$_List_simple_types@U?$pair@$$CBV?$basic_string@DU?$char_traits@D@std@@V?$allocator@D@2@@std@@PEAVElement@@@std@@@std@@@std@@@std@@_N@1@AEAU?$pair@$$CBV?$basic_string@DU?$char_traits@D@std@@V?$allocator@D@2@@std@@PEAVElement@@@1@V?$_List_unchecked_iterator@V?$_List_val@U?$_List_simple_types@U?$pair@$$CBV?$basic_string@DU?$char_traits@D@std@@V?$allocator@D@2@@std@@PEAVElement@@@std@@@std@@@std@@@1@@Z
	??$_Insert@AEBUpiecewise_construct_t@std@@V?$tuple@AEBV?$basic_string@DU?$char_traits@D@std@@V?$allocator@D@2@@std@@@2@V?$tuple@$$V@2@@?$list@U?$pair@$$CBV?$basic_string@DU?$char_traits@D@std@@V?$allocator@D@2@@std@@PEAVElement@@@std@@V?$allocator@U?$pair@$$CBV?$basic_string@DU?$char_traits@D@std@@V?$allocator@D@2@@std@@PEAVElement@@@std@@@2@@std@@QEAAXV?$_List_unchecked_const_iterator@V?$_List_val@U?$_List_simple_types@U?$pair@$$CBV?$basic_string@DU?$char_traits@D@std@@V?$allocator@D@2@@std@@PEAVElement@@@std@@@std@@@std@@U_Iterator_base0@2@@1@AEBUpiecewise_construct_t@1@$$QEAV?$tuple@AEBV?$basic_string@DU?$char_traits@D@std@@V?$allocator@D@2@@std@@@1@$$QEAV?$tuple@$$V@1@@Z
	??$_Insert@AEBVDemand@@@?$list@VDemand@@V?$allocator@VDemand@@@std@@@std@@QEAAXV?$_List_unchecked_const_iterator@V?$_List_val@U?$_List_simple_types@VDemand@@@std@@@std@@U_Iterator_base0@2@@1@AEBVDemand@@@Z
	??$_Kfn@$$CBV?$basic_string@DU?$char_traits@D@std@@V?$allocator@D@2@@std@@PEAVElement@@@?$_Umap_traits@V?$basic_string@DU?$char_traits@D@std@@V?$allocator@D@2@@std@@PEAVElement@@V?$_Uhash_compare@V?$basic_string@DU?$char_traits@D@std@@V?$allocator@D@2@@std@@U?$hash@V?$basic_string@DU?$char_traits@D@std@@V?$allocator@D@2@@std@@@2@U?$equal_to@V?$basic_string@DU?$char_traits@D@std@@V?$allocator@D@2@@std@@@2@@2@V?$allocator@U?$pair@$$CBV?$basic_string@DU?$char_traits@D@std@@V?$allocator@D@2@@std@@PEAVElement@@@std@@@2@$0A@@std@@SAAEBV?$basic_string@DU?$char_traits@D@std@@V?$allocator@D@2@@1@AEBU?$pair@$$CBV?$basic_string@DU?$char_traits@D@std@@V?$allocator@D@2@@std@@PEAVElement@@@1@@Z
	??$_Move_backward_unchecked1@PEAV?$_List_unchecked_iterator@V?$_List_val@U?$_List_simple_types@U?$pair@$$CBV?$basic_string@DU?$char_traits@D@std@@V?$allocator@D@2@@std@@PEAVElement@@@std@@@std@@@std@@@std@@PEAV12@@std@@YAPEAV?$_List_unchecked_iterator@V?$_List_val@U?$_List_simple_types@U?$pair@$$CBV?$basic_string@DU?$char_traits@D@std@@V?$allocator@D@2@@std@@PEAVElement@@@std@@@std@@@std@@@0@PEAV10@00U_Trivially_copyable_ptr_iterator_tag@0@@Z
	??$_Move_backward_unchecked@PEAV?$_List_unchecked_iterator@V?$_List_val@U?$_List_simple_types@U?$pair@$$CBV?$basic_string@DU?$char_traits@D@std@@V?$allocator@D@2@@std@@PEAVElement@@@std@@@std@@@std@@@std@@PEAV12@@std@@YAPEAV?$_List_unchecked_iterator@V?$_List_val@U?$_List_simple_types@U?$pair@$$CBV?$basic_string@DU?$char_traits@D@std@@V?$allocator@D@2@@std@@PEAVElement@@@std@@@std@@@std@@@0@PEAV10@00@Z
	??$_Pocca@U?$_Wrap_alloc@V?$allocator@D@std@@@std@@@std@@YAXAEAU?$_Wrap_alloc@V?$allocator@D@std@@@0@AEBU10@@Z
	??$_Pocca@U?$_Wrap_alloc@V?$allocator@D@std@@@std@@@std@@YAXAEAU?$_Wrap_alloc@V?$allocator@D@std@@@0@AEBU10@U?$integral_constant@_N$0A@@0@@Z
	??$_Pocma@U?$_Wrap_alloc@V?$allocator@D@std@@@std@@@std@@YAXAEAU?$_Wrap_alloc@V?$allocator@D@std@@@0@0@Z
	??$_Pocma@U?$_Wrap_alloc@V?$allocator@D@std@@@std@@@std@@YAXAEAU?$_Wrap_alloc@V?$allocator@D@std@@@0@0U?$integral_constant@_N$00@0@@Z
	??$_Ptr_move_cat@DD@std@@YA?AU_Really_trivial_ptr_iterator_tag@0@AEBQEAD0@Z
	??$_Ptr_move_cat@HH@std@@YA?AU_Really_trivial_ptr_iterator_tag@0@AEBQEAH0@Z
	??$_Ptr_move_cat@NN@std@@YA?AU_Really_trivial_ptr_iterator_tag@0@AEBQEAN0@Z
	??$_Ptr_move_cat@PEAUSegment@@PEAU1@@std@@YA?AU_Really_trivial_ptr_iterator_tag@0@AEBQEAPEAUSegment@@0@Z
	??$_Ptr_move_cat@PEAVControl@@PEAV1@@std@@YA?AU_Really_trivial_ptr_iterator_tag@0@AEBQEAPEAVControl@@0@Z
	??$_Ptr_move_cat@PEAVCurve@@PEAV1@@std@@YA?AU_Really_trivial_ptr_iterator_tag@0@AEBQEAPEAVCurve@@0@Z
	??$_Ptr_move_cat@PEAVLink@@PEAV1@@std@@YA?AU_Really_trivial_ptr_iterator_tag@0@AEBQEAPEAVLink@@0@Z
	??$_Ptr_move_cat@PEAVNode@@PEAV1@@std@@YA?AU_Really_trivial_ptr_iterator_tag@0@AEBQEAPEAVNode@@0@Z
	??$_Ptr_move_cat@PEAVPattern@@PEAV1@@std@@YA?AU_Really_trivial_ptr_iterator_tag@0@AEBQEAPEAVPattern@@0@Z
	??$_Ptr_move_cat@V?$_List_unchecked_iterator@V?$_List_val@U?$_List_simple_types@U?$pair@$$CBV?$basic_string@DU?$char_traits@D@std@@V?$allocator@D@2@@std@@PEAVElement@@@std@@@std@@@std@@@std@@V12@@std@@YA?AU_Trivially_copyable_ptr_iterator_tag@0@AEBQEAV?$_List_unchecked_iterator@V?$_List_val@U?$_List_simple_types@U?$pair@$$CBV?$basic_string@DU?$char_traits@D@std@@V?$allocator@D@2@@std@@PEAVElement@@@std@@@std@@@std@@@0@0@Z
	??$_Ptr_move_cat@V?$basic_string@DU?$char_traits@D@std@@V?$allocator@D@2@@std@@V12@@std@@YA?AU_General_ptr_iterator_tag@0@AEBQEAV?$basic_string@DU?$char_traits@D@std@@V?$allocator@D@2@@0@0@Z
	??$_Rechecked@PEADPEAD@std@@YAAEAPEADAEAPEADPEAD@Z
	??$_Rechecked@PEAHPEAH@std@@YAAEAPEAHAEAPEAHPEAH@Z
	??$_Rechecked@PEANPEAN@std@@YAAEAPEANAEAPEANPEAN@Z
	??$_Rechecked@PEAPEAUSegment@@PEAPEAU1@@std@@YAAEAPEAPEAUSegment@@AEAPEAPEAU1@PEAPEAU1@@Z
	??$_Rechecked@PEAPEAVControl@@PEAPEAV1@@std@@YAAEAPEAPEAVControl@@AEAPEAPEAV1@PEAPEAV1@@Z
	??$_Rechecked@PEAPEAVCurve@@PEAPEAV1@@std@@YAAEAPEAPEAVCurve@@AEAPEAPEAV1@PEAPEAV1@@Z
	??$_Rechecked@PEAPEAVLink@@PEAPEAV1@@std@@YAAEAPEAPEAVLink@@AEAPEAPEAV1@PEAPEAV1@@Z
	??$_Rechecked@PEAPEAVNode@@PEAPEAV1@@std@@YAAEAPEAPEAVNode@@AEAPEAPEAV1@PEAPEAV1@@Z
	??$_Rechecked@PEAPEAVPattern@@PEAPEAV1@@std@@YAAEAPEAPEAVPattern@@AEAPEAPEAV1@PEAPEAV1@@Z
	??$_Rechecked@PEAV?$_List_unchecked_iterator@V?$_List_val@U?$_List_simple_types@U?$pair@$$CBV?$basic_string@DU?$char_traits@D@std@@V?$allocator@D@2@@std@@PEAVElement@@@std@@@std@@@std@@@std@@PEAV12@@std@@YAAEAPEAV?$_List_unchecked_iterator@V?$_List_val@U?$_List_simple_types@U?$pair@$$CBV?$basic_string@DU?$char_traits@D@std@@V?$allocator@D@2@@std@@PEAVElement@@@std@@@std@@@std@@@0@AEAPEAV10@PEAV10@@Z
	??$_Rechecked@PEAV?$basic_string@DU?$char_traits@D@std@@V?$allocator@D@2@@std@@PEAV12@@std@@YAAEAPEAV?$basic_string@DU?$char_traits@D@std@@V?$allocator@D@2@@0@AEAPEAV10@PEAV10@@Z
	??$_Try_emplace@AEBV?$basic_string@DU?$char_traits@D@std@@V?$allocator@D@2@@std@@$$V@?$unordered_map@V?$basic_string@DU?$char_traits@D@std@@V?$allocator@D@2@@std@@PEAVElement@@U?$hash@V?$basic_string@DU?$char_traits@D@std@@V?$allocator@D@2@@std@@@2@U?$equal_to@V?$basic_string@DU?$char_traits@D@std@@V?$allocator@D@2@@std@@@2@V?$allocator@U?$pair@$$CBV?$basic_string@DU?$char_traits@D@std@@V?$allocator@D@2@@std@@PEAVElement@@@std@@@2@@std@@QEAA?AU?$pair@V?$_List_iterator@V?$_List_val@U?$_List_simple_types@U?$pair@$$CBV?$basic_string@DU?$char_traits@D@std@@V?$allocator@D@2@@std@@PEAVElement@@@std@@@std@@@std@@@std@@_N@1@AEBV?$basic_string@DU?$char_traits@D@std@@V?$allocator@D@2@@1@@Z
	??$_Umove@PEAD@?$vector@DV?$allocator@D@std@@@std@@IEAAPEADPEAD00@Z
	??$_Umove@PEAH@?$vector@HV?$allocator@H@std@@@std@@IEAAPEAHPEAH00@Z
	??$_Umove@PEAN@?$vector@NV?$allocator@N@std@@@std@@IEAAPEANPEAN00@Z
	??$_Umove@PEAPEAUSegment@@@?$vector@PEAUSegment@@V?$allocator@PEAUSegment@@@std@@@std@@IEAAPEAPEAUSegment@@PEAPEAU2@00@Z
	??$_Umove@PEAPEAVControl@@@?$vector@PEAVControl@@V?$allocator@PEAVControl@@@std@@@std@@IEAAPEAPEAVControl@@PEAPEAV2@00@Z
	??$_Umove@PEAPEAVCurve@@@?$vector@PEAVCurve@@V?$allocator@PEAVCurve@@@std@@@std@@IEAAPEAPEAVCurve@@PEAPEAV2@00@Z
	??$_Umove@PEAPEAVLink@@@?$vector@PEAVLink@@V?$allocator@PEAVLink@@@std@@@std@@IEAAPEAPEAVLink@@PEAPEAV2@00@Z
	??$_Umove@PEAPEAVNode@@@?$vector@PEAVNode@@V?$allocator@PEAVNode@@@std@@@std@@IEAAPEAPEAVNode@@PEAPEAV2@00@Z
	??$_Umove@PEAPEAVPattern@@@?$vector@PEAVPattern@@V?$allocator@PEAVPattern@@@std@@@std@@IEAAPEAPEAVPattern@@PEAPEAV2@00@Z
	??$_Umove@PEAV?$_List_unchecked_iterator@V?$_List_val@U?$_List_simple_types@U?$pair@$$CBV?$basic_string@DU?$char_traits@D@std@@V?$allocator@D@2@@std@@PEAVElement@@@std@@@std@@@std@@@std@@@?$vector@V?$_List_unchecked_iterator@V?$_List_val@U?$_List_simple_types@U?$pair@$$CBV?$basic_string@DU?$char_traits@D@std@@V?$allocator@D@2@@std@@PEAVElement@@@std@@@std@@@std@@@std@@U?$_Wrap_alloc@V?$allocator@V?$_List_unchecked_iterator@V?$_List_val@U?$_List_simple_types@U?$pair@$$CBV?$basic_string@DU?$char_traits@D@std@@V?$allocator@D@2@@std@@PEAVElement@@@std@@@std@@@std@@@std@@@std@@@2@@std@@IEAAPEAV?$_List_unchecked_iterator@V?$_List_val@U?$_List_simple_types@U?$pair@$$CBV?$basic_string@DU?$char_traits@D@std@@V?$allocator@D@2@@std@@PEAVElement@@@std@@@std@@@std@@@1@PEAV21@00@Z
	??$_Umove@PEAV?$basic_string@DU?$char_traits@D@std@@V?$allocator@D@2@@std@@@?$vector@V?$basic_string@DU?$char_traits@D@std@@V?$allocator@D@2@@std@@V?$allocator@V?$basic_string@DU?$char_traits@D@std@@V?$allocator@D@2@@std@@@2@@std@@IEAAPEAV?$basic_string@DU?$char_traits@D@std@@V?$allocator@D@2@@1@PEAV21@00@Z
	??$_Unchecked@PEAD@std@@YAPEADPEAD@Z
	??$_Unchecked@PEAH@std@@YAPEAHPEAH@Z
	??$_Unchecked@PEAN@std@@YAPEANPEAN@Z
	??$_Unchecked@PEAPEAUSegment@@@std@@YAPEAPEAUSegment@@PEAPEAU1@@Z
	??$_Unchecked@PEAPEAVControl@@@std@@YAPEAPEAVControl@@PEAPEAV1@@Z
	??$_Unchecked@PEAPEAVCurve@@@std@@YAPEAPEAVCurve@@PEAPEAV1@@Z
	??$_Unchecked@PEAPEAVLink@@@std@@YAPEAPEAVLink@@PEAPEAV1@@Z
	??$_Unchecked@PEAPEAVNode@@@std@@YAPEAPEAVNode@@PEAPEAV1@@Z
	??$_Unchecked@PEAPEAVPattern@@@std@@YAPEAPEAVPattern@@PEAPEAV1@@Z
	??$_Unchecked@PEAV?$_List_unchecked_iterator@V?$_List_val@U?$_List_simple_types@U?$pair@$$CBV?$basic_string@DU?$char_traits@D@std@@V?$allocator@D@2@@std@@PEAVElement@@@std@@@std@@@std@@@std@@@std@@YAPEAV?$_List_unchecked_iterator@V?$_List_val@U?$_List_simple_types@U?$pair@$$CBV?$basic_string@DU?$char_traits@D@std@@V?$allocator@D@2@@std@@PEAVElement@@@std@@@std@@@std@@@0@PEAV10@@Z
	??$_Unchecked@PEAV?$basic_string@DU?$char_traits@D@std@@V?$allocator@D@2@@std@@@std@@YAPEAV?$basic_string@DU?$char_traits@D@std@@V?$allocator@D@2@@0@PEAV10@@Z
	??$_Unfancy@$$CBD@std@@YAPEBDPEBD@Z
	??$_Unfancy@D@std@@YAPEADPEAD@Z
	??$_Unfancy@H@std@@YAPEAHPEAH@Z
	??$_Unfancy@N@std@@YAPEANPEAN@Z
	??$_Unfancy@PEAUSegment@@@std@@YAPEAPEAUSegment@@PEAPEAU1@@Z
	??$_Unfancy@PEAVControl@@@std@@YAPEAPEAVControl@@PEAPEAV1@@Z
	??$_Unfancy@PEAVCurve@@@std@@YAPEAPEAVCurve@@PEAPEAV1@@Z
	??$_Unfancy@PEAVLink@@@std@@YAPEAPEAVLink@@PEAPEAV1@@Z
	??$_Unfancy@PEAVNode@@@std@@YAPEAPEAVNode@@PEAPEAV1@@Z
	??$_Unfancy@PEAVPattern@@@std@@YAPEAPEAVPattern@@PEAPEAV1@@Z
	??$_Unfancy@U_Container_proxy@std@@@std@@YAPEAU_Container_proxy@0@PEAU10@@Z
	??$_Unfancy@V?$_List_unchecked_iterator@V?$_List_val@U?$_List_simple_types@U?$pair@$$CBV?$basic_string@DU?$char_traits@D@std@@V?$allocator@D@2@@std@@PEAVElement@@@std@@@std@@@std@@@std@@@std@@YAPEAV?$_List_unchecked_iterator@V?$_List_val@U?$_List_simple_types@U?$pair@$$CBV?$basic_string@DU?$char_traits@D@std@@V?$allocator@D@2@@std@@PEAVElement@@@std@@@std@@@std@@@0@PEAV10@@Z
	??$_Unfancy@V?$basic_string@DU?$char_traits@D@std@@V?$allocator@D@2@@std@@@std@@YAPEAV?$basic_string@DU?$char_traits@D@std@@V?$allocator@D@2@@0@PEAV10@@Z
	??$_Ungetc@D@std@@YA_NAEBDPEAU_iobuf@@@Z
	??$_Uninit_alloc_fill_n1@PEAD_KV?$allocator@D@std@@@std@@YAXPEAD_KPEBDAEAU?$_Wrap_alloc@V?$allocator@D@std@@@0@U?$integral_constant@_N$00@0@@Z
	??$_Uninit_alloc_fill_n1@PEAH_KV?$allocator@H@std@@@std@@YAXPEAH_KPEBHAEAU?$_Wrap_alloc@V?$allocator@H@std@@@0@U?$integral_constant@_N$0A@@0@@Z
	??$_Uninit_alloc_fill_n1@PEAN_KV?$allocator@N@std@@@std@@YAXPEAN_KPEBNAEAU?$_Wrap_alloc@V?$allocator@N@std@@@0@U?$integral_constant@_N$0A@@0@@Z
	??$_Uninit_alloc_fill_n1@PEAPEAUSegment@@_KV?$allocator@PEAUSegment@@@std@@@std@@YAXPEAPEAUSegment@@_KPEBQEAU1@AEAU?$_Wrap_alloc@V?$allocator@PEAUSegment@@@std@@@0@U?$integral_constant@_N$0A@@0@@Z
	??$_Uninit_alloc_fill_n1@PEAV?$_List_unchecked_iterator@V?$_List_val@U?$_List_simple_types@U?$pair@$$CBV?$basic_string@DU?$char_traits@D@std@@V?$allocator@D@2@@std@@PEAVElement@@@std@@@std@@@std@@@std@@_KU?$_Wrap_alloc@V?$allocator@V?$_List_unchecked_iterator@V?$_List_val@U?$_List_simple_types@U?$pair@$$CBV?$basic_string@DU?$char_traits@D@std@@V?$allocator@D@2@@std@@PEAVElement@@@std@@@std@@@std@@@std@@@std@@@2@@std@@YAXPEAV?$_List_unchecked_iterator@V?$_List_val@U?$_List_simple_types@U?$pair@$$CBV?$basic_string@DU?$char_traits@D@std@@V?$allocator@D@2@@std@@PEAVElement@@@std@@@std@@@std@@@0@_KPEBV10@AEAU?$_Wrap_alloc@U?$_Wrap_alloc@V?$allocator@V?$_List_unchecked_iterator@V?$_List_val@U?$_List_simple_types@U?$pair@$$CBV?$basic_string@DU?$char_traits@D@std@@V?$allocator@D@2@@std@@PEAVElement@@@std@@@std@@@std@@@std@@@std@@@std@@@0@U?$integral_constant@_N$0A@@0@@Z
	??$_Uninitialized_default_fill_n1@PEAH_KV?$allocator@H@std@@@std@@YAXPEAH_KAEAU?$_Wrap_alloc@V?$allocator@H@std@@@0@U?$integral_constant@_N$00@0@@Z
	??$_Uninitialized_default_fill_n@PEAH_KV?$allocator@H@std@@@std@@YAXPEAH_KAEAU?$_Wrap_alloc@V?$allocator@H@std@@@0@@Z
	??$_Uninitialized_fill_n@PEAD_KV?$allocator@D@std@@@std@@YAXPEAD_KPEBDAEAU?$_Wrap_alloc@V?$allocator@D@std@@@0@@Z
	??$_Uninitialized_fill_n@PEAH_KV?$allocator@H@std@@@std@@YAXPEAH_KPEBHAEAU?$_Wrap_alloc@V?$allocator@H@std@@@0@@Z
	??$_Uninitialized_fill_n@PEAN_KV?$allocator@N@std@@@std@@YAXPEAN_KPEBNAEAU?$_Wrap_alloc@V?$allocator@N@std@@@0@@Z
	??$_Uninitialized_fill_n@PEAPEAUSegment@@_KV?$allocator@PEAUSegment@@@std@@@std@@YAXPEAPEAUSegment@@_KPEBQEAU1@AEAU?$_Wrap_alloc@V?$allocator@PEAUSegment@@@std@@@0@@Z
	??$_Uninitialized_fill_n@PEAV?$_List_unchecked_iterator@V?$_List_val@U?$_List_simple_types@U?$pair@$$CBV?$basic_string@DU?$char_traits@D@std@@V?$allocator@D@2@@std@@PEAVElement@@@std@@@std@@@std@@@std@@_KU?$_Wrap_alloc@V?$allocator@V?$_List_unchecked_iterator@V?$_List_val@U?$_List_simple_types@U?$pair@$$CBV?$basic_string@DU?$char_traits@D@std@@V?$allocator@D@2@@std@@PEAVElement@@@std@@@std@@@std@@@std@@@std@@@2@@std@@YAXPEAV?$_List_unchecked_iterator@V?$_List_val@U?$_List_simple_types@U?$pair@$$CBV?$basic_string@DU?$char_traits@D@std@@V?$allocator@D@2@@std@@PEAVElement@@@std@@@std@@@std@@@0@_KPEBV10@AEAU?$_Wrap_alloc@U?$_Wrap_alloc@V?$allocator@V?$_List_unchecked_iterator@V?$_List_val@U?$_List_simple_types@U?$pair@$$CBV?$basic_string@DU?$char_traits@D@std@@V?$allocator@D@2@@std@@PEAVElement@@@std@@@std@@@std@@@std@@@std@@@std@@@0@@Z
	??$_Uninitialized_move@PEADPEADV?$allocator@D@std@@@std@@YAPEADPEAD00AEAU?$_Wrap_alloc@V?$allocator@D@std@@@0@@Z
	??$_Uninitialized_move@PEAHPEAHV?$allocator@H@std@@@std@@YAPEAHPEAH00AEAU?$_Wrap_alloc@V?$allocator@H@std@@@0@@Z
	??$_Uninitialized_move@PEANPEANV?$allocator@N@std@@@std@@YAPEANPEAN00AEAU?$_Wrap_alloc@V?$allocator@N@std@@@0@@Z
	??$_Uninitialized_move@PEAPEAUSegment@@PEAPEAU1@V?$allocator@PEAUSegment@@@std@@@std@@YAPEAPEAUSegment@@PEAPEAU1@00AEAU?$_Wrap_alloc@V?$allocator@PEAUSegment@@@std@@@0@@Z
	??$_Uninitialized_move@PEAPEAVControl@@PEAPEAV1@V?$allocator@PEAVControl@@@std@@@std@@YAPEAPEAVControl@@PEAPEAV1@00AEAU?$_Wrap_alloc@V?$allocator@PEAVControl@@@std@@@0@@Z
	??$_Uninitialized_move@PEAPEAVCurve@@PEAPEAV1@V?$allocator@PEAVCurve@@@std@@@std@@YAPEAPEAVCurve@@PEAPEAV1@00AEAU?$_Wrap_alloc@V?$allocator@PEAVCurve@@@std@@@0@@Z
	??$_Uninitialized_move@PEAPEAVLink@@PEAPEAV1@V?$allocator@PEAVLink@@@std@@@std@@YAPEAPEAVLink@@PEAPEAV1@00AEAU?$_Wrap_alloc@V?$allocator@PEAVLink@@@std@@@0@@Z
	??$_Uninitialized_move@PEAPEAVNode@@PEAPEAV1@V?$allocator@PEAVNode@@@std@@@std@@YAPEAPEAVNode@@PEAPEAV1@00AEAU?$_Wrap_alloc@V?$allocator@PEAVNode@@@std@@@0@@Z
	??$_Uninitialized_move@PEAPEAVPattern@@PEAPEAV1@V?$allocator@PEAVPattern@@@std@@@std@@YAPEAPEAVPattern@@PEAPEAV1@00AEAU?$_Wrap_alloc@V?$allocator@PEAVPattern@@@std@@@0@@Z
	??$_Uninitialized_move@PEAV?$_List_unchecked_iterator@V?$_List_val@U?$_List_simple_types@U?$pair@$$CBV?$basic_string@DU?$char_traits@D@std@@V?$allocator@D@2@@std@@PEAVElement@@@std@@@std@@@std@@@std@@PEAV12@U?$_Wrap_alloc@V?$allocator@V?$_List_unchecked_iterator@V?$_List_val@U?$_List_simple_types@U?$pair@$$CBV?$basic_string@DU?$char_traits@D@std@@V?$allocator@D@2@@std@@PEAVElement@@@std@@@std@@@std@@@std@@@std@@@2@@std@@YAPEAV?$_List_unchecked_iterator@V?$_List_val@U?$_List_simple_types@U?$pair@$$CBV?$basic_string@DU?$char_traits@D@std@@V?$allocator@D@2@@std@@PEAVElement@@@std@@@std@@@std@@@0@PEAV10@00AEAU?$_Wrap_alloc@U?$_Wrap_alloc@V?$allocator@V?$_List_unchecked_iterator@V?$_List_val@U?$_List_simple_types@U?$pair@$$CBV?$basic_string@DU?$char_traits@D@std@@V?$allocator@D@2@@std@@PEAVElement@@@std@@@std@@@std@@@std@@@std@@@std@@@0@@Z
	??$_Uninitialized_move@PEAV?$basic_string@DU?$char_traits@D@std@@V?$allocator@D@2@@std@@PEAV12@V?$allocator@V?$basic_string@DU?$char_traits@D@std@@V?$allocator@D@2@@std@@@2@@std@@YAPEAV?$basic_string@DU?$char_traits@D@std@@V?$allocator@D@2@@0@PEAV10@00AEAU?$_Wrap_alloc@V?$allocator@V?$basic_string@DU?$char_traits@D@std@@V?$allocator@D@2@@std@@@std@@@0@@Z
	??$_Uninitialized_move_al_unchecked1@DDV?$allocator@D@std@@@std@@YAPEADPEAD00AEAU?$_Wrap_alloc@V?$allocator@D@std@@@0@U_Really_trivial_ptr_iterator_tag@0@U?$integral_constant@_N$00@0@@Z
	??$_Uninitialized_move_al_unchecked1@HHV?$allocator@H@std@@@std@@YAPEAHPEAH00AEAU?$_Wrap_alloc@V?$allocator@H@std@@@0@U_Really_trivial_ptr_iterator_tag@0@U?$integral_constant@_N$00@0@@Z
	??$_Uninitialized_move_al_unchecked1@NNV?$allocator@N@std@@@std@@YAPEANPEAN00AEAU?$_Wrap_alloc@V?$allocator@N@std@@@0@U_Really_trivial_ptr_iterator_tag@0@U?$integral_constant@_N$00@0@@Z
	??$_Uninitialized_move_al_unchecked1@PEAUSegment@@PEAU1@V?$allocator@PEAUSegment@@@std@@@std@@YAPEAPEAUSegment@@PEAPEAU1@00AEAU?$_Wrap_alloc@V?$allocator@PEAUSegment@@@std@@@0@U_Really_trivial_ptr_iterator_tag@0@U?$integral_constant@_N$00@0@@Z
	??$_Uninitialized_move_al_unchecked1@PEAV?$_List_unchecked_iterator@V?$_List_val@U?$_List_simple_types@U?$pair@$$CBV?$basic_string@DU?$char_traits@D@std@@V?$allocator@D@2@@std@@PEAVElement@@@std@@@std@@@std@@@std@@PEAV12@U?$_Wrap_alloc@V?$allocator@V?$_List_unchecked_iterator@V?$_List_val@U?$_List_simple_types@U?$pair@$$CBV?$basic_string@DU?$char_traits@D@std@@V?$allocator@D@2@@std@@PEAVElement@@@std@@@std@@@std@@@std@@@std@@@2@@std@@YAPEAV?$_List_unchecked_iterator@V?$_List_val@U?$_List_simple_types@U?$pair@$$CBV?$basic_string@DU?$char_traits@D@std@@V?$allocator@D@2@@std@@PEAVElement@@@std@@@std@@@std@@@0@PEAV10@00AEAU?$_Wrap_alloc@U?$_Wrap_alloc@V?$allocator@V?$_List_unchecked_iterator@V?$_List_val@U?$_List_simple_types@U?$pair@$$CBV?$basic_string@DU?$char_traits@D@std@@V?$allocator@D@2@@std@@PEAVElement@@@std@@@std@@@std@@@std@@@std@@@std@@@0@U_General_ptr_iterator_tag@0@U_Any_tag@0@@Z
	??$_Uninitialized_move_al_unchecked1@PEAV?$basic_string@DU?$char_traits@D@std@@V?$allocator@D@2@@std@@PEAV12@V?$allocator@V?$basic_string@DU?$char_traits@D@std@@V?$allocator@D@2@@std@@@2@@std@@YAPEAV?$basic_string@DU?$char_traits@D@std@@V?$allocator@D@2@@0@PEAV10@00AEAU?$_Wrap_alloc@V?$allocator@V?$basic_string@DU?$char_traits@D@std@@V?$allocator@D@2@@std@@@std@@@0@U_General_ptr_iterator_tag@0@U_Any_tag@0@@Z
	??$_Uninitialized_move_al_unchecked1@PEAVControl@@PEAV1@V?$allocator@PEAVControl@@@std@@@std@@YAPEAPEAVControl@@PEAPEAV1@00AEAU?$_Wrap_alloc@V?$allocator@PEAVControl@@@std@@@0@U_Really_trivial_ptr_iterator_tag@0@U?$integral_constant@_N$00@0@@Z
	??$_Uninitialized_move_al_unchecked1@PEAVCurve@@PEAV1@V?$allocator@PEAVCurve@@@std@@@std@@YAPEAPEAVCurve@@PEAPEAV1@00AEAU?$_Wrap_alloc@V?$allocator@PEAVCurve@@@std@@@0@U_Really_trivial_ptr_iterator_tag@0@U?$integral_constant@_N$00@0@@Z
	??$_Uninitialized_move_al_unchecked1@PEAVLink@@PEAV1@V?$allocator@PEAVLink@@@std@@@std@@YAPEAPEAVLink@@PEAPEAV1@00AEAU?$_Wrap_alloc@V?$allocator@PEAVLink@@@std@@@0@U_Really_trivial_ptr_iterator_tag@0@U?$integral_constant@_N$00@0@@Z
	??$_Uninitialized_move_al_unchecked1@PEAVNode@@PEAV1@V?$allocator@PEAVNode@@@std@@@std@@YAPEAPEAVNode@@PEAPEAV1@00AEAU?$_Wrap_alloc@V?$allocator@PEAVNode@@@std@@@0@U_Really_trivial_ptr_iterator_tag@0@U?$integral_constant@_N$00@0@@Z
	??$_Uninitialized_move_al_unchecked1@PEAVPattern@@PEAV1@V?$allocator@PEAVPattern@@@std@@@std@@YAPEAPEAVPattern@@PEAPEAV1@00AEAU?$_Wrap_alloc@V?$allocator@PEAVPattern@@@std@@@0@U_Really_trivial_ptr_iterator_tag@0@U?$integral_constant@_N$00@0@@Z
	??$_Uninitialized_move_al_unchecked@PEADPEADV?$allocator@D@std@@@std@@YAPEADPEAD00AEAU?$_Wrap_alloc@V?$allocator@D@std@@@0@@Z
	??$_Uninitialized_move_al_unchecked@PEAHPEAHV?$allocator@H@std@@@std@@YAPEAHPEAH00AEAU?$_Wrap_alloc@V?$allocator@H@std@@@0@@Z
	??$_Uninitialized_move_al_unchecked@PEANPEANV?$allocator@N@std@@@std@@YAPEANPEAN00AEAU?$_Wrap_alloc@V?$allocator@N@std@@@0@@Z
	??$_Uninitialized_move_al_unchecked@PEAPEAUSegment@@PEAPEAU1@V?$allocator@PEAUSegment@@@std@@@std@@YAPEAPEAUSegment@@PEAPEAU1@00AEAU?$_Wrap_alloc@V?$allocator@PEAUSegment@@@std@@@0@@Z
	??$_Uninitialized_move_al_unchecked@PEAPEAVControl@@PEAPEAV1@V?$allocator@PEAVControl@@@std@@@std@@YAPEAPEAVControl@@PEAPEAV1@00AEAU?$_Wrap_alloc@V?$allocator@PEAVControl@@@std@@@0@@Z
	??$_Uninitialized_move_al_unchecked@PEAPEAVCurve@@PEAPEAV1@V?$allocator@PEAVCurve@@@std@@@std@@YAPEAPEAVCurve@@PEAPEAV1@00AEAU?$_Wrap_alloc@V?$allocator@PEAVCurve@@@std@@@0@@Z
	??$_Uninitialized_move_al_unchecked@PEAPEAVLink@@PEAPEAV1@V?$allocator@PEAVLink@@@std@@@std@@YAPEAPEAVLink@@PEAPEAV1@00AEAU?$_Wrap_alloc@V?$allocator@PEAVLink@@@std@@@0@@Z
	??$_Uninitialized_move_al_unchecked@PEAPEAVNode@@PEAPEAV1@V?$allocator@PEAVNode@@@std@@@std@@YAPEAPEAVNode@@PEAPEAV1@00AEAU?$_Wrap_alloc@V?$allocator@PEAVNode@@@std@@@0@@Z
	??$_Uninitialized_move_al_unchecked@PEAPEAVPattern@@PEAPEAV1@V?$allocator@PEAVPattern@@@std@@@std@@YAPEAPEAVPattern@@PEAPEAV1@00AEAU?$_Wrap_alloc@V?$allocator@PEAVPattern@@@std@@@0@@Z
	??$_Uninitialized_move_al_unchecked@PEAV?$_List_unchecked_iterator@V?$_List_val@U?$_List_simple_types@U?$pair@$$CBV?$basic_string@DU?$char_traits@D@std@@V?$allocator@D@2@@std@@PEAVElement@@@std@@@std@@@std@@@std@@PEAV12@U?$_Wrap_alloc@V?$allocator@V?$_List_unchecked_iterator@V?$_List_val@U?$_List_simple_types@U?$pair@$$CBV?$basic_string@DU?$char_traits@D@std@@V?$allocator@D@2@@std@@PEAVElement@@@std@@@std@@@std@@@std@@@std@@@2@@std@@YAPEAV?$_List_unchecked_iterator@V?$_List_val@U?$_List_simple_types@U?$pair@$$CBV?$basic_string@DU?$char_traits@D@std@@V?$allocator@D@2@@std@@PEAVElement@@@std@@@std@@@std@@@0@PEAV10@00AEAU?$_Wrap_alloc@U?$_Wrap_alloc@V?$allocator@V?$_List_unchecked_iterator@V?$_List_val@U?$_List_simple_types@U?$pair@$$CBV?$basic_string@DU?$char_traits@D@std@@V?$allocator@D@2@@std@@PEAVElement@@@std@@@std@@@std@@@std@@@std@@@std@@@0@@Z
	??$_Uninitialized_move_al_unchecked@PEAV?$basic_string@DU?$char_traits@D@std@@V?$allocator@D@2@@std@@PEAV12@V?$allocator@V?$basic_string@DU?$char_traits@D@std@@V?$allocator@D@2@@std@@@2@@std@@YAPEAV?$basic_string@DU?$char_traits@D@std@@V?$allocator@D@2@@0@PEAV10@00AEAU?$_Wrap_alloc@V?$allocator@V?$basic_string@DU?$char_traits@D@std@@V?$allocator@D@2@@std@@@std@@@0@@Z
	??$__vcrt_va_start_verify_argument_type@QEBD@@YAXXZ
	??$addressof@$$CBD@std@@YAPEBDAEBD@Z
	??$addressof@$$CBH@std@@YAPEBHAEBH@Z
	??$addressof@$$CBN@std@@YAPEBNAEBN@Z
	??$addressof@$$CBV?$_List_unchecked_iterator@V?$_List_val@U?$_List_simple_types@U?$pair@$$CBV?$basic_string@DU?$char_traits@D@std@@V?$allocator@D@2@@std@@PEAVElement@@@std@@@std@@@std@@@std@@@std@@YAPEBV?$_List_unchecked_iterator@V?$_List_val@U?$_List_simple_types@U?$pair@$$CBV?$basic_string@DU?$char_traits@D@std@@V?$allocator@D@2@@std@@PEAVElement@@@std@@@std@@@std@@@0@AEBV10@@Z
	??$addressof@$$CBV?$basic_string@DU?$char_traits@D@std@@V?$allocator@D@2@@std@@@std@@YAPEBV?$basic_string@DU?$char_traits@D@std@@V?$allocator@D@2@@0@AEBV10@@Z
	??$addressof@D@std@@YAPEADAEAD@Z
	??$addressof@H@std@@YAPEAHAEAH@Z
	??$addressof@N@std@@YAPEANAEAN@Z
	??$addressof@PEAD@std@@YAPEAPEADAEAPEAD@Z
	??$addressof@PEAU?$_List_node@U?$pair@$$CBV?$basic_string@DU?$char_traits@D@std@@V?$allocator@D@2@@std@@PEAVElement@@@std@@PEAX@std@@@std@@YAPEAPEAU?$_List_node@U?$pair@$$CBV?$basic_string@DU?$char_traits@D@std@@V?$allocator@D@2@@std@@PEAVElement@@@std@@PEAX@0@AEAPEAU10@@Z
	??$addressof@PEAU?$_List_node@VDemand@@PEAX@std@@@std@@YAPEAPEAU?$_List_node@VDemand@@PEAX@0@AEAPEAU10@@Z
	??$addressof@QEAUSegment@@@std@@YAPEBQEAUSegment@@AEBQEAU1@@Z
	??$addressof@QEAVControl@@@std@@YAPEBQEAVControl@@AEBQEAV1@@Z
	??$addressof@QEAVCurve@@@std@@YAPEBQEAVCurve@@AEBQEAV1@@Z
	??$addressof@QEAVLink@@@std@@YAPEBQEAVLink@@AEBQEAV1@@Z
	??$addressof@QEAVNode@@@std@@YAPEBQEAVNode@@AEBQEAV1@@Z
	??$addressof@QEAVPattern@@@std@@YAPEBQEAVPattern@@AEBQEAV1@@Z
	??$addressof@U?$pair@$$CBV?$basic_string@DU?$char_traits@D@std@@V?$allocator@D@2@@std@@PEAVElement@@@std@@@std@@YAPEAU?$pair@$$CBV?$basic_string@DU?$char_traits@D@std@@V?$allocator@D@2@@std@@PEAVElement@@@0@AEAU10@@Z
	??$addressof@U_Container_proxy@std@@@std@@YAPEAU_Container_proxy@0@AEAU10@@Z
	??$addressof@V?$_List_unchecked_iterator@V?$_List_val@U?$_List_simple_types@U?$pair@$$CBV?$basic_string@DU?$char_traits@D@std@@V?$allocator@D@2@@std@@PEAVElement@@@std@@@std@@@std@@@std@@@std@@YAPEAV?$_List_unchecked_iterator@V?$_List_val@U?$_List_simple_types@U?$pair@$$CBV?$basic_string@DU?$char_traits@D@std@@V?$allocator@D@2@@std@@PEAVElement@@@std@@@std@@@std@@@0@AEAV10@@Z
	??$addressof@VDemand@@@std@@YAPEAVDemand@@AEAV1@@Z
	??$assign@V?$_String_iterator@V?$_String_val@U?$_Simple_types@D@std@@@std@@@std@@@?$basic_string@DU?$char_traits@D@std@@V?$allocator@D@2@@std@@QEAAAEAV01@V?$_String_iterator@V?$_String_val@U?$_Simple_types@D@std@@@std@@@1@0@Z
	??$construct@HAEAH@?$_Wrap_alloc@V?$allocator@H@std@@@std@@QEAAXPEAHAEAH@Z
	??$construct@HAEAH@?$allocator@H@std@@QEAAXPEAHAEAH@Z
	??$construct@HAEAH@?$allocator_traits@V?$allocator@H@std@@@std@@SAXAEAV?$allocator@H@1@PEAHAEAH@Z
	??$construct@HAEBH@?$_Wrap_alloc@V?$allocator@H@std@@@std@@QEAAXPEAHAEBH@Z
	??$construct@HAEBH@?$allocator@H@std@@QEAAXPEAHAEBH@Z
	??$construct@HAEBH@?$allocator_traits@V?$allocator@H@std@@@std@@SAXAEAV?$allocator@H@1@PEAHAEBH@Z
	??$construct@HH@?$_Wrap_alloc@V?$allocator@H@std@@@std@@QEAAXPEAH$$QEAH@Z
	??$construct@HH@?$allocator@H@std@@QEAAXPEAH$$QEAH@Z
	??$construct@HH@?$allocator_traits@V?$allocator@H@std@@@std@@SAXAEAV?$allocator@H@1@PEAH$$QEAH@Z
	??$construct@NAEAN@?$_Wrap_alloc@V?$allocator@N@std@@@std@@QEAAXPEANAEAN@Z
	??$construct@NAEAN@?$allocator@N@std@@QEAAXPEANAEAN@Z
	??$construct@NAEAN@?$allocator_traits@V?$allocator@N@std@@@std@@SAXAEAV?$allocator@N@1@PEANAEAN@Z
	??$construct@NAEBN@?$_Wrap_alloc@V?$allocator@N@std@@@std@@QEAAXPEANAEBN@Z
	??$construct@NAEBN@?$allocator@N@std@@QEAAXPEANAEBN@Z
	??$construct@NAEBN@?$allocator_traits@V?$allocator@N@std@@@std@@SAXAEAV?$allocator@N@1@PEANAEBN@Z
	??$construct@NN@?$_Wrap_alloc@V?$allocator@N@std@@@std@@QEAAXPEAN$$QEAN@Z
	??$construct@NN@?$allocator@N@std@@QEAAXPEAN$$QEAN@Z
	??$construct@NN@?$allocator_traits@V?$allocator@N@std@@@std@@SAXAEAV?$allocator@N@1@PEAN$$QEAN@Z
	??$construct@PEADAEAPEAD@?$_Wrap_alloc@V?$allocator@D@std@@@std@@QEAAXPEAPEADAEAPEAD@Z
	??$construct@PEADAEAPEAD@?$allocator@D@std@@QEAAXPEAPEADAEAPEAD@Z
	??$construct@PEADAEAPEAD@?$allocator_traits@V?$allocator@D@std@@@std@@SAXAEAV?$allocator@D@1@PEAPEADAEAPEAD@Z
	??$construct@PEAU?$_List_node@U?$pair@$$CBV?$basic_string@DU?$char_traits@D@std@@V?$allocator@D@2@@std@@PEAVElement@@@std@@PEAX@std@@AEAPEAU12@@?$_Wrap_alloc@V?$allocator@U?$_List_node@U?$pair@$$CBV?$basic_string@DU?$char_traits@D@std@@V?$allocator@D@2@@std@@PEAVElement@@@std@@PEAX@std@@@std@@@std@@QEAAXPEAPEAU?$_List_node@U?$pair@$$CBV?$basic_string@DU?$char_traits@D@std@@V?$allocator@D@2@@std@@PEAVElement@@@std@@PEAX@1@AEAPEAU21@@Z
	??$construct@PEAU?$_List_node@U?$pair@$$CBV?$basic_string@DU?$char_traits@D@std@@V?$allocator@D@2@@std@@PEAVElement@@@std@@PEAX@std@@AEAPEAU12@@?$allocator@U?$_List_node@U?$pair@$$CBV?$basic_string@DU?$char_traits@D@std@@V?$allocator@D@2@@std@@PEAVElement@@@std@@PEAX@std@@@std@@QEAAXPEAPEAU?$_List_node@U?$pair@$$CBV?$basic_string@DU?$char_traits@D@std@@V?$allocator@D@2@@std@@PEAVElement@@@std@@PEAX@1@AEAPEAU21@@Z
	??$construct@PEAU?$_List_node@U?$pair@$$CBV?$basic_string@DU?$char_traits@D@std@@V?$allocator@D@2@@std@@PEAVElement@@@std@@PEAX@std@@AEAPEAU12@@?$allocator_traits@V?$allocator@U?$_List_node@U?$pair@$$CBV?$basic_string@DU?$char_traits@D@std@@V?$allocator@D@2@@std@@PEAVElement@@@std@@PEAX@std@@@std@@@std@@SAXAEAV?$allocator@U?$_List_node@U?$pair@$$CBV?$basic_string@DU?$char_traits@D@std@@V?$allocator@D@2@@std@@PEAVElement@@@std@@PEAX@std@@@1@PEAPEAU?$_List_node@U?$pair@$$CBV?$basic_string@DU?$char_traits@D@std@@V?$allocator@D@2@@std@@PEAVElement@@@std@@PEAX@1@AEAPEAU31@@Z
	??$construct@PEAU?$_List_node@VDemand@@PEAX@std@@AEAPEAU12@@?$_Wrap_alloc@V?$allocator@U?$_List_node@VDemand@@PEAX@std@@@std@@@std@@QEAAXPEAPEAU?$_List_node@VDemand@@PEAX@1@AEAPEAU21@@Z
	??$construct@PEAU?$_List_node@VDemand@@PEAX@std@@AEAPEAU12@@?$allocator@U?$_List_node@VDemand@@PEAX@std@@@std@@QEAAXPEAPEAU?$_List_node@VDemand@@PEAX@1@AEAPEAU21@@Z
	??$construct@PEAU?$_List_node@VDemand@@PEAX@std@@AEAPEAU12@@?$allocator_traits@V?$allocator@U?$_List_node@VDemand@@PEAX@std@@@std@@@std@@SAXAEAV?$allocator@U?$_List_node@VDemand@@PEAX@std@@@1@PEAPEAU?$_List_node@VDemand@@PEAX@1@AEAPEAU31@@Z
	??$construct@PEAUSegment@@AEBQEAU1@@?$_Wrap_alloc@V?$allocator@PEAUSegment@@@std@@@std@@QEAAXPEAPEAUSegment@@AEBQEAU2@@Z
	??$construct@PEAUSegment@@AEBQEAU1@@?$allocator@PEAUSegment@@@std@@QEAAXPEAPEAUSegment@@AEBQEAU2@@Z
	??$construct@PEAUSegment@@AEBQEAU1@@?$allocator_traits@V?$allocator@PEAUSegment@@@std@@@std@@SAXAEAV?$allocator@PEAUSegment@@@1@PEAPEAUSegment@@AEBQEAU3@@Z
	??$construct@PEAVControl@@AEAPEAV1@@?$_Wrap_alloc@V?$allocator@PEAVControl@@@std@@@std@@QEAAXPEAPEAVControl@@AEAPEAV2@@Z
	??$construct@PEAVControl@@AEAPEAV1@@?$allocator@PEAVControl@@@std@@QEAAXPEAPEAVControl@@AEAPEAV2@@Z
	??$construct@PEAVControl@@AEAPEAV1@@?$allocator_traits@V?$allocator@PEAVControl@@@std@@@std@@SAXAEAV?$allocator@PEAVControl@@@1@PEAPEAVControl@@AEAPEAV3@@Z
	??$construct@PEAVControl@@AEBQEAV1@@?$_Wrap_alloc@V?$allocator@PEAVControl@@@std@@@std@@QEAAXPEAPEAVControl@@AEBQEAV2@@Z
	??$construct@PEAVControl@@AEBQEAV1@@?$allocator@PEAVControl@@@std@@QEAAXPEAPEAVControl@@AEBQEAV2@@Z
	??$construct@PEAVControl@@AEBQEAV1@@?$allocator_traits@V?$allocator@PEAVControl@@@std@@@std@@SAXAEAV?$allocator@PEAVControl@@@1@PEAPEAVControl@@AEBQEAV3@@Z
	??$construct@PEAVCurve@@AEAPEAV1@@?$_Wrap_alloc@V?$allocator@PEAVCurve@@@std@@@std@@QEAAXPEAPEAVCurve@@AEAPEAV2@@Z
	??$construct@PEAVCurve@@AEAPEAV1@@?$allocator@PEAVCurve@@@std@@QEAAXPEAPEAVCurve@@AEAPEAV2@@Z
	??$construct@PEAVCurve@@AEAPEAV1@@?$allocator_traits@V?$allocator@PEAVCurve@@@std@@@std@@SAXAEAV?$allocator@PEAVCurve@@@1@PEAPEAVCurve@@AEAPEAV3@@Z
	??$construct@PEAVCurve@@AEBQEAV1@@?$_Wrap_alloc@V?$allocator@PEAVCurve@@@std@@@std@@QEAAXPEAPEAVCurve@@AEBQEAV2@@Z
	??$construct@PEAVCurve@@AEBQEAV1@@?$allocator@PEAVCurve@@@std@@QEAAXPEAPEAVCurve@@AEBQEAV2@@Z
	??$construct@PEAVCurve@@AEBQEAV1@@?$allocator_traits@V?$allocator@PEAVCurve@@@std@@@std@@SAXAEAV?$allocator@PEAVCurve@@@1@PEAPEAVCurve@@AEBQEAV3@@Z
	??$construct@PEAVLink@@AEAPEAV1@@?$_Wrap_alloc@V?$allocator@PEAVLink@@@std@@@std@@QEAAXPEAPEAVLink@@AEAPEAV2@@Z
	??$construct@PEAVLink@@AEAPEAV1@@?$allocator@PEAVLink@@@std@@QEAAXPEAPEAVLink@@AEAPEAV2@@Z
	??$construct@PEAVLink@@AEAPEAV1@@?$allocator_traits@V?$allocator@PEAVLink@@@std@@@std@@SAXAEAV?$allocator@PEAVLink@@@1@PEAPEAVLink@@AEAPEAV3@@Z
	??$construct@PEAVLink@@AEBQEAV1@@?$_Wrap_alloc@V?$allocator@PEAVLink@@@std@@@std@@QEAAXPEAPEAVLink@@AEBQEAV2@@Z
	??$construct@PEAVLink@@AEBQEAV1@@?$allocator@PEAVLink@@@std@@QEAAXPEAPEAVLink@@AEBQEAV2@@Z
	??$construct@PEAVLink@@AEBQEAV1@@?$allocator_traits@V?$allocator@PEAVLink@@@std@@@std@@SAXAEAV?$allocator@PEAVLink@@@1@PEAPEAVLink@@AEBQEAV3@@Z
	??$construct@PEAVNode@@AEAPEAV1@@?$_Wrap_alloc@V?$allocator@PEAVNode@@@std@@@std@@QEAAXPEAPEAVNode@@AEAPEAV2@@Z
	??$construct@PEAVNode@@AEAPEAV1@@?$allocator@PEAVNode@@@std@@QEAAXPEAPEAVNode@@AEAPEAV2@@Z
	??$construct@PEAVNode@@AEAPEAV1@@?$allocator_traits@V?$allocator@PEAVNode@@@std@@@std@@SAXAEAV?$allocator@PEAVNode@@@1@PEAPEAVNode@@AEAPEAV3@@Z
	??$construct@PEAVNode@@AEBQEAV1@@?$_Wrap_alloc@V?$allocator@PEAVNode@@@std@@@std@@QEAAXPEAPEAVNode@@AEBQEAV2@@Z
	??$construct@PEAVNode@@AEBQEAV1@@?$allocator@PEAVNode@@@std@@QEAAXPEAPEAVNode@@AEBQEAV2@@Z
	??$construct@PEAVNode@@AEBQEAV1@@?$allocator_traits@V?$allocator@PEAVNode@@@std@@@std@@SAXAEAV?$allocator@PEAVNode@@@1@PEAPEAVNode@@AEBQEAV3@@Z
	??$construct@PEAVPattern@@AEAPEAV1@@?$_Wrap_alloc@V?$allocator@PEAVPattern@@@std@@@std@@QEAAXPEAPEAVPattern@@AEAPEAV2@@Z
	??$construct@PEAVPattern@@AEAPEAV1@@?$allocator@PEAVPattern@@@std@@QEAAXPEAPEAVPattern@@AEAPEAV2@@Z
	??$construct@PEAVPattern@@AEAPEAV1@@?$allocator_traits@V?$allocator@PEAVPattern@@@std@@@std@@SAXAEAV?$allocator@PEAVPattern@@@1@PEAPEAVPattern@@AEAPEAV3@@Z
	??$construct@PEAVPattern@@AEBQEAV1@@?$_Wrap_alloc@V?$allocator@PEAVPattern@@@std@@@std@@QEAAXPEAPEAVPattern@@AEBQEAV2@@Z
	??$construct@PEAVPattern@@AEBQEAV1@@?$allocator@PEAVPattern@@@std@@QEAAXPEAPEAVPattern@@AEBQEAV2@@Z
	??$construct@PEAVPattern@@AEBQEAV1@@?$allocator_traits@V?$allocator@PEAVPattern@@@std@@@std@@SAXAEAV?$allocator@PEAVPattern@@@1@PEAPEAVPattern@@AEBQEAV3@@Z
	??$construct@U?$pair@$$CBV?$basic_string@DU?$char_traits@D@std@@V?$allocator@D@2@@std@@PEAVElement@@@std@@AEBUpiecewise_construct_t@2@V?$tuple@AEBV?$basic_string@DU?$char_traits@D@std@@V?$allocator@D@2@@std@@@2@V?$tuple@$$V@2@@?$_Wrap_alloc@V?$allocator@U?$_List_node@U?$pair@$$CBV?$basic_string@DU?$char_traits@D@std@@V?$allocator@D@2@@std@@PEAVElement@@@std@@PEAX@std@@@std@@@std@@QEAAXPEAU?$pair@$$CBV?$basic_string@DU?$char_traits@D@std@@V?$allocator@D@2@@std@@PEAVElement@@@1@AEBUpiecewise_construct_t@1@$$QEAV?$tuple@AEBV?$basic_string@DU?$char_traits@D@std@@V?$allocator@D@2@@std@@@1@$$QEAV?$tuple@$$V@1@@Z
	??$construct@U?$pair@$$CBV?$basic_string@DU?$char_traits@D@std@@V?$allocator@D@2@@std@@PEAVElement@@@std@@AEBUpiecewise_construct_t@2@V?$tuple@AEBV?$basic_string@DU?$char_traits@D@std@@V?$allocator@D@2@@std@@@2@V?$tuple@$$V@2@@?$allocator@U?$_List_node@U?$pair@$$CBV?$basic_string@DU?$char_traits@D@std@@V?$allocator@D@2@@std@@PEAVElement@@@std@@PEAX@std@@@std@@QEAAXPEAU?$pair@$$CBV?$basic_string@DU?$char_traits@D@std@@V?$allocator@D@2@@std@@PEAVElement@@@1@AEBUpiecewise_construct_t@1@$$QEAV?$tuple@AEBV?$basic_string@DU?$char_traits@D@std@@V?$allocator@D@2@@std@@@1@$$QEAV?$tuple@$$V@1@@Z
	??$construct@U?$pair@$$CBV?$basic_string@DU?$char_traits@D@std@@V?$allocator@D@2@@std@@PEAVElement@@@std@@AEBUpiecewise_construct_t@2@V?$tuple@AEBV?$basic_string@DU?$char_traits@D@std@@V?$allocator@D@2@@std@@@2@V?$tuple@$$V@2@@?$allocator_traits@V?$allocator@U?$_List_node@U?$pair@$$CBV?$basic_string@DU?$char_traits@D@std@@V?$allocator@D@2@@std@@PEAVElement@@@std@@PEAX@std@@@std@@@std@@SAXAEAV?$allocator@U?$_List_node@U?$pair@$$CBV?$basic_string@DU?$char_traits@D@std@@V?$allocator@D@2@@std@@PEAVElement@@@std@@PEAX@std@@@1@PEAU?$pair@$$CBV?$basic_string@DU?$char_traits@D@std@@V?$allocator@D@2@@std@@PEAVElement@@@1@AEBUpiecewise_construct_t@1@$$QEAV?$tuple@AEBV?$basic_string@DU?$char_traits@D@std@@V?$allocator@D@2@@std@@@1@$$QEAV?$tuple@$$V@1@@Z
	??$construct@U_Container_proxy@std@@U12@@?$_Wrap_alloc@U?$_Wrap_alloc@V?$allocator@U_Container_proxy@std@@@std@@@std@@@std@@QEAAXPEAU_Container_proxy@1@$$QEAU21@@Z
	??$construct@U_Container_proxy@std@@U12@@?$_Wrap_alloc@V?$allocator@U_Container_proxy@std@@@std@@@std@@QEAAXPEAU_Container_proxy@1@$$QEAU21@@Z
	??$construct@U_Container_proxy@std@@U12@@?$allocator@U_Container_proxy@std@@@std@@QEAAXPEAU_Container_proxy@1@$$QEAU21@@Z
	??$construct@U_Container_proxy@std@@U12@@?$allocator_traits@U?$_Wrap_alloc@V?$allocator@U_Container_proxy@std@@@std@@@std@@@std@@SAXAEAU?$_Wrap_alloc@V?$allocator@U_Container_proxy@std@@@std@@@1@PEAU_Container_proxy@1@$$QEAU31@@Z
	??$construct@U_Container_proxy@std@@U12@@?$allocator_traits@V?$allocator@U_Container_proxy@std@@@std@@@std@@SAXAEAV?$allocator@U_Container_proxy@std@@@1@PEAU_Container_proxy@1@$$QEAU31@@Z
	??$construct@V?$_List_unchecked_iterator@V?$_List_val@U?$_List_simple_types@U?$pair@$$CBV?$basic_string@DU?$char_traits@D@std@@V?$allocator@D@2@@std@@PEAVElement@@@std@@@std@@@std@@@std@@AEBV12@@?$_Wrap_alloc@U?$_Wrap_alloc@V?$allocator@V?$_List_unchecked_iterator@V?$_List_val@U?$_List_simple_types@U?$pair@$$CBV?$basic_string@DU?$char_traits@D@std@@V?$allocator@D@2@@std@@PEAVElement@@@std@@@std@@@std@@@std@@@std@@@std@@@std@@QEAAXPEAV?$_List_unchecked_iterator@V?$_List_val@U?$_List_simple_types@U?$pair@$$CBV?$basic_string@DU?$char_traits@D@std@@V?$allocator@D@2@@std@@PEAVElement@@@std@@@std@@@std@@@1@AEBV21@@Z
	??$construct@V?$_List_unchecked_iterator@V?$_List_val@U?$_List_simple_types@U?$pair@$$CBV?$basic_string@DU?$char_traits@D@std@@V?$allocator@D@2@@std@@PEAVElement@@@std@@@std@@@std@@@std@@AEBV12@@?$allocator_traits@U?$_Wrap_alloc@V?$allocator@V?$_List_unchecked_iterator@V?$_List_val@U?$_List_simple_types@U?$pair@$$CBV?$basic_string@DU?$char_traits@D@std@@V?$allocator@D@2@@std@@PEAVElement@@@std@@@std@@@std@@@std@@@std@@@std@@@std@@SAXAEAU?$_Wrap_alloc@V?$allocator@V?$_List_unchecked_iterator@V?$_List_val@U?$_List_simple_types@U?$pair@$$CBV?$basic_string@DU?$char_traits@D@std@@V?$allocator@D@2@@std@@PEAVElement@@@std@@@std@@@std@@@std@@@std@@@1@PEAV?$_List_unchecked_iterator@V?$_List_val@U?$_List_simple_types@U?$pair@$$CBV?$basic_string@DU?$char_traits@D@std@@V?$allocator@D@2@@std@@PEAVElement@@@std@@@std@@@std@@@1@AEBV31@@Z
	??$construct@V?$_List_unchecked_iterator@V?$_List_val@U?$_List_simple_types@U?$pair@$$CBV?$basic_string@DU?$char_traits@D@std@@V?$allocator@D@2@@std@@PEAVElement@@@std@@@std@@@std@@@std@@V12@@?$_Wrap_alloc@U?$_Wrap_alloc@V?$allocator@V?$_List_unchecked_iterator@V?$_List_val@U?$_List_simple_types@U?$pair@$$CBV?$basic_string@DU?$char_traits@D@std@@V?$allocator@D@2@@std@@PEAVElement@@@std@@@std@@@std@@@std@@@std@@@std@@@std@@QEAAXPEAV?$_List_unchecked_iterator@V?$_List_val@U?$_List_simple_types@U?$pair@$$CBV?$basic_string@DU?$char_traits@D@std@@V?$allocator@D@2@@std@@PEAVElement@@@std@@@std@@@std@@@1@$$QEAV21@@Z
	??$construct@V?$_List_unchecked_iterator@V?$_List_val@U?$_List_simple_types@U?$pair@$$CBV?$basic_string@DU?$char_traits@D@std@@V?$allocator@D@2@@std@@PEAVElement@@@std@@@std@@@std@@@std@@V12@@?$allocator_traits@U?$_Wrap_alloc@V?$allocator@V?$_List_unchecked_iterator@V?$_List_val@U?$_List_simple_types@U?$pair@$$CBV?$basic_string@DU?$char_traits@D@std@@V?$allocator@D@2@@std@@PEAVElement@@@std@@@std@@@std@@@std@@@std@@@std@@@std@@SAXAEAU?$_Wrap_alloc@V?$allocator@V?$_List_unchecked_iterator@V?$_List_val@U?$_List_simple_types@U?$pair@$$CBV?$basic_string@DU?$char_traits@D@std@@V?$allocator@D@2@@std@@PEAVElement@@@std@@@std@@@std@@@std@@@std@@@1@PEAV?$_List_unchecked_iterator@V?$_List_val@U?$_List_simple_types@U?$pair@$$CBV?$basic_string@DU?$char_traits@D@std@@V?$allocator@D@2@@std@@PEAVElement@@@std@@@std@@@std@@@1@$$QEAV31@@Z
	??$construct@V?$basic_string@DU?$char_traits@D@std@@V?$allocator@D@2@@std@@AEAV12@@?$_Wrap_alloc@V?$allocator@V?$basic_string@DU?$char_traits@D@std@@V?$allocator@D@2@@std@@@std@@@std@@QEAAXPEAV?$basic_string@DU?$char_traits@D@std@@V?$allocator@D@2@@1@AEAV21@@Z
	??$construct@V?$basic_string@DU?$char_traits@D@std@@V?$allocator@D@2@@std@@AEAV12@@?$allocator@V?$basic_string@DU?$char_traits@D@std@@V?$allocator@D@2@@std@@@std@@QEAAXPEAV?$basic_string@DU?$char_traits@D@std@@V?$allocator@D@2@@1@AEAV21@@Z
	??$construct@V?$basic_string@DU?$char_traits@D@std@@V?$allocator@D@2@@std@@AEAV12@@?$allocator_traits@V?$allocator@V?$basic_string@DU?$char_traits@D@std@@V?$allocator@D@2@@std@@@std@@@std@@SAXAEAV?$allocator@V?$basic_string@DU?$char_traits@D@std@@V?$allocator@D@2@@std@@@1@PEAV?$basic_string@DU?$char_traits@D@std@@V?$allocator@D@2@@1@AEAV31@@Z
	??$construct@V?$basic_string@DU?$char_traits@D@std@@V?$allocator@D@2@@std@@AEBV12@@?$_Wrap_alloc@V?$allocator@V?$basic_string@DU?$char_traits@D@std@@V?$allocator@D@2@@std@@@std@@@std@@QEAAXPEAV?$basic_string@DU?$char_traits@D@std@@V?$allocator@D@2@@1@AEBV21@@Z
	??$construct@V?$basic_string@DU?$char_traits@D@std@@V?$allocator@D@2@@std@@AEBV12@@?$allocator@V?$basic_string@DU?$char_traits@D@std@@V?$allocator@D@2@@std@@@std@@QEAAXPEAV?$basic_string@DU?$char_traits@D@std@@V?$allocator@D@2@@1@AEBV21@@Z
	??$construct@V?$basic_string@DU?$char_traits@D@std@@V?$allocator@D@2@@std@@AEBV12@@?$allocator_traits@V?$allocator@V?$basic_string@DU?$char_traits@D@std@@V?$allocator@D@2@@std@@@std@@@std@@SAXAEAV?$allocator@V?$basic_string@DU?$char_traits@D@std@@V?$allocator@D@2@@std@@@1@PEAV?$basic_string@DU?$char_traits@D@std@@V?$allocator@D@2@@1@AEBV31@@Z
	??$construct@V?$basic_string@DU?$char_traits@D@std@@V?$allocator@D@2@@std@@V12@@?$_Wrap_alloc@V?$allocator@V?$basic_string@DU?$char_traits@D@std@@V?$allocator@D@2@@std@@@std@@@std@@QEAAXPEAV?$basic_string@DU?$char_traits@D@std@@V?$allocator@D@2@@1@$$QEAV21@@Z
	??$construct@V?$basic_string@DU?$char_traits@D@std@@V?$allocator@D@2@@std@@V12@@?$allocator@V?$basic_string@DU?$char_traits@D@std@@V?$allocator@D@2@@std@@@std@@QEAAXPEAV?$basic_string@DU?$char_traits@D@std@@V?$allocator@D@2@@1@$$QEAV21@@Z
	??$construct@V?$basic_string@DU?$char_traits@D@std@@V?$allocator@D@2@@std@@V12@@?$allocator_traits@V?$allocator@V?$basic_string@DU?$char_traits@D@std@@V?$allocator@D@2@@std@@@std@@@std@@SAXAEAV?$allocator@V?$basic_string@DU?$char_traits@D@std@@V?$allocator@D@2@@std@@@1@PEAV?$basic_string@DU?$char_traits@D@std@@V?$allocator@D@2@@1@$$QEAV31@@Z
	??$construct@VDemand@@AEBV1@@?$_Wrap_alloc@V?$allocator@U?$_List_node@VDemand@@PEAX@std@@@std@@@std@@QEAAXPEAVDemand@@AEBV2@@Z
	??$construct@VDemand@@AEBV1@@?$allocator@U?$_List_node@VDemand@@PEAX@std@@@std@@QEAAXPEAVDemand@@AEBV2@@Z
	??$construct@VDemand@@AEBV1@@?$allocator_traits@V?$allocator@U?$_List_node@VDemand@@PEAX@std@@@std@@@std@@SAXAEAV?$allocator@U?$_List_node@VDemand@@PEAX@std@@@1@PEAVDemand@@AEBV3@@Z
	??$destroy@PEAD@?$_Wrap_alloc@V?$allocator@D@std@@@std@@QEAAXPEAPEAD@Z
	??$destroy@PEAD@?$allocator@D@std@@QEAAXPEAPEAD@Z
	??$destroy@PEAD@?$allocator_traits@V?$allocator@D@std@@@std@@SAXAEAV?$allocator@D@1@PEAPEAD@Z
	??$destroy@PEAU?$_List_node@U?$pair@$$CBV?$basic_string@DU?$char_traits@D@std@@V?$allocator@D@2@@std@@PEAVElement@@@std@@PEAX@std@@@?$_Wrap_alloc@V?$allocator@U?$_List_node@U?$pair@$$CBV?$basic_string@DU?$char_traits@D@std@@V?$allocator@D@2@@std@@PEAVElement@@@std@@PEAX@std@@@std@@@std@@QEAAXPEAPEAU?$_List_node@U?$pair@$$CBV?$basic_string@DU?$char_traits@D@std@@V?$allocator@D@2@@std@@PEAVElement@@@std@@PEAX@1@@Z
	??$destroy@PEAU?$_List_node@U?$pair@$$CBV?$basic_string@DU?$char_traits@D@std@@V?$allocator@D@2@@std@@PEAVElement@@@std@@PEAX@std@@@?$allocator@U?$_List_node@U?$pair@$$CBV?$basic_string@DU?$char_traits@D@std@@V?$allocator@D@2@@std@@PEAVElement@@@std@@PEAX@std@@@std@@QEAAXPEAPEAU?$_List_node@U?$pair@$$CBV?$basic_string@DU?$char_traits@D@std@@V?$allocator@D@2@@std@@PEAVElement@@@std@@PEAX@1@@Z
	??$destroy@PEAU?$_List_node@U?$pair@$$CBV?$basic_string@DU?$char_traits@D@std@@V?$allocator@D@2@@std@@PEAVElement@@@std@@PEAX@std@@@?$allocator_traits@V?$allocator@U?$_List_node@U?$pair@$$CBV?$basic_string@DU?$char_traits@D@std@@V?$allocator@D@2@@std@@PEAVElement@@@std@@PEAX@std@@@std@@@std@@SAXAEAV?$allocator@U?$_List_node@U?$pair@$$CBV?$basic_string@DU?$char_traits@D@std@@V?$allocator@D@2@@std@@PEAVElement@@@std@@PEAX@std@@@1@PEAPEAU?$_List_node@U?$pair@$$CBV?$basic_string@DU?$char_traits@D@std@@V?$allocator@D@2@@std@@PEAVElement@@@std@@PEAX@1@@Z
	??$destroy@PEAU?$_List_node@VDemand@@PEAX@std@@@?$_Wrap_alloc@V?$allocator@U?$_List_node@VDemand@@PEAX@std@@@std@@@std@@QEAAXPEAPEAU?$_List_node@VDemand@@PEAX@1@@Z
	??$destroy@PEAU?$_List_node@VDemand@@PEAX@std@@@?$allocator@U?$_List_node@VDemand@@PEAX@std@@@std@@QEAAXPEAPEAU?$_List_node@VDemand@@PEAX@1@@Z
	??$destroy@PEAU?$_List_node@VDemand@@PEAX@std@@@?$allocator_traits@V?$allocator@U?$_List_node@VDemand@@PEAX@std@@@std@@@std@@SAXAEAV?$allocator@U?$_List_node@VDemand@@PEAX@std@@@1@PEAPEAU?$_List_node@VDemand@@PEAX@1@@Z
	??$destroy@U?$pair@$$CBV?$basic_string@DU?$char_traits@D@std@@V?$allocator@D@2@@std@@PEAVElement@@@std@@@?$_Wrap_alloc@V?$allocator@U?$_List_node@U?$pair@$$CBV?$basic_string@DU?$char_traits@D@std@@V?$allocator@D@2@@std@@PEAVElement@@@std@@PEAX@std@@@std@@@std@@QEAAXPEAU?$pair@$$CBV?$basic_string@DU?$char_traits@D@std@@V?$allocator@D@2@@std@@PEAVElement@@@1@@Z
	??$destroy@U?$pair@$$CBV?$basic_string@DU?$char_traits@D@std@@V?$allocator@D@2@@std@@PEAVElement@@@std@@@?$allocator@U?$_List_node@U?$pair@$$CBV?$basic_string@DU?$char_traits@D@std@@V?$allocator@D@2@@std@@PEAVElement@@@std@@PEAX@std@@@std@@QEAAXPEAU?$pair@$$CBV?$basic_string@DU?$char_traits@D@std@@V?$allocator@D@2@@std@@PEAVElement@@@1@@Z
	??$destroy@U?$pair@$$CBV?$basic_string@DU?$char_traits@D@std@@V?$allocator@D@2@@std@@PEAVElement@@@std@@@?$allocator_traits@V?$allocator@U?$_List_node@U?$pair@$$CBV?$basic_string@DU?$char_traits@D@std@@V?$allocator@D@2@@std@@PEAVElement@@@std@@PEAX@std@@@std@@@std@@SAXAEAV?$allocator@U?$_List_node@U?$pair@$$CBV?$basic_string@DU?$char_traits@D@std@@V?$allocator@D@2@@std@@PEAVElement@@@std@@PEAX@std@@@1@PEAU?$pair@$$CBV?$basic_string@DU?$char_traits@D@std@@V?$allocator@D@2@@std@@PEAVElement@@@1@@Z
	??$destroy@U_Container_proxy@std@@@?$_Wrap_alloc@U?$_Wrap_alloc@V?$allocator@U_Container_proxy@std@@@std@@@std@@@std@@QEAAXPEAU_Container_proxy@1@@Z
	??$destroy@U_Container_proxy@std@@@?$_Wrap_alloc@V?$allocator@U_Container_proxy@std@@@std@@@std@@QEAAXPEAU_Container_proxy@1@@Z
	??$destroy@U_Container_proxy@std@@@?$allocator@U_Container_proxy@std@@@std@@QEAAXPEAU_Container_proxy@1@@Z
	??$destroy@U_Container_proxy@std@@@?$allocator_traits@U?$_Wrap_alloc@V?$allocator@U_Container_proxy@std@@@std@@@std@@@std@@SAXAEAU?$_Wrap_alloc@V?$allocator@U_Container_proxy@std@@@std@@@1@PEAU_Container_proxy@1@@Z
	??$destroy@U_Container_proxy@std@@@?$allocator_traits@V?$allocator@U_Container_proxy@std@@@std@@@std@@SAXAEAV?$allocator@U_Container_proxy@std@@@1@PEAU_Container_proxy@1@@Z
	??$destroy@V?$_List_unchecked_iterator@V?$_List_val@U?$_List_simple_types@U?$pair@$$CBV?$basic_string@DU?$char_traits@D@std@@V?$allocator@D@2@@std@@PEAVElement@@@std@@@std@@@std@@@std@@@?$_Wrap_alloc@U?$_Wrap_alloc@V?$allocator@V?$_List_unchecked_iterator@V?$_List_val@U?$_List_simple_types@U?$pair@$$CBV?$basic_string@DU?$char_traits@D@std@@V?$allocator@D@2@@std@@PEAVElement@@@std@@@std@@@std@@@std@@@std@@@std@@@std@@QEAAXPEAV?$_List_unchecked_iterator@V?$_List_val@U?$_List_simple_types@U?$pair@$$CBV?$basic_string@DU?$char_traits@D@std@@V?$allocator@D@2@@std@@PEAVElement@@@std@@@std@@@std@@@1@@Z
	??$destroy@V?$_List_unchecked_iterator@V?$_List_val@U?$_List_simple_types@U?$pair@$$CBV?$basic_string@DU?$char_traits@D@std@@V?$allocator@D@2@@std@@PEAVElement@@@std@@@std@@@std@@@std@@@?$allocator_traits@U?$_Wrap_alloc@V?$allocator@V?$_List_unchecked_iterator@V?$_List_val@U?$_List_simple_types@U?$pair@$$CBV?$basic_string@DU?$char_traits@D@std@@V?$allocator@D@2@@std@@PEAVElement@@@std@@@std@@@std@@@std@@@std@@@std@@@std@@SAXAEAU?$_Wrap_alloc@V?$allocator@V?$_List_unchecked_iterator@V?$_List_val@U?$_List_simple_types@U?$pair@$$CBV?$basic_string@DU?$char_traits@D@std@@V?$allocator@D@2@@std@@PEAVElement@@@std@@@std@@@std@@@std@@@std@@@1@PEAV?$_List_unchecked_iterator@V?$_List_val@U?$_List_simple_types@U?$pair@$$CBV?$basic_string@DU?$char_traits@D@std@@V?$allocator@D@2@@std@@PEAVElement@@@std@@@std@@@std@@@1@@Z
	??$destroy@V?$basic_string@DU?$char_traits@D@std@@V?$allocator@D@2@@std@@@?$_Wrap_alloc@V?$allocator@V?$basic_string@DU?$char_traits@D@std@@V?$allocator@D@2@@std@@@std@@@std@@QEAAXPEAV?$basic_string@DU?$char_traits@D@std@@V?$allocator@D@2@@1@@Z
	??$destroy@V?$basic_string@DU?$char_traits@D@std@@V?$allocator@D@2@@std@@@?$allocator@V?$basic_string@DU?$char_traits@D@std@@V?$allocator@D@2@@std@@@std@@QEAAXPEAV?$basic_string@DU?$char_traits@D@std@@V?$allocator@D@2@@1@@Z
	??$destroy@V?$basic_string@DU?$char_traits@D@std@@V?$allocator@D@2@@std@@@?$allocator_traits@V?$allocator@V?$basic_string@DU?$char_traits@D@std@@V?$allocator@D@2@@std@@@std@@@std@@SAXAEAV?$allocator@V?$basic_string@DU?$char_traits@D@std@@V?$allocator@D@2@@std@@@1@PEAV?$basic_string@DU?$char_traits@D@std@@V?$allocator@D@2@@1@@Z
	??$destroy@VDemand@@@?$_Wrap_alloc@V?$allocator@U?$_List_node@VDemand@@PEAX@std@@@std@@@std@@QEAAXPEAVDemand@@@Z
	??$destroy@VDemand@@@?$allocator@U?$_List_node@VDemand@@PEAX@std@@@std@@QEAAXPEAVDemand@@@Z
	??$destroy@VDemand@@@?$allocator_traits@V?$allocator@U?$_List_node@VDemand@@PEAX@std@@@std@@@std@@SAXAEAV?$allocator@U?$_List_node@VDemand@@PEAX@std@@@1@PEAVDemand@@@Z
	??$emplace@AEBUpiecewise_construct_t@std@@V?$tuple@AEBV?$basic_string@DU?$char_traits@D@std@@V?$allocator@D@2@@std@@@2@V?$tuple@$$V@2@@?$_Hash@V?$_Umap_traits@V?$basic_string@DU?$char_traits@D@std@@V?$allocator@D@2@@std@@PEAVElement@@V?$_Uhash_compare@V?$basic_string@DU?$char_traits@D@std@@V?$allocator@D@2@@std@@U?$hash@V?$basic_string@DU?$char_traits@D@std@@V?$allocator@D@2@@std@@@2@U?$equal_to@V?$basic_string@DU?$char_traits@D@std@@V?$allocator@D@2@@std@@@2@@2@V?$allocator@U?$pair@$$CBV?$basic_string@DU?$char_traits@D@std@@V?$allocator@D@2@@std@@PEAVElement@@@std@@@2@$0A@@std@@@std@@QEAA?AU?$pair@V?$_List_iterator@V?$_List_val@U?$_List_simple_types@U?$pair@$$CBV?$basic_string@DU?$char_traits@D@std@@V?$allocator@D@2@@std@@PEAVElement@@@std@@@std@@@std@@@std@@_N@1@AEBUpiecewise_construct_t@1@$$QEAV?$tuple@AEBV?$basic_string@DU?$char_traits@D@std@@V?$allocator@D@2@@std@@@1@$$QEAV?$tuple@$$V@1@@Z
	??$emplace_back@AEBV?$basic_string@DU?$char_traits@D@std@@V?$allocator@D@2@@std@@@?$vector@V?$basic_string@DU?$char_traits@D@std@@V?$allocator@D@2@@std@@V?$allocator@V?$basic_string@DU?$char_traits@D@std@@V?$allocator@D@2@@std@@@2@@std@@QEAAXAEBV?$basic_string@DU?$char_traits@D@std@@V?$allocator@D@2@@1@@Z
	??$emplace_front@AEBUpiecewise_construct_t@std@@V?$tuple@AEBV?$basic_string@DU?$char_traits@D@std@@V?$allocator@D@2@@std@@@2@V?$tuple@$$V@2@@?$list@U?$pair@$$CBV?$basic_string@DU?$char_traits@D@std@@V?$allocator@D@2@@std@@PEAVElement@@@std@@V?$allocator@U?$pair@$$CBV?$basic_string@DU?$char_traits@D@std@@V?$allocator@D@2@@std@@PEAVElement@@@std@@@2@@std@@QEAAXAEBUpiecewise_construct_t@1@$$QEAV?$tuple@AEBV?$basic_string@DU?$char_traits@D@std@@V?$allocator@D@2@@std@@@1@$$QEAV?$tuple@$$V@1@@Z
	??$endl@DU?$char_traits@D@std@@@std@@YAAEAV?$basic_ostream@DU?$char_traits@D@std@@@0@AEAV10@@Z
	??$fill@PEAV?$_List_unchecked_iterator@V?$_List_val@U?$_List_simple_types@U?$pair@$$CBV?$basic_string@DU?$char_traits@D@std@@V?$allocator@D@2@@std@@PEAVElement@@@std@@@std@@@std@@@std@@V12@@std@@YAXPEAV?$_List_unchecked_iterator@V?$_List_val@U?$_List_simple_types@U?$pair@$$CBV?$basic_string@DU?$char_traits@D@std@@V?$allocator@D@2@@std@@PEAVElement@@@std@@@std@@@std@@@0@0AEBV10@@Z
	??$forward@AEAH@std@@YAAEAHAEAH@Z
	??$forward@AEAN@std@@YAAEANAEAN@Z
	??$forward@AEAPEAD@std@@YAAEAPEADAEAPEAD@Z
	??$forward@AEAPEAU?$_List_node@U?$pair@$$CBV?$basic_string@DU?$char_traits@D@std@@V?$allocator@D@2@@std@@PEAVElement@@@std@@PEAX@std@@@std@@YAAEAPEAU?$_List_node@U?$pair@$$CBV?$basic_string@DU?$char_traits@D@std@@V?$allocator@D@2@@std@@PEAVElement@@@std@@PEAX@0@AEAPEAU10@@Z
	??$forward@AEAPEAU?$_List_node@VDemand@@PEAX@std@@@std@@YAAEAPEAU?$_List_node@VDemand@@PEAX@0@AEAPEAU10@@Z
	??$forward@AEAPEAVControl@@@std@@YAAEAPEAVControl@@AEAPEAV1@@Z
	??$forward@AEAPEAVCurve@@@std@@YAAEAPEAVCurve@@AEAPEAV1@@Z
	??$forward@AEAPEAVLink@@@std@@YAAEAPEAVLink@@AEAPEAV1@@Z
	??$forward@AEAPEAVNode@@@std@@YAAEAPEAVNode@@AEAPEAV1@@Z
	??$forward@AEAPEAVPattern@@@std@@YAAEAPEAVPattern@@AEAPEAV1@@Z
	??$forward@AEAU?$_Wrap_alloc@U?$_Wrap_alloc@V?$allocator@V?$_List_unchecked_iterator@V?$_List_val@U?$_List_simple_types@U?$pair@$$CBV?$basic_string@DU?$char_traits@D@std@@V?$allocator@D@2@@std@@PEAVElement@@@std@@@std@@@std@@@std@@@std@@@std@@@std@@@std@@YAAEAU?$_Wrap_alloc@U?$_Wrap_alloc@V?$allocator@V?$_List_unchecked_iterator@V?$_List_val@U?$_List_simple_types@U?$pair@$$CBV?$basic_string@DU?$char_traits@D@std@@V?$allocator@D@2@@std@@PEAVElement@@@std@@@std@@@std@@@std@@@std@@@std@@@0@AEAU10@@Z
	??$forward@AEAU?$_Wrap_alloc@V?$allocator@D@std@@@std@@@std@@YAAEAU?$_Wrap_alloc@V?$allocator@D@std@@@0@AEAU10@@Z
	??$forward@AEAU?$_Wrap_alloc@V?$allocator@H@std@@@std@@@std@@YAAEAU?$_Wrap_alloc@V?$allocator@H@std@@@0@AEAU10@@Z
	??$forward@AEAU?$_Wrap_alloc@V?$allocator@N@std@@@std@@@std@@YAAEAU?$_Wrap_alloc@V?$allocator@N@std@@@0@AEAU10@@Z
	??$forward@AEAU?$_Wrap_alloc@V?$allocator@PEAUSegment@@@std@@@std@@@std@@YAAEAU?$_Wrap_alloc@V?$allocator@PEAUSegment@@@std@@@0@AEAU10@@Z
	??$forward@AEAU?$_Wrap_alloc@V?$allocator@PEAVControl@@@std@@@std@@@std@@YAAEAU?$_Wrap_alloc@V?$allocator@PEAVControl@@@std@@@0@AEAU10@@Z
	??$forward@AEAU?$_Wrap_alloc@V?$allocator@PEAVCurve@@@std@@@std@@@std@@YAAEAU?$_Wrap_alloc@V?$allocator@PEAVCurve@@@std@@@0@AEAU10@@Z
	??$forward@AEAU?$_Wrap_alloc@V?$allocator@PEAVLink@@@std@@@std@@@std@@YAAEAU?$_Wrap_alloc@V?$allocator@PEAVLink@@@std@@@0@AEAU10@@Z
	??$forward@AEAU?$_Wrap_alloc@V?$allocator@PEAVNode@@@std@@@std@@@std@@YAAEAU?$_Wrap_alloc@V?$allocator@PEAVNode@@@std@@@0@AEAU10@@Z
	??$forward@AEAU?$_Wrap_alloc@V?$allocator@PEAVPattern@@@std@@@std@@@std@@YAAEAU?$_Wrap_alloc@V?$allocator@PEAVPattern@@@std@@@0@AEAU10@@Z
	??$forward@AEAU?$_Wrap_alloc@V?$allocator@U?$_List_node@U?$pair@$$CBV?$basic_string@DU?$char_traits@D@std@@V?$allocator@D@2@@std@@PEAVElement@@@std@@PEAX@std@@@std@@@std@@@std@@YAAEAU?$_Wrap_alloc@V?$allocator@U?$_List_node@U?$pair@$$CBV?$basic_string@DU?$char_traits@D@std@@V?$allocator@D@2@@std@@PEAVElement@@@std@@PEAX@std@@@std@@@0@AEAU10@@Z
	??$forward@AEAU?$_Wrap_alloc@V?$allocator@U?$_List_node@VDemand@@PEAX@std@@@std@@@std@@@std@@YAAEAU?$_Wrap_alloc@V?$allocator@U?$_List_node@VDemand@@PEAX@std@@@std@@@0@AEAU10@@Z
	??$forward@AEAU?$_Wrap_alloc@V?$allocator@V?$basic_string@DU?$char_traits@D@std@@V?$allocator@D@2@@std@@@std@@@std@@@std@@YAAEAU?$_Wrap_alloc@V?$allocator@V?$basic_string@DU?$char_traits@D@std@@V?$allocator@D@2@@std@@@std@@@0@AEAU10@@Z
	??$forward@AEAU?$equal_to@V?$basic_string@DU?$char_traits@D@std@@V?$allocator@D@2@@std@@@std@@@std@@YAAEAU?$equal_to@V?$basic_string@DU?$char_traits@D@std@@V?$allocator@D@2@@std@@@0@AEAU10@@Z
	??$forward@AEAU?$hash@V?$basic_string@DU?$char_traits@D@std@@V?$allocator@D@2@@std@@@std@@@std@@YAAEAU?$hash@V?$basic_string@DU?$char_traits@D@std@@V?$allocator@D@2@@std@@@0@AEAU10@@Z
	??$forward@AEAU?$pair@$$CBV?$basic_string@DU?$char_traits@D@std@@V?$allocator@D@2@@std@@PEAVElement@@@std@@@std@@YAAEAU?$pair@$$CBV?$basic_string@DU?$char_traits@D@std@@V?$allocator@D@2@@std@@PEAVElement@@@0@AEAU10@@Z
	??$forward@AEAV?$_List_iterator@V?$_List_val@U?$_List_simple_types@U?$pair@$$CBV?$basic_string@DU?$char_traits@D@std@@V?$allocator@D@2@@std@@PEAVElement@@@std@@@std@@@std@@@std@@@std@@YAAEAV?$_List_iterator@V?$_List_val@U?$_List_simple_types@U?$pair@$$CBV?$basic_string@DU?$char_traits@D@std@@V?$allocator@D@2@@std@@PEAVElement@@@std@@@std@@@std@@@0@AEAV10@@Z
	??$forward@AEAV?$basic_string@DU?$char_traits@D@std@@V?$allocator@D@2@@std@@@std@@YAAEAV?$basic_string@DU?$char_traits@D@std@@V?$allocator@D@2@@0@AEAV10@@Z
	??$forward@AEBH@std@@YAAEBHAEBH@Z
	??$forward@AEBN@std@@YAAEBNAEBN@Z
	??$forward@AEBQEAUSegment@@@std@@YAAEBQEAUSegment@@AEBQEAU1@@Z
	??$forward@AEBQEAVControl@@@std@@YAAEBQEAVControl@@AEBQEAV1@@Z
	??$forward@AEBQEAVCurve@@@std@@YAAEBQEAVCurve@@AEBQEAV1@@Z
	??$forward@AEBQEAVLink@@@std@@YAAEBQEAVLink@@AEBQEAV1@@Z
	??$forward@AEBQEAVNode@@@std@@YAAEBQEAVNode@@AEBQEAV1@@Z
	??$forward@AEBQEAVPattern@@@std@@YAAEBQEAVPattern@@AEBQEAV1@@Z
	??$forward@AEBU?$_Wrap_alloc@V?$allocator@V?$_List_unchecked_iterator@V?$_List_val@U?$_List_simple_types@U?$pair@$$CBV?$basic_string@DU?$char_traits@D@std@@V?$allocator@D@2@@std@@PEAVElement@@@std@@@std@@@std@@@std@@@std@@@std@@@std@@YAAEBU?$_Wrap_alloc@V?$allocator@V?$_List_unchecked_iterator@V?$_List_val@U?$_List_simple_types@U?$pair@$$CBV?$basic_string@DU?$char_traits@D@std@@V?$allocator@D@2@@std@@PEAVElement@@@std@@@std@@@std@@@std@@@std@@@0@AEBU10@@Z
	??$forward@AEBUpiecewise_construct_t@std@@@std@@YAAEBUpiecewise_construct_t@0@AEBU10@@Z
	??$forward@AEBV?$_List_unchecked_iterator@V?$_List_val@U?$_List_simple_types@U?$pair@$$CBV?$basic_string@DU?$char_traits@D@std@@V?$allocator@D@2@@std@@PEAVElement@@@std@@@std@@@std@@@std@@@std@@YAAEBV?$_List_unchecked_iterator@V?$_List_val@U?$_List_simple_types@U?$pair@$$CBV?$basic_string@DU?$char_traits@D@std@@V?$allocator@D@2@@std@@PEAVElement@@@std@@@std@@@std@@@0@AEBV10@@Z
	??$forward@AEBV?$allocator@D@std@@@std@@YAAEBV?$allocator@D@0@AEBV10@@Z
	??$forward@AEBV?$allocator@U?$pair@$$CBV?$basic_string@DU?$char_traits@D@std@@V?$allocator@D@2@@std@@PEAVElement@@@std@@@std@@@std@@YAAEBV?$allocator@U?$pair@$$CBV?$basic_string@DU?$char_traits@D@std@@V?$allocator@D@2@@std@@PEAVElement@@@std@@@0@AEBV10@@Z
	??$forward@AEBV?$basic_string@DU?$char_traits@D@std@@V?$allocator@D@2@@std@@@std@@YAAEBV?$basic_string@DU?$char_traits@D@std@@V?$allocator@D@2@@0@AEBV10@@Z
	??$forward@AEBVDemand@@@std@@YAAEBVDemand@@AEBV1@@Z
	??$forward@H@std@@YA$$QEAHAEAH@Z
	??$forward@M@std@@YA$$QEAMAEAM@Z
	??$forward@N@std@@YA$$QEANAEAN@Z
	??$forward@U?$_Wrap_alloc@V?$allocator@D@std@@@std@@@std@@YA$$QEAU?$_Wrap_alloc@V?$allocator@D@std@@@0@AEAU10@@Z
	??$forward@U?$_Wrap_alloc@V?$allocator@V?$basic_string@DU?$char_traits@D@std@@V?$allocator@D@2@@std@@@std@@@std@@@std@@YA$$QEAU?$_Wrap_alloc@V?$allocator@V?$basic_string@DU?$char_traits@D@std@@V?$allocator@D@2@@std@@@std@@@0@AEAU10@@Z
	??$forward@U_Container_proxy@std@@@std@@YA$$QEAU_Container_proxy@0@AEAU10@@Z
	??$forward@U_One_then_variadic_args_t@std@@@std@@YA$$QEAU_One_then_variadic_args_t@0@AEAU10@@Z
	??$forward@V?$_List_iterator@V?$_List_val@U?$_List_simple_types@U?$pair@$$CBV?$basic_string@DU?$char_traits@D@std@@V?$allocator@D@2@@std@@PEAVElement@@@std@@@std@@@std@@@std@@@std@@YA$$QEAV?$_List_iterator@V?$_List_val@U?$_List_simple_types@U?$pair@$$CBV?$basic_string@DU?$char_traits@D@std@@V?$allocator@D@2@@std@@PEAVElement@@@std@@@std@@@std@@@0@AEAV10@@Z
	??$forward@V?$_List_unchecked_iterator@V?$_List_val@U?$_List_simple_types@U?$pair@$$CBV?$basic_string@DU?$char_traits@D@std@@V?$allocator@D@2@@std@@PEAVElement@@@std@@@std@@@std@@@std@@@std@@YA$$QEAV?$_List_unchecked_iterator@V?$_List_val@U?$_List_simple_types@U?$pair@$$CBV?$basic_string@DU?$char_traits@D@std@@V?$allocator@D@2@@std@@PEAVElement@@@std@@@std@@@std@@@0@AEAV10@@Z
	??$forward@V?$allocator@D@std@@@std@@YA$$QEAV?$allocator@D@0@AEAV10@@Z
	??$forward@V?$basic_string@DU?$char_traits@D@std@@V?$allocator@D@2@@std@@@std@@YA$$QEAV?$basic_string@DU?$char_traits@D@std@@V?$allocator@D@2@@0@AEAV10@@Z
	??$forward@V?$tuple@$$V@std@@@std@@YA$$QEAV?$tuple@$$V@0@AEAV10@@Z
	??$forward@V?$tuple@AEBV?$basic_string@DU?$char_traits@D@std@@V?$allocator@D@2@@std@@@std@@@std@@YA$$QEAV?$tuple@AEBV?$basic_string@DU?$char_traits@D@std@@V?$allocator@D@2@@std@@@0@AEAV10@@Z
	??$forward@V?$vector@V?$basic_string@DU?$char_traits@D@std@@V?$allocator@D@2@@std@@V?$allocator@V?$basic_string@DU?$char_traits@D@std@@V?$allocator@D@2@@std@@@2@@std@@@std@@YA$$QEAV?$vector@V?$basic_string@DU?$char_traits@D@std@@V?$allocator@D@2@@std@@V?$allocator@V?$basic_string@DU?$char_traits@D@std@@V?$allocator@D@2@@std@@@2@@0@AEAV10@@Z
	??$forward@_N@std@@YA$$QEA_NAEA_N@Z
	??$forward_as_tuple@$$V@std@@YA?AV?$tuple@$$V@0@XZ
	??$forward_as_tuple@AEBV?$basic_string@DU?$char_traits@D@std@@V?$allocator@D@2@@std@@@std@@YA?AV?$tuple@AEBV?$basic_string@DU?$char_traits@D@std@@V?$allocator@D@2@@std@@@0@AEBV?$basic_string@DU?$char_traits@D@std@@V?$allocator@D@2@@0@@Z
	??$get@$0A@AEBV?$basic_string@DU?$char_traits@D@std@@V?$allocator@D@2@@std@@@std@@YAAEBV?$basic_string@DU?$char_traits@D@std@@V?$allocator@D@2@@0@$$QEAV?$tuple@AEBV?$basic_string@DU?$char_traits@D@std@@V?$allocator@D@2@@std@@@0@@Z
	??$getline@DU?$char_traits@D@std@@V?$allocator@D@2@@std@@YAAEAV?$basic_istream@DU?$char_traits@D@std@@@0@$$QEAV10@AEAV?$basic_string@DU?$char_traits@D@std@@V?$allocator@D@2@@0@D@Z
	??$getline@DU?$char_traits@D@std@@V?$allocator@D@2@@std@@YAAEAV?$basic_istream@DU?$char_traits@D@std@@@0@AEAV10@AEAV?$basic_string@DU?$char_traits@D@std@@V?$allocator@D@2@@0@D@Z
	??$max@N@std@@YAAEBNAEBN0@Z
	??$min@H@std@@YAAEBHAEBH0@Z
	??$min@N@std@@YAAEBNAEBN0@Z
	??$move@AEAU?$_Wrap_alloc@V?$allocator@D@std@@@std@@@std@@YA$$QEAU?$_Wrap_alloc@V?$allocator@D@std@@@0@AEAU10@@Z
	??$move@AEAU?$_Wrap_alloc@V?$allocator@V?$basic_string@DU?$char_traits@D@std@@V?$allocator@D@2@@std@@@std@@@std@@@std@@YA$$QEAU?$_Wrap_alloc@V?$allocator@V?$basic_string@DU?$char_traits@D@std@@V?$allocator@D@2@@std@@@std@@@0@AEAU10@@Z
	??$move@AEAV?$_List_unchecked_iterator@V?$_List_val@U?$_List_simple_types@U?$pair@$$CBV?$basic_string@DU?$char_traits@D@std@@V?$allocator@D@2@@std@@PEAVElement@@@std@@@std@@@std@@@std@@@std@@YA$$QEAV?$_List_unchecked_iterator@V?$_List_val@U?$_List_simple_types@U?$pair@$$CBV?$basic_string@DU?$char_traits@D@std@@V?$allocator@D@2@@std@@PEAVElement@@@std@@@std@@@std@@@0@AEAV10@@Z
	??$move@AEAV?$basic_istream@DU?$char_traits@D@std@@@std@@@std@@YA$$QEAV?$basic_istream@DU?$char_traits@D@std@@@0@AEAV10@@Z
	??$move@AEAV?$basic_string@DU?$char_traits@D@std@@V?$allocator@D@2@@std@@@std@@YA$$QEAV?$basic_string@DU?$char_traits@D@std@@V?$allocator@D@2@@0@AEAV10@@Z
	??$move@AEAV?$tuple@AEBV?$basic_string@DU?$char_traits@D@std@@V?$allocator@D@2@@std@@@std@@@std@@YA$$QEAV?$tuple@AEBV?$basic_string@DU?$char_traits@D@std@@V?$allocator@D@2@@std@@@0@AEAV10@@Z
	??$parseNumber@H@Utilities@@SA_NAEBV?$basic_string@DU?$char_traits@D@std@@V?$allocator@D@2@@std@@AEAH@Z
	??$parseNumber@N@Utilities@@SA_NAEBV?$basic_string@DU?$char_traits@D@std@@V?$allocator@D@2@@std@@AEAN@Z
	??$setfill@D@std@@YA?AU?$_Fillobj@D@0@D@Z
	??$to_string@N@Utilities@@SA?AV?$basic_string@DU?$char_traits@D@std@@V?$allocator@D@2@@std@@AEBN@Z
	??$try_emplace@$$V@?$unordered_map@V?$basic_string@DU?$char_traits@D@std@@V?$allocator@D@2@@std@@PEAVElement@@U?$hash@V?$basic_string@DU?$char_traits@D@std@@V?$allocator@D@2@@std@@@2@U?$equal_to@V?$basic_string@DU?$char_traits@D@std@@V?$allocator@D@2@@std@@@2@V?$allocator@U?$pair@$$CBV?$basic_string@DU?$char_traits@D@std@@V?$allocator@D@2@@std@@PEAVElement@@@std@@@2@@std@@QEAA?AU?$pair@V?$_List_iterator@V?$_List_val@U?$_List_simple_types@U?$pair@$$CBV?$basic_string@DU?$char_traits@D@std@@V?$allocator@D@2@@std@@PEAVElement@@@std@@@std@@@std@@@std@@_N@1@AEBV?$basic_string@DU?$char_traits@D@std@@V?$allocator@D@2@@1@@Z
	??$use_facet@V?$codecvt@DDU_Mbstatet@@@std@@@std@@YAAEBV?$codecvt@DDU_Mbstatet@@@0@AEBVlocale@0@@Z
	??$use_facet@V?$ctype@D@std@@@std@@YAAEBV?$ctype@D@0@AEBVlocale@0@@Z
	??0?$_Fillobj@D@std@@QEAA@D@Z
	??0?$_Hash@V?$_Umap_traits@V?$basic_string@DU?$char_traits@D@std@@V?$allocator@D@2@@std@@PEAVElement@@V?$_Uhash_compare@V?$basic_string@DU?$char_traits@D@std@@V?$allocator@D@2@@std@@U?$hash@V?$basic_string@DU?$char_traits@D@std@@V?$allocator@D@2@@std@@@2@U?$equal_to@V?$basic_string@DU?$char_traits@D@std@@V?$allocator@D@2@@std@@@2@@2@V?$allocator@U?$pair@$$CBV?$basic_string@DU?$char_traits@D@std@@V?$allocator@D@2@@std@@PEAVElement@@@std@@@2@$0A@@std@@@std@@QEAA@AEBV?$_Uhash_compare@V?$basic_string@DU?$char_traits@D@std@@V?$allocator@D@2@@std@@U?$hash@V?$basic_string@DU?$char_traits@D@std@@V?$allocator@D@2@@std@@@2@U?$equal_to@V?$basic_string@DU?$char_traits@D@std@@V?$allocator@D@2@@std@@@2@@1@AEBV?$allocator@U?$pair@$$CBV?$basic_string@DU?$char_traits@D@std@@V?$allocator@D@2@@std@@PEAVElement@@@std@@@1@@Z
	??0?$_Iterator012@Ubidirectional_iterator_tag@std@@U?$pair@$$CBV?$basic_string@DU?$char_traits@D@std@@V?$allocator@D@2@@std@@PEAVElement@@@2@_JPEBU32@AEBU32@U_Iterator_base12@2@@std@@QEAA@$$QEAU01@@Z
	??0?$_Iterator012@Ubidirectional_iterator_tag@std@@U?$pair@$$CBV?$basic_string@DU?$char_traits@D@std@@V?$allocator@D@2@@std@@PEAVElement@@@2@_JPEBU32@AEBU32@U_Iterator_base12@2@@std@@QEAA@AEBU01@@Z
	??0?$_Iterator012@Ubidirectional_iterator_tag@std@@U?$pair@$$CBV?$basic_string@DU?$char_traits@D@std@@V?$allocator@D@2@@std@@PEAVElement@@@2@_JPEBU32@AEBU32@U_Iterator_base12@2@@std@@QEAA@XZ
	??0?$_Iterator012@Ubidirectional_iterator_tag@std@@VDemand@@_JPEBV3@AEBV3@U_Iterator_base12@2@@std@@QEAA@XZ
	??0?$_Iterator012@Urandom_access_iterator_tag@std@@D_JPEBDAEBDU_Iterator_base12@2@@std@@QEAA@$$QEAU01@@Z
	??0?$_Iterator012@Urandom_access_iterator_tag@std@@D_JPEBDAEBDU_Iterator_base12@2@@std@@QEAA@AEBU01@@Z
	??0?$_Iterator012@Urandom_access_iterator_tag@std@@D_JPEBDAEBDU_Iterator_base12@2@@std@@QEAA@XZ
	??0?$_Iterator012@Urandom_access_iterator_tag@std@@PEAVControl@@_JPEBQEAV3@AEBQEAV3@U_Iterator_base12@2@@std@@QEAA@XZ
	??0?$_Iterator012@Urandom_access_iterator_tag@std@@PEAVCurve@@_JPEBQEAV3@AEBQEAV3@U_Iterator_base12@2@@std@@QEAA@XZ
	??0?$_Iterator012@Urandom_access_iterator_tag@std@@PEAVLink@@_JPEBQEAV3@AEBQEAV3@U_Iterator_base12@2@@std@@QEAA@XZ
	??0?$_Iterator012@Urandom_access_iterator_tag@std@@PEAVNode@@_JPEBQEAV3@AEBQEAV3@U_Iterator_base12@2@@std@@QEAA@XZ
	??0?$_Iterator012@Urandom_access_iterator_tag@std@@PEAVPattern@@_JPEBQEAV3@AEBQEAV3@U_Iterator_base12@2@@std@@QEAA@XZ
	??0?$_Iterator012@Urandom_access_iterator_tag@std@@V?$_List_unchecked_iterator@V?$_List_val@U?$_List_simple_types@U?$pair@$$CBV?$basic_string@DU?$char_traits@D@std@@V?$allocator@D@2@@std@@PEAVElement@@@std@@@std@@@std@@@2@_JPEBV32@AEBV32@U_Iterator_base12@2@@std@@QEAA@$$QEAU01@@Z
	??0?$_Iterator012@Urandom_access_iterator_tag@std@@V?$_List_unchecked_iterator@V?$_List_val@U?$_List_simple_types@U?$pair@$$CBV?$basic_string@DU?$char_traits@D@std@@V?$allocator@D@2@@std@@PEAVElement@@@std@@@std@@@std@@@2@_JPEBV32@AEBV32@U_Iterator_base12@2@@std@@QEAA@AEBU01@@Z
	??0?$_Iterator012@Urandom_access_iterator_tag@std@@V?$_List_unchecked_iterator@V?$_List_val@U?$_List_simple_types@U?$pair@$$CBV?$basic_string@DU?$char_traits@D@std@@V?$allocator@D@2@@std@@PEAVElement@@@std@@@std@@@std@@@2@_JPEBV32@AEBV32@U_Iterator_base12@2@@std@@QEAA@XZ
	??0?$_Iterator012@Urandom_access_iterator_tag@std@@V?$basic_string@DU?$char_traits@D@std@@V?$allocator@D@2@@2@_JPEBV32@AEBV32@U_Iterator_base12@2@@std@@QEAA@XZ
	??0?$_List_alloc@U?$_List_base_types@VDemand@@V?$allocator@VDemand@@@std@@@std@@@std@@QEAA@XZ
	??0?$_List_buy@VDemand@@V?$allocator@VDemand@@@std@@@std@@QEAA@XZ
	??0?$_List_const_iterator@V?$_List_val@U?$_List_simple_types@U?$pair@$$CBV?$basic_string@DU?$char_traits@D@std@@V?$allocator@D@2@@std@@PEAVElement@@@std@@@std@@@std@@@std@@QEAA@$$QEAV01@@Z
	??0?$_List_const_iterator@V?$_List_val@U?$_List_simple_types@U?$pair@$$CBV?$basic_string@DU?$char_traits@D@std@@V?$allocator@D@2@@std@@PEAVElement@@@std@@@std@@@std@@@std@@QEAA@AEBV01@@Z
	??0?$_List_const_iterator@V?$_List_val@U?$_List_simple_types@U?$pair@$$CBV?$basic_string@DU?$char_traits@D@std@@V?$allocator@D@2@@std@@PEAVElement@@@std@@@std@@@std@@@std@@QEAA@PEAU?$_List_node@U?$pair@$$CBV?$basic_string@DU?$char_traits@D@std@@V?$allocator@D@2@@std@@PEAVElement@@@std@@PEAX@1@PEBV?$_List_val@U?$_List_simple_types@U?$pair@$$CBV?$basic_string@DU?$char_traits@D@std@@V?$allocator@D@2@@std@@PEAVElement@@@std@@@std@@@1@@Z
	??0?$_List_const_iterator@V?$_List_val@U?$_List_simple_types@VDemand@@@std@@@std@@@std@@QEAA@PEAU?$_List_node@VDemand@@PEAX@1@PEBV?$_List_val@U?$_List_simple_types@VDemand@@@std@@@1@@Z
	??0?$_List_iterator@V?$_List_val@U?$_List_simple_types@U?$pair@$$CBV?$basic_string@DU?$char_traits@D@std@@V?$allocator@D@2@@std@@PEAVElement@@@std@@@std@@@std@@@std@@QEAA@$$QEAV01@@Z
	??0?$_List_iterator@V?$_List_val@U?$_List_simple_types@U?$pair@$$CBV?$basic_string@DU?$char_traits@D@std@@V?$allocator@D@2@@std@@PEAVElement@@@std@@@std@@@std@@@std@@QEAA@AEBV01@@Z
	??0?$_List_iterator@V?$_List_val@U?$_List_simple_types@U?$pair@$$CBV?$basic_string@DU?$char_traits@D@std@@V?$allocator@D@2@@std@@PEAVElement@@@std@@@std@@@std@@@std@@QEAA@PEAU?$_List_node@U?$pair@$$CBV?$basic_string@DU?$char_traits@D@std@@V?$allocator@D@2@@std@@PEAVElement@@@std@@PEAX@1@PEBV?$_List_val@U?$_List_simple_types@U?$pair@$$CBV?$basic_string@DU?$char_traits@D@std@@V?$allocator@D@2@@std@@PEAVElement@@@std@@@std@@@1@@Z
	??0?$_List_iterator@V?$_List_val@U?$_List_simple_types@VDemand@@@std@@@std@@@std@@QEAA@PEAU?$_List_node@VDemand@@PEAX@1@PEBV?$_List_val@U?$_List_simple_types@VDemand@@@std@@@1@@Z
	??0?$_List_unchecked_const_iterator@V?$_List_val@U?$_List_simple_types@U?$pair@$$CBV?$basic_string@DU?$char_traits@D@std@@V?$allocator@D@2@@std@@PEAVElement@@@std@@@std@@@std@@U_Iterator_base0@2@@std@@QEAA@PEAU?$_List_node@U?$pair@$$CBV?$basic_string@DU?$char_traits@D@std@@V?$allocator@D@2@@std@@PEAVElement@@@std@@PEAX@1@PEBV?$_List_val@U?$_List_simple_types@U?$pair@$$CBV?$basic_string@DU?$char_traits@D@std@@V?$allocator@D@2@@std@@PEAVElement@@@std@@@std@@@1@@Z
	??0?$_List_unchecked_const_iterator@V?$_List_val@U?$_List_simple_types@U?$pair@$$CBV?$basic_string@DU?$char_traits@D@std@@V?$allocator@D@2@@std@@PEAVElement@@@std@@@std@@@std@@U_Iterator_base0@2@@std@@QEAA@XZ
	??0?$_List_unchecked_const_iterator@V?$_List_val@U?$_List_simple_types@U?$pair@$$CBV?$basic_string@DU?$char_traits@D@std@@V?$allocator@D@2@@std@@PEAVElement@@@std@@@std@@@std@@U_Iterator_base12@2@@std@@QEAA@$$QEAV01@@Z
	??0?$_List_unchecked_const_iterator@V?$_List_val@U?$_List_simple_types@U?$pair@$$CBV?$basic_string@DU?$char_traits@D@std@@V?$allocator@D@2@@std@@PEAVElement@@@std@@@std@@@std@@U_Iterator_base12@2@@std@@QEAA@AEBV01@@Z
	??0?$_List_unchecked_const_iterator@V?$_List_val@U?$_List_simple_types@U?$pair@$$CBV?$basic_string@DU?$char_traits@D@std@@V?$allocator@D@2@@std@@PEAVElement@@@std@@@std@@@std@@U_Iterator_base12@2@@std@@QEAA@PEAU?$_List_node@U?$pair@$$CBV?$basic_string@DU?$char_traits@D@std@@V?$allocator@D@2@@std@@PEAVElement@@@std@@PEAX@1@PEBV?$_List_val@U?$_List_simple_types@U?$pair@$$CBV?$basic_string@DU?$char_traits@D@std@@V?$allocator@D@2@@std@@PEAVElement@@@std@@@std@@@1@@Z
	??0?$_List_unchecked_const_iterator@V?$_List_val@U?$_List_simple_types@VDemand@@@std@@@std@@U_Iterator_base0@2@@std@@QEAA@PEAU?$_List_node@VDemand@@PEAX@1@PEBV?$_List_val@U?$_List_simple_types@VDemand@@@std@@@1@@Z
	??0?$_List_unchecked_const_iterator@V?$_List_val@U?$_List_simple_types@VDemand@@@std@@@std@@U_Iterator_base12@2@@std@@QEAA@PEAU?$_List_node@VDemand@@PEAX@1@PEBV?$_List_val@U?$_List_simple_types@VDemand@@@std@@@1@@Z
	??0?$_List_unchecked_iterator@V?$_List_val@U?$_List_simple_types@U?$pair@$$CBV?$basic_string@DU?$char_traits@D@std@@V?$allocator@D@2@@std@@PEAVElement@@@std@@@std@@@std@@@std@@QEAA@PEAU?$_List_node@U?$pair@$$CBV?$basic_string@DU?$char_traits@D@std@@V?$allocator@D@2@@std@@PEAVElement@@@std@@PEAX@1@PEBV?$_List_val@U?$_List_simple_types@U?$pair@$$CBV?$basic_string@DU?$char_traits@D@std@@V?$allocator@D@2@@std@@PEAVElement@@@std@@@std@@@1@@Z
	??0?$_List_unchecked_iterator@V?$_List_val@U?$_List_simple_types@U?$pair@$$CBV?$basic_string@DU?$char_traits@D@std@@V?$allocator@D@2@@std@@PEAVElement@@@std@@@std@@@std@@@std@@QEAA@XZ
	??0?$_List_unchecked_iterator@V?$_List_val@U?$_List_simple_types@VDemand@@@std@@@std@@@std@@QEAA@PEAU?$_List_node@VDemand@@PEAX@1@PEBV?$_List_val@U?$_List_simple_types@VDemand@@@std@@@1@@Z
	??0?$_List_val@U?$_List_simple_types@U?$pair@$$CBV?$basic_string@DU?$char_traits@D@std@@V?$allocator@D@2@@std@@PEAVElement@@@std@@@std@@@std@@QEAA@XZ
	??0?$_List_val@U?$_List_simple_types@VDemand@@@std@@@std@@QEAA@XZ
	??0?$_String_alloc@U?$_String_base_types@DV?$allocator@D@std@@@std@@@std@@QEAA@XZ
	??0?$_String_const_iterator@V?$_String_val@U?$_Simple_types@D@std@@@std@@@std@@QEAA@$$QEAV01@@Z
	??0?$_String_const_iterator@V?$_String_val@U?$_Simple_types@D@std@@@std@@@std@@QEAA@AEBV01@@Z
	??0?$_String_const_iterator@V?$_String_val@U?$_Simple_types@D@std@@@std@@@std@@QEAA@PEBDPEBU_Container_base12@1@@Z
	??0?$_String_iterator@V?$_String_val@U?$_Simple_types@D@std@@@std@@@std@@QEAA@AEBV01@@Z
	??0?$_String_iterator@V?$_String_val@U?$_Simple_types@D@std@@@std@@@std@@QEAA@PEADPEBU_Container_base12@1@@Z
	??0?$_String_val@U?$_Simple_types@D@std@@@std@@QEAA@XZ
	??0?$_Uhash_compare@V?$basic_string@DU?$char_traits@D@std@@V?$allocator@D@2@@std@@U?$hash@V?$basic_string@DU?$char_traits@D@std@@V?$allocator@D@2@@std@@@2@U?$equal_to@V?$basic_string@DU?$char_traits@D@std@@V?$allocator@D@2@@std@@@2@@std@@QEAA@U?$hash@V?$basic_string@DU?$char_traits@D@std@@V?$allocator@D@2@@std@@@1@U?$equal_to@V?$basic_string@DU?$char_traits@D@std@@V?$allocator@D@2@@std@@@1@@Z
	??0?$_Umap_traits@V?$basic_string@DU?$char_traits@D@std@@V?$allocator@D@2@@std@@PEAVElement@@V?$_Uhash_compare@V?$basic_string@DU?$char_traits@D@std@@V?$allocator@D@2@@std@@U?$hash@V?$basic_string@DU?$char_traits@D@std@@V?$allocator@D@2@@std@@@2@U?$equal_to@V?$basic_string@DU?$char_traits@D@std@@V?$allocator@D@2@@std@@@2@@2@V?$allocator@U?$pair@$$CBV?$basic_string@DU?$char_traits@D@std@@V?$allocator@D@2@@std@@PEAVElement@@@std@@@2@$0A@@std@@QEAA@AEBV?$_Uhash_compare@V?$basic_string@DU?$char_traits@D@std@@V?$allocator@D@2@@std@@U?$hash@V?$basic_string@DU?$char_traits@D@std@@V?$allocator@D@2@@std@@@2@U?$equal_to@V?$basic_string@DU?$char_traits@D@std@@V?$allocator@D@2@@std@@@2@@1@@Z
	??0?$_Vector_alloc@U?$_Vec_base_types@DV?$allocator@D@std@@@std@@@std@@QEAA@XZ
	??0?$_Vector_alloc@U?$_Vec_base_types@HV?$allocator@H@std@@@std@@@std@@QEAA@XZ
	??0?$_Vector_alloc@U?$_Vec_base_types@NV?$allocator@N@std@@@std@@@std@@QEAA@XZ
	??0?$_Vector_alloc@U?$_Vec_base_types@PEAUSegment@@V?$allocator@PEAUSegment@@@std@@@std@@@std@@QEAA@XZ
	??0?$_Vector_alloc@U?$_Vec_base_types@PEAVControl@@V?$allocator@PEAVControl@@@std@@@std@@@std@@QEAA@XZ
	??0?$_Vector_alloc@U?$_Vec_base_types@PEAVCurve@@V?$allocator@PEAVCurve@@@std@@@std@@@std@@QEAA@XZ
	??0?$_Vector_alloc@U?$_Vec_base_types@PEAVLink@@V?$allocator@PEAVLink@@@std@@@std@@@std@@QEAA@XZ
	??0?$_Vector_alloc@U?$_Vec_base_types@PEAVNode@@V?$allocator@PEAVNode@@@std@@@std@@@std@@QEAA@XZ
	??0?$_Vector_alloc@U?$_Vec_base_types@PEAVPattern@@V?$allocator@PEAVPattern@@@std@@@std@@@std@@QEAA@XZ
	??0?$_Vector_alloc@U?$_Vec_base_types@V?$basic_string@DU?$char_traits@D@std@@V?$allocator@D@2@@std@@V?$allocator@V?$basic_string@DU?$char_traits@D@std@@V?$allocator@D@2@@std@@@2@@std@@@std@@QEAA@XZ
	??0?$_Vector_const_iterator@V?$_Vector_val@U?$_Simple_types@PEAVControl@@@std@@@std@@@std@@QEAA@PEAPEAVControl@@PEBU_Container_base12@1@@Z
	??0?$_Vector_const_iterator@V?$_Vector_val@U?$_Simple_types@PEAVCurve@@@std@@@std@@@std@@QEAA@PEAPEAVCurve@@PEBU_Container_base12@1@@Z
	??0?$_Vector_const_iterator@V?$_Vector_val@U?$_Simple_types@PEAVLink@@@std@@@std@@@std@@QEAA@PEAPEAVLink@@PEBU_Container_base12@1@@Z
	??0?$_Vector_const_iterator@V?$_Vector_val@U?$_Simple_types@PEAVNode@@@std@@@std@@@std@@QEAA@PEAPEAVNode@@PEBU_Container_base12@1@@Z
	??0?$_Vector_const_iterator@V?$_Vector_val@U?$_Simple_types@PEAVPattern@@@std@@@std@@@std@@QEAA@PEAPEAVPattern@@PEBU_Container_base12@1@@Z
	??0?$_Vector_const_iterator@V?$_Vector_val@U?$_Simple_types@V?$_List_unchecked_iterator@V?$_List_val@U?$_List_simple_types@U?$pair@$$CBV?$basic_string@DU?$char_traits@D@std@@V?$allocator@D@2@@std@@PEAVElement@@@std@@@std@@@std@@@std@@@std@@@std@@@std@@QEAA@$$QEAV01@@Z
	??0?$_Vector_const_iterator@V?$_Vector_val@U?$_Simple_types@V?$_List_unchecked_iterator@V?$_List_val@U?$_List_simple_types@U?$pair@$$CBV?$basic_string@DU?$char_traits@D@std@@V?$allocator@D@2@@std@@PEAVElement@@@std@@@std@@@std@@@std@@@std@@@std@@@std@@QEAA@AEBV01@@Z
	??0?$_Vector_const_iterator@V?$_Vector_val@U?$_Simple_types@V?$_List_unchecked_iterator@V?$_List_val@U?$_List_simple_types@U?$pair@$$CBV?$basic_string@DU?$char_traits@D@std@@V?$allocator@D@2@@std@@PEAVElement@@@std@@@std@@@std@@@std@@@std@@@std@@@std@@QEAA@PEAV?$_List_unchecked_iterator@V?$_List_val@U?$_List_simple_types@U?$pair@$$CBV?$basic_string@DU?$char_traits@D@std@@V?$allocator@D@2@@std@@PEAVElement@@@std@@@std@@@std@@@1@PEBU_Container_base12@1@@Z
	??0?$_Vector_const_iterator@V?$_Vector_val@U?$_Simple_types@V?$basic_string@DU?$char_traits@D@std@@V?$allocator@D@2@@std@@@std@@@std@@@std@@QEAA@PEAV?$basic_string@DU?$char_traits@D@std@@V?$allocator@D@2@@1@PEBU_Container_base12@1@@Z
	??0?$_Vector_iterator@V?$_Vector_val@U?$_Simple_types@PEAVControl@@@std@@@std@@@std@@QEAA@PEAPEAVControl@@PEBU_Container_base12@1@@Z
	??0?$_Vector_iterator@V?$_Vector_val@U?$_Simple_types@PEAVCurve@@@std@@@std@@@std@@QEAA@PEAPEAVCurve@@PEBU_Container_base12@1@@Z
	??0?$_Vector_iterator@V?$_Vector_val@U?$_Simple_types@PEAVLink@@@std@@@std@@@std@@QEAA@PEAPEAVLink@@PEBU_Container_base12@1@@Z
	??0?$_Vector_iterator@V?$_Vector_val@U?$_Simple_types@PEAVNode@@@std@@@std@@@std@@QEAA@PEAPEAVNode@@PEBU_Container_base12@1@@Z
	??0?$_Vector_iterator@V?$_Vector_val@U?$_Simple_types@PEAVPattern@@@std@@@std@@@std@@QEAA@PEAPEAVPattern@@PEBU_Container_base12@1@@Z
	??0?$_Vector_iterator@V?$_Vector_val@U?$_Simple_types@V?$_List_unchecked_iterator@V?$_List_val@U?$_List_simple_types@U?$pair@$$CBV?$basic_string@DU?$char_traits@D@std@@V?$allocator@D@2@@std@@PEAVElement@@@std@@@std@@@std@@@std@@@std@@@std@@@std@@QEAA@AEBV01@@Z
	??0?$_Vector_iterator@V?$_Vector_val@U?$_Simple_types@V?$_List_unchecked_iterator@V?$_List_val@U?$_List_simple_types@U?$pair@$$CBV?$basic_string@DU?$char_traits@D@std@@V?$allocator@D@2@@std@@PEAVElement@@@std@@@std@@@std@@@std@@@std@@@std@@@std@@QEAA@PEAV?$_List_unchecked_iterator@V?$_List_val@U?$_List_simple_types@U?$pair@$$CBV?$basic_string@DU?$char_traits@D@std@@V?$allocator@D@2@@std@@PEAVElement@@@std@@@std@@@std@@@1@PEBU_Container_base12@1@@Z
	??0?$_Vector_iterator@V?$_Vector_val@U?$_Simple_types@V?$basic_string@DU?$char_traits@D@std@@V?$allocator@D@2@@std@@@std@@@std@@@std@@QEAA@PEAV?$basic_string@DU?$char_traits@D@std@@V?$allocator@D@2@@1@PEBU_Container_base12@1@@Z
	??0?$_Vector_val@U?$_Simple_types@D@std@@@std@@QEAA@XZ
	??0?$_Vector_val@U?$_Simple_types@H@std@@@std@@QEAA@XZ
	??0?$_Vector_val@U?$_Simple_types@N@std@@@std@@QEAA@XZ
	??0?$_Vector_val@U?$_Simple_types@PEAUSegment@@@std@@@std@@QEAA@XZ
	??0?$_Vector_val@U?$_Simple_types@PEAVControl@@@std@@@std@@QEAA@XZ
	??0?$_Vector_val@U?$_Simple_types@PEAVCurve@@@std@@@std@@QEAA@XZ
	??0?$_Vector_val@U?$_Simple_types@PEAVLink@@@std@@@std@@QEAA@XZ
	??0?$_Vector_val@U?$_Simple_types@PEAVNode@@@std@@@std@@QEAA@XZ
	??0?$_Vector_val@U?$_Simple_types@PEAVPattern@@@std@@@std@@QEAA@XZ
	??0?$_Vector_val@U?$_Simple_types@V?$_List_unchecked_iterator@V?$_List_val@U?$_List_simple_types@U?$pair@$$CBV?$basic_string@DU?$char_traits@D@std@@V?$allocator@D@2@@std@@PEAVElement@@@std@@@std@@@std@@@std@@@std@@@std@@QEAA@XZ
	??0?$_Vector_val@U?$_Simple_types@V?$basic_string@DU?$char_traits@D@std@@V?$allocator@D@2@@std@@@std@@@std@@QEAA@XZ
	??0?$_Wrap_alloc@V?$allocator@D@std@@@std@@QEAA@$$QEAU01@@Z
	??0?$_Wrap_alloc@V?$allocator@D@std@@@std@@QEAA@XZ
	??0?$_Wrap_alloc@V?$allocator@H@std@@@std@@QEAA@XZ
	??0?$_Wrap_alloc@V?$allocator@N@std@@@std@@QEAA@XZ
	??0?$_Wrap_alloc@V?$allocator@PEAUSegment@@@std@@@std@@QEAA@XZ
	??0?$_Wrap_alloc@V?$allocator@PEAVControl@@@std@@@std@@QEAA@XZ
	??0?$_Wrap_alloc@V?$allocator@PEAVCurve@@@std@@@std@@QEAA@XZ
	??0?$_Wrap_alloc@V?$allocator@PEAVLink@@@std@@@std@@QEAA@XZ
	??0?$_Wrap_alloc@V?$allocator@PEAVNode@@@std@@@std@@QEAA@XZ
	??0?$_Wrap_alloc@V?$allocator@PEAVPattern@@@std@@@std@@QEAA@XZ
	??0?$_Wrap_alloc@V?$allocator@U?$_List_node@VDemand@@PEAX@std@@@std@@@std@@QEAA@XZ
	??0?$_Wrap_alloc@V?$allocator@V?$_List_unchecked_iterator@V?$_List_val@U?$_List_simple_types@U?$pair@$$CBV?$basic_string@DU?$char_traits@D@std@@V?$allocator@D@2@@std@@PEAVElement@@@std@@@std@@@std@@@std@@@std@@@std@@QEAA@AEBU01@@Z
	??0?$_Wrap_alloc@V?$allocator@V?$basic_string@DU?$char_traits@D@std@@V?$allocator@D@2@@std@@@std@@@std@@QEAA@$$QEAU01@@Z
	??0?$_Wrap_alloc@V?$allocator@V?$basic_string@DU?$char_traits@D@std@@V?$allocator@D@2@@std@@@std@@@std@@QEAA@XZ
	??0?$allocator@D@std@@QEAA@AEBV01@@Z
	??0?$allocator@D@std@@QEAA@XZ
	??0?$allocator@H@std@@QEAA@XZ
	??0?$allocator@N@std@@QEAA@XZ
	??0?$allocator@PEAUSegment@@@std@@QEAA@XZ
	??0?$allocator@PEAVControl@@@std@@QEAA@XZ
	??0?$allocator@PEAVCurve@@@std@@QEAA@XZ
	??0?$allocator@PEAVLink@@@std@@QEAA@XZ
	??0?$allocator@PEAVNode@@@std@@QEAA@XZ
	??0?$allocator@PEAVPattern@@@std@@QEAA@XZ
	??0?$allocator@U?$_List_node@VDemand@@PEAX@std@@@std@@QEAA@XZ
	??0?$allocator@U?$pair@$$CBV?$basic_string@DU?$char_traits@D@std@@V?$allocator@D@2@@std@@PEAVElement@@@std@@@std@@QEAA@XZ
	??0?$allocator@V?$_List_unchecked_iterator@V?$_List_val@U?$_List_simple_types@U?$pair@$$CBV?$basic_string@DU?$char_traits@D@std@@V?$allocator@D@2@@std@@PEAVElement@@@std@@@std@@@std@@@std@@@std@@QEAA@AEBV01@@Z
	??0?$allocator@V?$basic_string@DU?$char_traits@D@std@@V?$allocator@D@2@@std@@@std@@QEAA@AEBV01@@Z
	??0?$allocator@V?$basic_string@DU?$char_traits@D@std@@V?$allocator@D@2@@std@@@std@@QEAA@XZ
	??0?$basic_filebuf@DU?$char_traits@D@std@@@std@@QEAA@PEAU_iobuf@@@Z
	??0?$basic_fstream@DU?$char_traits@D@std@@@std@@QEAA@XZ
	??0?$basic_ifstream@DU?$char_traits@D@std@@@std@@QEAA@PEBDHH@Z
	??0?$basic_ifstream@DU?$char_traits@D@std@@@std@@QEAA@XZ
	??0?$basic_istringstream@DU?$char_traits@D@std@@V?$allocator@D@2@@std@@QEAA@AEBV?$basic_string@DU?$char_traits@D@std@@V?$allocator@D@2@@1@H@Z
	??0?$basic_istringstream@DU?$char_traits@D@std@@V?$allocator@D@2@@std@@QEAA@H@Z
	??0?$basic_ofstream@DU?$char_traits@D@std@@@std@@QEAA@XZ
	??0?$basic_ostringstream@DU?$char_traits@D@std@@V?$allocator@D@2@@std@@QEAA@H@Z
	??0?$basic_string@DU?$char_traits@D@std@@V?$allocator@D@2@@std@@QEAA@$$QEAV01@@Z
	??0?$basic_string@DU?$char_traits@D@std@@V?$allocator@D@2@@std@@QEAA@AEBV01@@Z
	??0?$basic_string@DU?$char_traits@D@std@@V?$allocator@D@2@@std@@QEAA@AEBV01@_K1AEBV?$allocator@D@1@@Z
	??0?$basic_string@DU?$char_traits@D@std@@V?$allocator@D@2@@std@@QEAA@PEBD@Z
	??0?$basic_string@DU?$char_traits@D@std@@V?$allocator@D@2@@std@@QEAA@PEBD_K@Z
	??0?$basic_string@DU?$char_traits@D@std@@V?$allocator@D@2@@std@@QEAA@XZ
	??0?$basic_string@DU?$char_traits@D@std@@V?$allocator@D@2@@std@@QEAA@_KD@Z
	??0?$basic_stringbuf@DU?$char_traits@D@std@@V?$allocator@D@2@@std@@QEAA@AEBV?$basic_string@DU?$char_traits@D@std@@V?$allocator@D@2@@1@H@Z
	??0?$basic_stringbuf@DU?$char_traits@D@std@@V?$allocator@D@2@@std@@QEAA@H@Z
	??0?$basic_stringstream@DU?$char_traits@D@std@@V?$allocator@D@2@@std@@QEAA@H@Z
	??0?$fpos@U_Mbstatet@@@std@@QEAA@U_Mbstatet@@_J@Z
	??0?$fpos@U_Mbstatet@@@std@@QEAA@_J@Z
	??0?$istream_iterator@V?$basic_string@DU?$char_traits@D@std@@V?$allocator@D@2@@std@@DU?$char_traits@D@2@_J@std@@QEAA@AEAV?$basic_istream@DU?$char_traits@D@std@@@1@@Z
	??0?$istream_iterator@V?$basic_string@DU?$char_traits@D@std@@V?$allocator@D@2@@std@@DU?$char_traits@D@2@_J@std@@QEAA@AEBV01@@Z
	??0?$istream_iterator@V?$basic_string@DU?$char_traits@D@std@@V?$allocator@D@2@@std@@DU?$char_traits@D@2@_J@std@@QEAA@XZ
	??0?$list@U?$pair@$$CBV?$basic_string@DU?$char_traits@D@std@@V?$allocator@D@2@@std@@PEAVElement@@@std@@V?$allocator@U?$pair@$$CBV?$basic_string@DU?$char_traits@D@std@@V?$allocator@D@2@@std@@PEAVElement@@@std@@@2@@std@@QEAA@AEBV?$allocator@U?$pair@$$CBV?$basic_string@DU?$char_traits@D@std@@V?$allocator@D@2@@std@@PEAVElement@@@std@@@1@@Z
	??0?$list@VDemand@@V?$allocator@VDemand@@@std@@@std@@QEAA@XZ
	??0?$tuple@$$V@std@@QEAA@AEBV01@@Z
	??0?$tuple@$$V@std@@QEAA@XZ
	??0?$tuple@AEBV?$basic_string@DU?$char_traits@D@std@@V?$allocator@D@2@@std@@@std@@QEAA@$$QEAV01@@Z
	??0?$unordered_map@V?$basic_string@DU?$char_traits@D@std@@V?$allocator@D@2@@std@@PEAVElement@@U?$hash@V?$basic_string@DU?$char_traits@D@std@@V?$allocator@D@2@@std@@@2@U?$equal_to@V?$basic_string@DU?$char_traits@D@std@@V?$allocator@D@2@@std@@@2@V?$allocator@U?$pair@$$CBV?$basic_string@DU?$char_traits@D@std@@V?$allocator@D@2@@std@@PEAVElement@@@std@@@2@@std@@QEAA@XZ
	??0?$vector@DV?$allocator@D@std@@@std@@QEAA@XZ
	??0?$vector@DV?$allocator@D@std@@@std@@QEAA@_KAEBD@Z
	??0?$vector@HV?$allocator@H@std@@@std@@QEAA@XZ
	??0?$vector@HV?$allocator@H@std@@@std@@QEAA@_K@Z
	??0?$vector@HV?$allocator@H@std@@@std@@QEAA@_KAEBH@Z
	??0?$vector@NV?$allocator@N@std@@@std@@QEAA@XZ
	??0?$vector@PEAUSegment@@V?$allocator@PEAUSegment@@@std@@@std@@QEAA@XZ
	??0?$vector@PEAVControl@@V?$allocator@PEAVControl@@@std@@@std@@QEAA@XZ
	??0?$vector@PEAVCurve@@V?$allocator@PEAVCurve@@@std@@@std@@QEAA@XZ
	??0?$vector@PEAVLink@@V?$allocator@PEAVLink@@@std@@@std@@QEAA@XZ
	??0?$vector@PEAVNode@@V?$allocator@PEAVNode@@@std@@@std@@QEAA@XZ
	??0?$vector@PEAVPattern@@V?$allocator@PEAVPattern@@@std@@@std@@QEAA@XZ
	??0?$vector@V?$_List_unchecked_iterator@V?$_List_val@U?$_List_simple_types@U?$pair@$$CBV?$basic_string@DU?$char_traits@D@std@@V?$allocator@D@2@@std@@PEAVElement@@@std@@@std@@@std@@@std@@U?$_Wrap_alloc@V?$allocator@V?$_List_unchecked_iterator@V?$_List_val@U?$_List_simple_types@U?$pair@$$CBV?$basic_string@DU?$char_traits@D@std@@V?$allocator@D@2@@std@@PEAVElement@@@std@@@std@@@std@@@std@@@std@@@2@@std@@QEAA@AEBU?$_Wrap_alloc@V?$allocator@V?$_List_unchecked_iterator@V?$_List_val@U?$_List_simple_types@U?$pair@$$CBV?$basic_string@DU?$char_traits@D@std@@V?$allocator@D@2@@std@@PEAVElement@@@std@@@std@@@std@@@std@@@std@@@1@@Z
	??0?$vector@V?$basic_string@DU?$char_traits@D@std@@V?$allocator@D@2@@std@@V?$allocator@V?$basic_string@DU?$char_traits@D@std@@V?$allocator@D@2@@std@@@2@@std@@QEAA@$$QEAV01@@Z
	??0?$vector@V?$basic_string@DU?$char_traits@D@std@@V?$allocator@D@2@@std@@V?$allocator@V?$basic_string@DU?$char_traits@D@std@@V?$allocator@D@2@@std@@@2@@std@@QEAA@XZ
	??0AgeModel@@QEAA@XZ
	??0CM_HeadLossModel@@QEAA@N@Z
	??0ChemModel@@QEAA@XZ
	??0ConstrainedDemandModel@@QEAA@XZ
	??0Control@@QEAA@HV?$basic_string@DU?$char_traits@D@std@@V?$allocator@D@2@@std@@@Z
	??0ControlParser@@QEAA@XZ
	??0Curve@@QEAA@V?$basic_string@DU?$char_traits@D@std@@V?$allocator@D@2@@std@@@Z
	??0CurveParser@@QEAA@XZ
	??0DW_HeadLossModel@@QEAA@N@Z
	??0Demand@@QEAA@XZ
	??0DemandModel@@QEAA@N@Z
	??0DemandModel@@QEAA@XZ
	??0ENerror@@QEAA@AEBV0@@Z
	??0ENerror@@QEAA@XZ
	??0Element@@QEAA@V?$basic_string@DU?$char_traits@D@std@@V?$allocator@D@2@@std@@@Z
	??0Emitter@@QEAA@XZ
	??0FavadLeakageModel@@QEAA@N@Z
	??0Field@@QEAA@XZ
	??0FileError@@QEAA@AEBV0@@Z
	??0FileError@@QEAA@H@Z
	??0FixedDemandModel@@QEAA@XZ
	??0FixedPattern@@QEAA@V?$basic_string@DU?$char_traits@D@std@@V?$allocator@D@2@@std@@@Z
	??0GGASolver@@QEAA@PEAVNetwork@@PEAVMatrixSolver@@@Z
	??0Graph@@QEAA@XZ
	??0HW_HeadLossModel@@QEAA@N@Z
	??0HeadLossModel@@QEAA@N@Z
	??0HydEngine@@QEAA@XZ
	??0HydSolver@@QEAA@PEAVNetwork@@PEAVMatrixSolver@@@Z
	??0InputError@@QEAA@AEBV0@@Z
	??0InputError@@QEAA@HV?$basic_string@DU?$char_traits@D@std@@V?$allocator@D@2@@std@@@Z
	??0InputParser@@QEAA@PEAVNetwork@@@Z
	??0InputReader@@QEAA@XZ
	??0Junction@@QEAA@V?$basic_string@DU?$char_traits@D@std@@V?$allocator@D@2@@std@@@Z
	??0LTDSolver@@QEAA@PEAVNetwork@@@Z
	??0LeakageModel@@QEAA@XZ
	??0Link@@QEAA@V?$basic_string@DU?$char_traits@D@std@@V?$allocator@D@2@@std@@@Z
	??0LinkParser@@QEAA@XZ
	??0LogisticDemandModel@@QEAA@N@Z
	??0MatrixSolver@@QEAA@XZ
	??0MemPool@@QEAA@XZ
	??0Network@@QEAA@XZ
	??0NetworkError@@QEAA@AEBV0@@Z
	??0NetworkError@@QEAA@HV?$basic_string@DU?$char_traits@D@std@@V?$allocator@D@2@@std@@@Z
	??0Node@@QEAA@V?$basic_string@DU?$char_traits@D@std@@V?$allocator@D@2@@std@@@Z
	??0NodeParser@@QEAA@XZ
	??0ObjectParser@@QEAA@PEAVNetwork@@@Z
	??0OptionParser@@QEAA@XZ
	??0Options@@QEAA@XZ
	??0OutputFile@@QEAA@XZ
	??0Pattern@@QEAA@V?$basic_string@DU?$char_traits@D@std@@V?$allocator@D@2@@std@@H@Z
	??0PatternParser@@QEAA@XZ
	??0Pipe@@QEAA@V?$basic_string@DU?$char_traits@D@std@@V?$allocator@D@2@@std@@@Z
	??0PowerDemandModel@@QEAA@N@Z
	??0PowerLeakageModel@@QEAA@NN@Z
	??0Project@Epanet@@QEAA@XZ
	??0ProjectWriter@@QEAA@XZ
	??0PropertyParser@@QEAA@PEAVNetwork@@@Z
	??0Pump@@QEAA@V?$basic_string@DU?$char_traits@D@std@@V?$allocator@D@2@@std@@@Z
	??0PumpCurve@@QEAA@XZ
	??0PumpEnergy@@QEAA@XZ
	??0QualEngine@@QEAA@XZ
	??0QualModel@@QEAA@H@Z
	??0QualSolver@@QEAA@PEAVNetwork@@@Z
	??0QualSource@@QEAA@XZ
	??0ReportFields@@QEAA@XZ
	??0ReportWriter@@QEAA@AEAV?$basic_ofstream@DU?$char_traits@D@std@@@std@@PEAVNetwork@@@Z
	??0Reservoir@@QEAA@V?$basic_string@DU?$char_traits@D@std@@V?$allocator@D@2@@std@@@Z
	??0SegPool@@QEAA@XZ
	??0SparspakSolver@@QEAA@AEAV?$basic_ostream@DU?$char_traits@D@std@@@std@@@Z
	??0SystemError@@QEAA@AEBV0@@Z
	??0SystemError@@QEAA@H@Z
	??0Tank@@QEAA@V?$basic_string@DU?$char_traits@D@std@@V?$allocator@D@2@@std@@@Z
	??0TankMixModel@@QEAA@XZ
	??0TraceModel@@QEAA@XZ
	??0Units@@QEAA@XZ
	??0Valve@@QEAA@V?$basic_string@DU?$char_traits@D@std@@V?$allocator@D@2@@std@@@Z
	??0VariablePattern@@QEAA@V?$basic_string@DU?$char_traits@D@std@@V?$allocator@D@2@@std@@@Z
	??0_Bxty@?$_String_val@U?$_Simple_types@D@std@@@std@@QEAA@XZ
	??0_Container_base12@std@@QEAA@XZ
	??0_Container_proxy@std@@QEAA@XZ
	??0_Iterator_base12@std@@QEAA@AEBU01@@Z
	??0_Iterator_base12@std@@QEAA@XZ
	??0_Sentry_base@?$basic_istream@DU?$char_traits@D@std@@@std@@QEAA@AEAV12@@Z
	??0_Sentry_base@?$basic_ostream@DU?$char_traits@D@std@@@std@@QEAA@AEAV12@@Z
	??0bad_cast@std@@QEAA@AEBV01@@Z
	??0bad_cast@std@@QEAA@XZ
	??0exception@std@@QEAA@AEBV01@@Z
	??0exception@std@@QEAA@QEBDH@Z
	??0sentry@?$basic_istream@DU?$char_traits@D@std@@@std@@QEAA@AEAV12@_N@Z
	??0sentry@?$basic_ostream@DU?$char_traits@D@std@@@std@@QEAA@AEAV12@@Z
	??1?$_Compressed_pair@U?$_Wrap_alloc@U?$_Wrap_alloc@V?$allocator@V?$_List_unchecked_iterator@V?$_List_val@U?$_List_simple_types@U?$pair@$$CBV?$basic_string@DU?$char_traits@D@std@@V?$allocator@D@2@@std@@PEAVElement@@@std@@@std@@@std@@@std@@@std@@@std@@@std@@V?$_Vector_val@U?$_Simple_types@V?$_List_unchecked_iterator@V?$_List_val@U?$_List_simple_types@U?$pair@$$CBV?$basic_string@DU?$char_traits@D@std@@V?$allocator@D@2@@std@@PEAVElement@@@std@@@std@@@std@@@std@@@std@@@2@$00@std@@QEAA@XZ
	??1?$_Compressed_pair@U?$_Wrap_alloc@V?$allocator@D@std@@@std@@V?$_String_val@U?$_Simple_types@D@std@@@2@$00@std@@QEAA@XZ
	??1?$_Compressed_pair@U?$_Wrap_alloc@V?$allocator@D@std@@@std@@V?$_Vector_val@U?$_Simple_types@D@std@@@2@$00@std@@QEAA@XZ
	??1?$_Compressed_pair@U?$_Wrap_alloc@V?$allocator@H@std@@@std@@V?$_Vector_val@U?$_Simple_types@H@std@@@2@$00@std@@QEAA@XZ
	??1?$_Compressed_pair@U?$_Wrap_alloc@V?$allocator@N@std@@@std@@V?$_Vector_val@U?$_Simple_types@N@std@@@2@$00@std@@QEAA@XZ
	??1?$_Compressed_pair@U?$_Wrap_alloc@V?$allocator@PEAUSegment@@@std@@@std@@V?$_Vector_val@U?$_Simple_types@PEAUSegment@@@std@@@2@$00@std@@QEAA@XZ
	??1?$_Compressed_pair@U?$_Wrap_alloc@V?$allocator@PEAVControl@@@std@@@std@@V?$_Vector_val@U?$_Simple_types@PEAVControl@@@std@@@2@$00@std@@QEAA@XZ
	??1?$_Compressed_pair@U?$_Wrap_alloc@V?$allocator@PEAVCurve@@@std@@@std@@V?$_Vector_val@U?$_Simple_types@PEAVCurve@@@std@@@2@$00@std@@QEAA@XZ
	??1?$_Compressed_pair@U?$_Wrap_alloc@V?$allocator@PEAVLink@@@std@@@std@@V?$_Vector_val@U?$_Simple_types@PEAVLink@@@std@@@2@$00@std@@QEAA@XZ
	??1?$_Compressed_pair@U?$_Wrap_alloc@V?$allocator@PEAVNode@@@std@@@std@@V?$_Vector_val@U?$_Simple_types@PEAVNode@@@std@@@2@$00@std@@QEAA@XZ
	??1?$_Compressed_pair@U?$_Wrap_alloc@V?$allocator@PEAVPattern@@@std@@@std@@V?$_Vector_val@U?$_Simple_types@PEAVPattern@@@std@@@2@$00@std@@QEAA@XZ
	??1?$_Compressed_pair@U?$_Wrap_alloc@V?$allocator@U?$_List_node@U?$pair@$$CBV?$basic_string@DU?$char_traits@D@std@@V?$allocator@D@2@@std@@PEAVElement@@@std@@PEAX@std@@@std@@@std@@V?$_List_val@U?$_List_simple_types@U?$pair@$$CBV?$basic_string@DU?$char_traits@D@std@@V?$allocator@D@2@@std@@PEAVElement@@@std@@@std@@@2@$00@std@@QEAA@XZ
	??1?$_Compressed_pair@U?$_Wrap_alloc@V?$allocator@U?$_List_node@VDemand@@PEAX@std@@@std@@@std@@V?$_List_val@U?$_List_simple_types@VDemand@@@std@@@2@$00@std@@QEAA@XZ
	??1?$_Compressed_pair@U?$_Wrap_alloc@V?$allocator@V?$basic_string@DU?$char_traits@D@std@@V?$allocator@D@2@@std@@@std@@@std@@V?$_Vector_val@U?$_Simple_types@V?$basic_string@DU?$char_traits@D@std@@V?$allocator@D@2@@std@@@std@@@2@$00@std@@QEAA@XZ
	??1?$_Hash@V?$_Umap_traits@V?$basic_string@DU?$char_traits@D@std@@V?$allocator@D@2@@std@@PEAVElement@@V?$_Uhash_compare@V?$basic_string@DU?$char_traits@D@std@@V?$allocator@D@2@@std@@U?$hash@V?$basic_string@DU?$char_traits@D@std@@V?$allocator@D@2@@std@@@2@U?$equal_to@V?$basic_string@DU?$char_traits@D@std@@V?$allocator@D@2@@std@@@2@@2@V?$allocator@U?$pair@$$CBV?$basic_string@DU?$char_traits@D@std@@V?$allocator@D@2@@std@@PEAVElement@@@std@@@2@$0A@@std@@@std@@QEAA@XZ
	??1?$_Iterator012@Ubidirectional_iterator_tag@std@@U?$pair@$$CBV?$basic_string@DU?$char_traits@D@std@@V?$allocator@D@2@@std@@PEAVElement@@@2@_JPEBU32@AEBU32@U_Iterator_base12@2@@std@@QEAA@XZ
	??1?$_Iterator012@Ubidirectional_iterator_tag@std@@VDemand@@_JPEBV3@AEBV3@U_Iterator_base12@2@@std@@QEAA@XZ
	??1?$_Iterator012@Urandom_access_iterator_tag@std@@D_JPEBDAEBDU_Iterator_base12@2@@std@@QEAA@XZ
	??1?$_Iterator012@Urandom_access_iterator_tag@std@@PEAVControl@@_JPEBQEAV3@AEBQEAV3@U_Iterator_base12@2@@std@@QEAA@XZ
	??1?$_Iterator012@Urandom_access_iterator_tag@std@@PEAVCurve@@_JPEBQEAV3@AEBQEAV3@U_Iterator_base12@2@@std@@QEAA@XZ
	??1?$_Iterator012@Urandom_access_iterator_tag@std@@PEAVLink@@_JPEBQEAV3@AEBQEAV3@U_Iterator_base12@2@@std@@QEAA@XZ
	??1?$_Iterator012@Urandom_access_iterator_tag@std@@PEAVNode@@_JPEBQEAV3@AEBQEAV3@U_Iterator_base12@2@@std@@QEAA@XZ
	??1?$_Iterator012@Urandom_access_iterator_tag@std@@PEAVPattern@@_JPEBQEAV3@AEBQEAV3@U_Iterator_base12@2@@std@@QEAA@XZ
	??1?$_Iterator012@Urandom_access_iterator_tag@std@@V?$_List_unchecked_iterator@V?$_List_val@U?$_List_simple_types@U?$pair@$$CBV?$basic_string@DU?$char_traits@D@std@@V?$allocator@D@2@@std@@PEAVElement@@@std@@@std@@@std@@@2@_JPEBV32@AEBV32@U_Iterator_base12@2@@std@@QEAA@XZ
	??1?$_Iterator012@Urandom_access_iterator_tag@std@@V?$basic_string@DU?$char_traits@D@std@@V?$allocator@D@2@@2@_JPEBV32@AEBV32@U_Iterator_base12@2@@std@@QEAA@XZ
	??1?$_List_alloc@U?$_List_base_types@U?$pair@$$CBV?$basic_string@DU?$char_traits@D@std@@V?$allocator@D@2@@std@@PEAVElement@@@std@@V?$allocator@U?$pair@$$CBV?$basic_string@DU?$char_traits@D@std@@V?$allocator@D@2@@std@@PEAVElement@@@std@@@2@@std@@@std@@QEAA@XZ
	??1?$_List_alloc@U?$_List_base_types@VDemand@@V?$allocator@VDemand@@@std@@@std@@@std@@QEAA@XZ
	??1?$_List_buy@U?$pair@$$CBV?$basic_string@DU?$char_traits@D@std@@V?$allocator@D@2@@std@@PEAVElement@@@std@@V?$allocator@U?$pair@$$CBV?$basic_string@DU?$char_traits@D@std@@V?$allocator@D@2@@std@@PEAVElement@@@std@@@2@@std@@QEAA@XZ
	??1?$_List_buy@VDemand@@V?$allocator@VDemand@@@std@@@std@@QEAA@XZ
	??1?$_List_const_iterator@V?$_List_val@U?$_List_simple_types@U?$pair@$$CBV?$basic_string@DU?$char_traits@D@std@@V?$allocator@D@2@@std@@PEAVElement@@@std@@@std@@@std@@@std@@QEAA@XZ
	??1?$_List_const_iterator@V?$_List_val@U?$_List_simple_types@VDemand@@@std@@@std@@@std@@QEAA@XZ
	??1?$_List_iterator@V?$_List_val@U?$_List_simple_types@U?$pair@$$CBV?$basic_string@DU?$char_traits@D@std@@V?$allocator@D@2@@std@@PEAVElement@@@std@@@std@@@std@@@std@@QEAA@XZ
	??1?$_List_iterator@V?$_List_val@U?$_List_simple_types@VDemand@@@std@@@std@@@std@@QEAA@XZ
	??1?$_List_unchecked_const_iterator@V?$_List_val@U?$_List_simple_types@U?$pair@$$CBV?$basic_string@DU?$char_traits@D@std@@V?$allocator@D@2@@std@@PEAVElement@@@std@@@std@@@std@@U_Iterator_base12@2@@std@@QEAA@XZ
	??1?$_List_unchecked_const_iterator@V?$_List_val@U?$_List_simple_types@VDemand@@@std@@@std@@U_Iterator_base12@2@@std@@QEAA@XZ
	??1?$_List_val@U?$_List_simple_types@U?$pair@$$CBV?$basic_string@DU?$char_traits@D@std@@V?$allocator@D@2@@std@@PEAVElement@@@std@@@std@@@std@@QEAA@XZ
	??1?$_List_val@U?$_List_simple_types@VDemand@@@std@@@std@@QEAA@XZ
	??1?$_String_alloc@U?$_String_base_types@DV?$allocator@D@std@@@std@@@std@@QEAA@XZ
	??1?$_String_const_iterator@V?$_String_val@U?$_Simple_types@D@std@@@std@@@std@@QEAA@XZ
	??1?$_String_iterator@V?$_String_val@U?$_Simple_types@D@std@@@std@@@std@@QEAA@XZ
	??1?$_String_val@U?$_Simple_types@D@std@@@std@@QEAA@XZ
	??1?$_Vector_alloc@U?$_Vec_base_types@DV?$allocator@D@std@@@std@@@std@@QEAA@XZ
	??1?$_Vector_alloc@U?$_Vec_base_types@HV?$allocator@H@std@@@std@@@std@@QEAA@XZ
	??1?$_Vector_alloc@U?$_Vec_base_types@NV?$allocator@N@std@@@std@@@std@@QEAA@XZ
	??1?$_Vector_alloc@U?$_Vec_base_types@PEAUSegment@@V?$allocator@PEAUSegment@@@std@@@std@@@std@@QEAA@XZ
	??1?$_Vector_alloc@U?$_Vec_base_types@PEAVControl@@V?$allocator@PEAVControl@@@std@@@std@@@std@@QEAA@XZ
	??1?$_Vector_alloc@U?$_Vec_base_types@PEAVCurve@@V?$allocator@PEAVCurve@@@std@@@std@@@std@@QEAA@XZ
	??1?$_Vector_alloc@U?$_Vec_base_types@PEAVLink@@V?$allocator@PEAVLink@@@std@@@std@@@std@@QEAA@XZ
	??1?$_Vector_alloc@U?$_Vec_base_types@PEAVNode@@V?$allocator@PEAVNode@@@std@@@std@@@std@@QEAA@XZ
	??1?$_Vector_alloc@U?$_Vec_base_types@PEAVPattern@@V?$allocator@PEAVPattern@@@std@@@std@@@std@@QEAA@XZ
	??1?$_Vector_alloc@U?$_Vec_base_types@V?$_List_unchecked_iterator@V?$_List_val@U?$_List_simple_types@U?$pair@$$CBV?$basic_string@DU?$char_traits@D@std@@V?$allocator@D@2@@std@@PEAVElement@@@std@@@std@@@std@@@std@@U?$_Wrap_alloc@V?$allocator@V?$_List_unchecked_iterator@V?$_List_val@U?$_List_simple_types@U?$pair@$$CBV?$basic_string@DU?$char_traits@D@std@@V?$allocator@D@2@@std@@PEAVElement@@@std@@@std@@@std@@@std@@@std@@@2@@std@@@std@@QEAA@XZ
	??1?$_Vector_alloc@U?$_Vec_base_types@V?$basic_string@DU?$char_traits@D@std@@V?$allocator@D@2@@std@@V?$allocator@V?$basic_string@DU?$char_traits@D@std@@V?$allocator@D@2@@std@@@2@@std@@@std@@QEAA@XZ
	??1?$_Vector_const_iterator@V?$_Vector_val@U?$_Simple_types@PEAVControl@@@std@@@std@@@std@@QEAA@XZ
	??1?$_Vector_const_iterator@V?$_Vector_val@U?$_Simple_types@PEAVCurve@@@std@@@std@@@std@@QEAA@XZ
	??1?$_Vector_const_iterator@V?$_Vector_val@U?$_Simple_types@PEAVLink@@@std@@@std@@@std@@QEAA@XZ
	??1?$_Vector_const_iterator@V?$_Vector_val@U?$_Simple_types@PEAVNode@@@std@@@std@@@std@@QEAA@XZ
	??1?$_Vector_const_iterator@V?$_Vector_val@U?$_Simple_types@PEAVPattern@@@std@@@std@@@std@@QEAA@XZ
	??1?$_Vector_const_iterator@V?$_Vector_val@U?$_Simple_types@V?$_List_unchecked_iterator@V?$_List_val@U?$_List_simple_types@U?$pair@$$CBV?$basic_string@DU?$char_traits@D@std@@V?$allocator@D@2@@std@@PEAVElement@@@std@@@std@@@std@@@std@@@std@@@std@@@std@@QEAA@XZ
	??1?$_Vector_const_iterator@V?$_Vector_val@U?$_Simple_types@V?$basic_string@DU?$char_traits@D@std@@V?$allocator@D@2@@std@@@std@@@std@@@std@@QEAA@XZ
	??1?$_Vector_iterator@V?$_Vector_val@U?$_Simple_types@PEAVControl@@@std@@@std@@@std@@QEAA@XZ
	??1?$_Vector_iterator@V?$_Vector_val@U?$_Simple_types@PEAVCurve@@@std@@@std@@@std@@QEAA@XZ
	??1?$_Vector_iterator@V?$_Vector_val@U?$_Simple_types@PEAVLink@@@std@@@std@@@std@@QEAA@XZ
	??1?$_Vector_iterator@V?$_Vector_val@U?$_Simple_types@PEAVNode@@@std@@@std@@@std@@QEAA@XZ
	??1?$_Vector_iterator@V?$_Vector_val@U?$_Simple_types@PEAVPattern@@@std@@@std@@@std@@QEAA@XZ
	??1?$_Vector_iterator@V?$_Vector_val@U?$_Simple_types@V?$_List_unchecked_iterator@V?$_List_val@U?$_List_simple_types@U?$pair@$$CBV?$basic_string@DU?$char_traits@D@std@@V?$allocator@D@2@@std@@PEAVElement@@@std@@@std@@@std@@@std@@@std@@@std@@@std@@QEAA@XZ
	??1?$_Vector_iterator@V?$_Vector_val@U?$_Simple_types@V?$basic_string@DU?$char_traits@D@std@@V?$allocator@D@2@@std@@@std@@@std@@@std@@QEAA@XZ
	??1?$_Vector_val@U?$_Simple_types@D@std@@@std@@QEAA@XZ
	??1?$_Vector_val@U?$_Simple_types@H@std@@@std@@QEAA@XZ
	??1?$_Vector_val@U?$_Simple_types@N@std@@@std@@QEAA@XZ
	??1?$_Vector_val@U?$_Simple_types@PEAUSegment@@@std@@@std@@QEAA@XZ
	??1?$_Vector_val@U?$_Simple_types@PEAVControl@@@std@@@std@@QEAA@XZ
	??1?$_Vector_val@U?$_Simple_types@PEAVCurve@@@std@@@std@@QEAA@XZ
	??1?$_Vector_val@U?$_Simple_types@PEAVLink@@@std@@@std@@QEAA@XZ
	??1?$_Vector_val@U?$_Simple_types@PEAVNode@@@std@@@std@@QEAA@XZ
	??1?$_Vector_val@U?$_Simple_types@PEAVPattern@@@std@@@std@@QEAA@XZ
	??1?$_Vector_val@U?$_Simple_types@V?$_List_unchecked_iterator@V?$_List_val@U?$_List_simple_types@U?$pair@$$CBV?$basic_string@DU?$char_traits@D@std@@V?$allocator@D@2@@std@@PEAVElement@@@std@@@std@@@std@@@std@@@std@@@std@@QEAA@XZ
	??1?$_Vector_val@U?$_Simple_types@V?$basic_string@DU?$char_traits@D@std@@V?$allocator@D@2@@std@@@std@@@std@@QEAA@XZ
	??1?$basic_filebuf@DU?$char_traits@D@std@@@std@@UEAA@XZ
	??1?$basic_fstream@DU?$char_traits@D@std@@@std@@UEAA@XZ
	??1?$basic_ifstream@DU?$char_traits@D@std@@@std@@UEAA@XZ
	??1?$basic_istringstream@DU?$char_traits@D@std@@V?$allocator@D@2@@std@@UEAA@XZ
	??1?$basic_ofstream@DU?$char_traits@D@std@@@std@@UEAA@XZ
	??1?$basic_ostringstream@DU?$char_traits@D@std@@V?$allocator@D@2@@std@@UEAA@XZ
	??1?$basic_string@DU?$char_traits@D@std@@V?$allocator@D@2@@std@@QEAA@XZ
	??1?$basic_stringbuf@DU?$char_traits@D@std@@V?$allocator@D@2@@std@@UEAA@XZ
	??1?$basic_stringstream@DU?$char_traits@D@std@@V?$allocator@D@2@@std@@UEAA@XZ
	??1?$istream_iterator@V?$basic_string@DU?$char_traits@D@std@@V?$allocator@D@2@@std@@DU?$char_traits@D@2@_J@std@@QEAA@XZ
	??1?$list@U?$pair@$$CBV?$basic_string@DU?$char_traits@D@std@@V?$allocator@D@2@@std@@PEAVElement@@@std@@V?$allocator@U?$pair@$$CBV?$basic_string@DU?$char_traits@D@std@@V?$allocator@D@2@@std@@PEAVElement@@@std@@@2@@std@@QEAA@XZ
	??1?$list@VDemand@@V?$allocator@VDemand@@@std@@@std@@QEAA@XZ
	??1?$pair@$$CBV?$basic_string@DU?$char_traits@D@std@@V?$allocator@D@2@@std@@PEAVElement@@@std@@QEAA@XZ
	??1?$pair@V?$_List_iterator@V?$_List_val@U?$_List_simple_types@U?$pair@$$CBV?$basic_string@DU?$char_traits@D@std@@V?$allocator@D@2@@std@@PEAVElement@@@std@@@std@@@std@@@std@@_N@std@@QEAA@XZ
	??1?$unordered_map@V?$basic_string@DU?$char_traits@D@std@@V?$allocator@D@2@@std@@PEAVElement@@U?$hash@V?$basic_string@DU?$char_traits@D@std@@V?$allocator@D@2@@std@@@2@U?$equal_to@V?$basic_string@DU?$char_traits@D@std@@V?$allocator@D@2@@std@@@2@V?$allocator@U?$pair@$$CBV?$basic_string@DU?$char_traits@D@std@@V?$allocator@D@2@@std@@PEAVElement@@@std@@@2@@std@@QEAA@XZ
	??1?$vector@DV?$allocator@D@std@@@std@@QEAA@XZ
	??1?$vector@HV?$allocator@H@std@@@std@@QEAA@XZ
	??1?$vector@NV?$allocator@N@std@@@std@@QEAA@XZ
	??1?$vector@PEAUSegment@@V?$allocator@PEAUSegment@@@std@@@std@@QEAA@XZ
	??1?$vector@PEAVControl@@V?$allocator@PEAVControl@@@std@@@std@@QEAA@XZ
	??1?$vector@PEAVCurve@@V?$allocator@PEAVCurve@@@std@@@std@@QEAA@XZ
	??1?$vector@PEAVLink@@V?$allocator@PEAVLink@@@std@@@std@@QEAA@XZ
	??1?$vector@PEAVNode@@V?$allocator@PEAVNode@@@std@@@std@@QEAA@XZ
	??1?$vector@PEAVPattern@@V?$allocator@PEAVPattern@@@std@@@std@@QEAA@XZ
	??1?$vector@V?$_List_unchecked_iterator@V?$_List_val@U?$_List_simple_types@U?$pair@$$CBV?$basic_string@DU?$char_traits@D@std@@V?$allocator@D@2@@std@@PEAVElement@@@std@@@std@@@std@@@std@@U?$_Wrap_alloc@V?$allocator@V?$_List_unchecked_iterator@V?$_List_val@U?$_List_simple_types@U?$pair@$$CBV?$basic_string@DU?$char_traits@D@std@@V?$allocator@D@2@@std@@PEAVElement@@@std@@@std@@@std@@@std@@@std@@@2@@std@@QEAA@XZ
	??1?$vector@V?$basic_string@DU?$char_traits@D@std@@V?$allocator@D@2@@std@@V?$allocator@V?$basic_string@DU?$char_traits@D@std@@V?$allocator@D@2@@std@@@2@@std@@QEAA@XZ
	??1AgeModel@@UEAA@XZ
	??1CM_HeadLossModel@@UEAA@XZ
	??1ChemModel@@UEAA@XZ
	??1ConstrainedDemandModel@@UEAA@XZ
	??1Control@@UEAA@XZ
	??1ControlParser@@QEAA@XZ
	??1Curve@@UEAA@XZ
	??1CurveParser@@QEAA@XZ
	??1DW_HeadLossModel@@UEAA@XZ
	??1Demand@@QEAA@XZ
	??1DemandModel@@UEAA@XZ
	??1ENerror@@UEAA@XZ
	??1Element@@UEAA@XZ
	??1Emitter@@QEAA@XZ
	??1FavadLeakageModel@@UEAA@XZ
	??1Field@@QEAA@XZ
	??1FileError@@UEAA@XZ
	??1FixedDemandModel@@UEAA@XZ
	??1FixedPattern@@UEAA@XZ
	??1GGASolver@@UEAA@XZ
	??1Graph@@QEAA@XZ
	??1HW_HeadLossModel@@UEAA@XZ
	??1HeadLossModel@@UEAA@XZ
	??1HydEngine@@QEAA@XZ
	??1HydSolver@@UEAA@XZ
	??1InputError@@UEAA@XZ
	??1InputParser@@UEAA@XZ
	??1InputReader@@QEAA@XZ
	??1Junction@@UEAA@XZ
	??1LTDSolver@@UEAA@XZ
	??1LeakageModel@@UEAA@XZ
	??1Link@@UEAA@XZ
	??1LinkParser@@QEAA@XZ
	??1LogisticDemandModel@@UEAA@XZ
	??1MatrixSolver@@UEAA@XZ
	??1MemPool@@QEAA@XZ
	??1Network@@QEAA@XZ
	??1NetworkError@@UEAA@XZ
	??1Node@@UEAA@XZ
	??1NodeParser@@QEAA@XZ
	??1ObjectParser@@UEAA@XZ
	??1Options@@QEAA@XZ
	??1OutputFile@@QEAA@XZ
	??1Pattern@@UEAA@XZ
	??1PatternParser@@QEAA@XZ
	??1Pipe@@UEAA@XZ
	??1PowerDemandModel@@UEAA@XZ
	??1PowerLeakageModel@@UEAA@XZ
	??1Project@Epanet@@QEAA@XZ
	??1ProjectWriter@@QEAA@XZ
	??1PropertyParser@@UEAA@XZ
	??1Pump@@UEAA@XZ
	??1PumpCurve@@QEAA@XZ
	??1QualEngine@@QEAA@XZ
	??1QualModel@@UEAA@XZ
	??1QualSolver@@UEAA@XZ
	??1QualSource@@QEAA@XZ
	??1ReportFields@@QEAA@XZ
	??1ReportWriter@@QEAA@XZ
	??1Reservoir@@UEAA@XZ
	??1SegPool@@QEAA@XZ
	??1SparspakSolver@@UEAA@XZ
	??1SystemError@@UEAA@XZ
	??1Tank@@UEAA@XZ
	??1TankMixModel@@QEAA@XZ
	??1TraceModel@@UEAA@XZ
	??1Units@@QEAA@XZ
	??1Valve@@UEAA@XZ
	??1VariablePattern@@UEAA@XZ
	??1_Bxty@?$_String_val@U?$_Simple_types@D@std@@@std@@QEAA@XZ
	??1_Container_base12@std@@QEAA@XZ
	??1_Iterator_base12@std@@QEAA@XZ
	??1_Sentry_base@?$basic_istream@DU?$char_traits@D@std@@@std@@QEAA@XZ
	??1_Sentry_base@?$basic_ostream@DU?$char_traits@D@std@@@std@@QEAA@XZ
	??1bad_cast@std@@UEAA@XZ
	??1exception@std@@UEAA@XZ
	??1locale@std@@QEAA@XZ
	??1sentry@?$basic_istream@DU?$char_traits@D@std@@@std@@QEAA@XZ
	??1sentry@?$basic_ostream@DU?$char_traits@D@std@@@std@@QEAA@XZ
	??2@YAPEAX_KPEAX@Z
	??3@YAXPEAX0@Z
	??4?$_Wrap_alloc@V?$allocator@D@std@@@std@@QEAAAEAU01@$$QEAU01@@Z
	??4?$basic_string@DU?$char_traits@D@std@@V?$allocator@D@2@@std@@QEAAAEAV01@$$QEAV01@@Z
	??4?$basic_string@DU?$char_traits@D@std@@V?$allocator@D@2@@std@@QEAAAEAV01@AEBV01@@Z
	??4?$basic_string@DU?$char_traits@D@std@@V?$allocator@D@2@@std@@QEAAAEAV01@PEBD@Z
	??4_Iterator_base12@std@@QEAAAEAU01@AEBU01@@Z
	??8?$_List_const_iterator@V?$_List_val@U?$_List_simple_types@U?$pair@$$CBV?$basic_string@DU?$char_traits@D@std@@V?$allocator@D@2@@std@@PEAVElement@@@std@@@std@@@std@@@std@@QEBA_NAEBV01@@Z
	??8?$_List_const_iterator@V?$_List_val@U?$_List_simple_types@VDemand@@@std@@@std@@@std@@QEBA_NAEBV01@@Z
	??8?$_List_unchecked_const_iterator@V?$_List_val@U?$_List_simple_types@U?$pair@$$CBV?$basic_string@DU?$char_traits@D@std@@V?$allocator@D@2@@std@@PEAVElement@@@std@@@std@@@std@@U_Iterator_base0@2@@std@@QEBA_NAEBV01@@Z
	??8?$_String_const_iterator@V?$_String_val@U?$_Simple_types@D@std@@@std@@@std@@QEBA_NAEBV01@@Z
	??8?$_Vector_const_iterator@V?$_Vector_val@U?$_Simple_types@PEAVControl@@@std@@@std@@@std@@QEBA_NAEBV01@@Z
	??8?$_Vector_const_iterator@V?$_Vector_val@U?$_Simple_types@PEAVCurve@@@std@@@std@@@std@@QEBA_NAEBV01@@Z
	??8?$_Vector_const_iterator@V?$_Vector_val@U?$_Simple_types@PEAVLink@@@std@@@std@@@std@@QEBA_NAEBV01@@Z
	??8?$_Vector_const_iterator@V?$_Vector_val@U?$_Simple_types@PEAVNode@@@std@@@std@@@std@@QEBA_NAEBV01@@Z
	??8?$_Vector_const_iterator@V?$_Vector_val@U?$_Simple_types@PEAVPattern@@@std@@@std@@@std@@QEBA_NAEBV01@@Z
	??8?$_Vector_const_iterator@V?$_Vector_val@U?$_Simple_types@V?$basic_string@DU?$char_traits@D@std@@V?$allocator@D@2@@std@@@std@@@std@@@std@@QEBA_NAEBV01@@Z
	??9?$_List_const_iterator@V?$_List_val@U?$_List_simple_types@U?$pair@$$CBV?$basic_string@DU?$char_traits@D@std@@V?$allocator@D@2@@std@@PEAVElement@@@std@@@std@@@std@@@std@@QEBA_NAEBV01@@Z
	??9?$_List_const_iterator@V?$_List_val@U?$_List_simple_types@VDemand@@@std@@@std@@@std@@QEBA_NAEBV01@@Z
	??9?$_List_unchecked_const_iterator@V?$_List_val@U?$_List_simple_types@U?$pair@$$CBV?$basic_string@DU?$char_traits@D@std@@V?$allocator@D@2@@std@@PEAVElement@@@std@@@std@@@std@@U_Iterator_base0@2@@std@@QEBA_NAEBV01@@Z
	??9?$_String_const_iterator@V?$_String_val@U?$_Simple_types@D@std@@@std@@@std@@QEBA_NAEBV01@@Z
	??9?$_Vector_const_iterator@V?$_Vector_val@U?$_Simple_types@PEAVControl@@@std@@@std@@@std@@QEBA_NAEBV01@@Z
	??9?$_Vector_const_iterator@V?$_Vector_val@U?$_Simple_types@PEAVCurve@@@std@@@std@@@std@@QEBA_NAEBV01@@Z
	??9?$_Vector_const_iterator@V?$_Vector_val@U?$_Simple_types@PEAVLink@@@std@@@std@@@std@@QEBA_NAEBV01@@Z
	??9?$_Vector_const_iterator@V?$_Vector_val@U?$_Simple_types@PEAVNode@@@std@@@std@@@std@@QEBA_NAEBV01@@Z
	??9?$_Vector_const_iterator@V?$_Vector_val@U?$_Simple_types@PEAVPattern@@@std@@@std@@@std@@QEBA_NAEBV01@@Z
	??9?$_Vector_const_iterator@V?$_Vector_val@U?$_Simple_types@V?$basic_string@DU?$char_traits@D@std@@V?$allocator@D@2@@std@@@std@@@std@@@std@@QEBA_NAEBV01@@Z
	??A?$basic_string@DU?$char_traits@D@std@@V?$allocator@D@2@@std@@QEAAAEAD_K@Z
	??A?$basic_string@DU?$char_traits@D@std@@V?$allocator@D@2@@std@@QEBAAEBD_K@Z
	??A?$unordered_map@V?$basic_string@DU?$char_traits@D@std@@V?$allocator@D@2@@std@@PEAVElement@@U?$hash@V?$basic_string@DU?$char_traits@D@std@@V?$allocator@D@2@@std@@@2@U?$equal_to@V?$basic_string@DU?$char_traits@D@std@@V?$allocator@D@2@@std@@@2@V?$allocator@U?$pair@$$CBV?$basic_string@DU?$char_traits@D@std@@V?$allocator@D@2@@std@@PEAVElement@@@std@@@2@@std@@QEAAAEAPEAVElement@@AEBV?$basic_string@DU?$char_traits@D@std@@V?$allocator@D@2@@1@@Z
	??A?$vector@DV?$allocator@D@std@@@std@@QEAAAEAD_K@Z
	??A?$vector@HV?$allocator@H@std@@@std@@QEAAAEAH_K@Z
	??A?$vector@NV?$allocator@N@std@@@std@@QEAAAEAN_K@Z
	??A?$vector@PEAUSegment@@V?$allocator@PEAUSegment@@@std@@@std@@QEAAAEAPEAUSegment@@_K@Z
	??A?$vector@PEAVControl@@V?$allocator@PEAVControl@@@std@@@std@@QEAAAEAPEAVControl@@_K@Z
	??A?$vector@PEAVCurve@@V?$allocator@PEAVCurve@@@std@@@std@@QEAAAEAPEAVCurve@@_K@Z
	??A?$vector@PEAVLink@@V?$allocator@PEAVLink@@@std@@@std@@QEAAAEAPEAVLink@@_K@Z
	??A?$vector@PEAVNode@@V?$allocator@PEAVNode@@@std@@@std@@QEAAAEAPEAVNode@@_K@Z
	??A?$vector@PEAVPattern@@V?$allocator@PEAVPattern@@@std@@@std@@QEAAAEAPEAVPattern@@_K@Z
	??A?$vector@V?$_List_unchecked_iterator@V?$_List_val@U?$_List_simple_types@U?$pair@$$CBV?$basic_string@DU?$char_traits@D@std@@V?$allocator@D@2@@std@@PEAVElement@@@std@@@std@@@std@@@std@@U?$_Wrap_alloc@V?$allocator@V?$_List_unchecked_iterator@V?$_List_val@U?$_List_simple_types@U?$pair@$$CBV?$basic_string@DU?$char_traits@D@std@@V?$allocator@D@2@@std@@PEAVElement@@@std@@@std@@@std@@@std@@@std@@@2@@std@@QEAAAEAV?$_List_unchecked_iterator@V?$_List_val@U?$_List_simple_types@U?$pair@$$CBV?$basic_string@DU?$char_traits@D@std@@V?$allocator@D@2@@std@@PEAVElement@@@std@@@std@@@std@@@1@_K@Z
	??A?$vector@V?$basic_string@DU?$char_traits@D@std@@V?$allocator@D@2@@std@@V?$allocator@V?$basic_string@DU?$char_traits@D@std@@V?$allocator@D@2@@std@@@2@@std@@QEAAAEAV?$basic_string@DU?$char_traits@D@std@@V?$allocator@D@2@@1@_K@Z
	??B?$fpos@U_Mbstatet@@@std@@QEBA_JXZ
	??Bsentry@?$basic_istream@DU?$char_traits@D@std@@@std@@QEBA_NXZ
	??Bsentry@?$basic_ostream@DU?$char_traits@D@std@@@std@@QEBA_NXZ
	??C?$_List_iterator@V?$_List_val@U?$_List_simple_types@U?$pair@$$CBV?$basic_string@DU?$char_traits@D@std@@V?$allocator@D@2@@std@@PEAVElement@@@std@@@std@@@std@@@std@@QEBAPEAU?$pair@$$CBV?$basic_string@DU?$char_traits@D@std@@V?$allocator@D@2@@std@@PEAVElement@@@1@XZ
	??C?$_List_iterator@V?$_List_val@U?$_List_simple_types@VDemand@@@std@@@std@@@std@@QEBAPEAVDemand@@XZ
	??D?$_List_const_iterator@V?$_List_val@U?$_List_simple_types@U?$pair@$$CBV?$basic_string@DU?$char_traits@D@std@@V?$allocator@D@2@@std@@PEAVElement@@@std@@@std@@@std@@@std@@QEBAAEBU?$pair@$$CBV?$basic_string@DU?$char_traits@D@std@@V?$allocator@D@2@@std@@PEAVElement@@@1@XZ
	??D?$_List_const_iterator@V?$_List_val@U?$_List_simple_types@VDemand@@@std@@@std@@@std@@QEBAAEBVDemand@@XZ
	??D?$_List_iterator@V?$_List_val@U?$_List_simple_types@U?$pair@$$CBV?$basic_string@DU?$char_traits@D@std@@V?$allocator@D@2@@std@@PEAVElement@@@std@@@std@@@std@@@std@@QEBAAEAU?$pair@$$CBV?$basic_string@DU?$char_traits@D@std@@V?$allocator@D@2@@std@@PEAVElement@@@1@XZ
	??D?$_List_iterator@V?$_List_val@U?$_List_simple_types@VDemand@@@std@@@std@@@std@@QEBAAEAVDemand@@XZ
	??D?$_List_unchecked_const_iterator@V?$_List_val@U?$_List_simple_types@U?$pair@$$CBV?$basic_string@DU?$char_traits@D@std@@V?$allocator@D@2@@std@@PEAVElement@@@std@@@std@@@std@@U_Iterator_base0@2@@std@@QEBAAEBU?$pair@$$CBV?$basic_string@DU?$char_traits@D@std@@V?$allocator@D@2@@std@@PEAVElement@@@1@XZ
	??D?$_List_unchecked_iterator@V?$_List_val@U?$_List_simple_types@U?$pair@$$CBV?$basic_string@DU?$char_traits@D@std@@V?$allocator@D@2@@std@@PEAVElement@@@std@@@std@@@std@@@std@@QEBAAEAU?$pair@$$CBV?$basic_string@DU?$char_traits@D@std@@V?$allocator@D@2@@std@@PEAVElement@@@1@XZ
	??D?$_String_const_iterator@V?$_String_val@U?$_Simple_types@D@std@@@std@@@std@@QEBAAEBDXZ
	??D?$_String_iterator@V?$_String_val@U?$_Simple_types@D@std@@@std@@@std@@QEBAAEADXZ
	??D?$_Vector_const_iterator@V?$_Vector_val@U?$_Simple_types@PEAVControl@@@std@@@std@@@std@@QEBAAEBQEAVControl@@XZ
	??D?$_Vector_const_iterator@V?$_Vector_val@U?$_Simple_types@PEAVCurve@@@std@@@std@@@std@@QEBAAEBQEAVCurve@@XZ
	??D?$_Vector_const_iterator@V?$_Vector_val@U?$_Simple_types@PEAVLink@@@std@@@std@@@std@@QEBAAEBQEAVLink@@XZ
	??D?$_Vector_const_iterator@V?$_Vector_val@U?$_Simple_types@PEAVNode@@@std@@@std@@@std@@QEBAAEBQEAVNode@@XZ
	??D?$_Vector_const_iterator@V?$_Vector_val@U?$_Simple_types@PEAVPattern@@@std@@@std@@@std@@QEBAAEBQEAVPattern@@XZ
	??D?$_Vector_const_iterator@V?$_Vector_val@U?$_Simple_types@V?$basic_string@DU?$char_traits@D@std@@V?$allocator@D@2@@std@@@std@@@std@@@std@@QEBAAEBV?$basic_string@DU?$char_traits@D@std@@V?$allocator@D@2@@1@XZ
	??D?$_Vector_iterator@V?$_Vector_val@U?$_Simple_types@PEAVControl@@@std@@@std@@@std@@QEBAAEAPEAVControl@@XZ
	??D?$_Vector_iterator@V?$_Vector_val@U?$_Simple_types@PEAVCurve@@@std@@@std@@@std@@QEBAAEAPEAVCurve@@XZ
	??D?$_Vector_iterator@V?$_Vector_val@U?$_Simple_types@PEAVLink@@@std@@@std@@@std@@QEBAAEAPEAVLink@@XZ
	??D?$_Vector_iterator@V?$_Vector_val@U?$_Simple_types@PEAVNode@@@std@@@std@@@std@@QEBAAEAPEAVNode@@XZ
	??D?$_Vector_iterator@V?$_Vector_val@U?$_Simple_types@PEAVPattern@@@std@@@std@@@std@@QEBAAEAPEAVPattern@@XZ
	??D?$_Vector_iterator@V?$_Vector_val@U?$_Simple_types@V?$basic_string@DU?$char_traits@D@std@@V?$allocator@D@2@@std@@@std@@@std@@@std@@QEBAAEAV?$basic_string@DU?$char_traits@D@std@@V?$allocator@D@2@@1@XZ
	??D?$istream_iterator@V?$basic_string@DU?$char_traits@D@std@@V?$allocator@D@2@@std@@DU?$char_traits@D@2@_J@std@@QEBAAEBV?$basic_string@DU?$char_traits@D@std@@V?$allocator@D@2@@1@XZ
	??E?$_List_const_iterator@V?$_List_val@U?$_List_simple_types@U?$pair@$$CBV?$basic_string@DU?$char_traits@D@std@@V?$allocator@D@2@@std@@PEAVElement@@@std@@@std@@@std@@@std@@QEAA?AV01@H@Z
	??E?$_List_const_iterator@V?$_List_val@U?$_List_simple_types@U?$pair@$$CBV?$basic_string@DU?$char_traits@D@std@@V?$allocator@D@2@@std@@PEAVElement@@@std@@@std@@@std@@@std@@QEAAAEAV01@XZ
	??E?$_List_const_iterator@V?$_List_val@U?$_List_simple_types@VDemand@@@std@@@std@@@std@@QEAAAEAV01@XZ
	??E?$_List_iterator@V?$_List_val@U?$_List_simple_types@VDemand@@@std@@@std@@@std@@QEAAAEAV01@XZ
	??E?$_List_unchecked_const_iterator@V?$_List_val@U?$_List_simple_types@U?$pair@$$CBV?$basic_string@DU?$char_traits@D@std@@V?$allocator@D@2@@std@@PEAVElement@@@std@@@std@@@std@@U_Iterator_base0@2@@std@@QEAAAEAV01@XZ
	??E?$_List_unchecked_iterator@V?$_List_val@U?$_List_simple_types@U?$pair@$$CBV?$basic_string@DU?$char_traits@D@std@@V?$allocator@D@2@@std@@PEAVElement@@@std@@@std@@@std@@@std@@QEAAAEAV01@XZ
	??E?$_String_const_iterator@V?$_String_val@U?$_Simple_types@D@std@@@std@@@std@@QEAA?AV01@H@Z
	??E?$_String_const_iterator@V?$_String_val@U?$_Simple_types@D@std@@@std@@@std@@QEAAAEAV01@XZ
	??E?$_Vector_const_iterator@V?$_Vector_val@U?$_Simple_types@PEAVControl@@@std@@@std@@@std@@QEAAAEAV01@XZ
	??E?$_Vector_const_iterator@V?$_Vector_val@U?$_Simple_types@PEAVCurve@@@std@@@std@@@std@@QEAAAEAV01@XZ
	??E?$_Vector_const_iterator@V?$_Vector_val@U?$_Simple_types@PEAVLink@@@std@@@std@@@std@@QEAAAEAV01@XZ
	??E?$_Vector_const_iterator@V?$_Vector_val@U?$_Simple_types@PEAVNode@@@std@@@std@@@std@@QEAAAEAV01@XZ
	??E?$_Vector_const_iterator@V?$_Vector_val@U?$_Simple_types@PEAVPattern@@@std@@@std@@@std@@QEAAAEAV01@XZ
	??E?$_Vector_const_iterator@V?$_Vector_val@U?$_Simple_types@V?$basic_string@DU?$char_traits@D@std@@V?$allocator@D@2@@std@@@std@@@std@@@std@@QEAAAEAV01@XZ
	??E?$_Vector_iterator@V?$_Vector_val@U?$_Simple_types@PEAVControl@@@std@@@std@@@std@@QEAAAEAV01@XZ
	??E?$_Vector_iterator@V?$_Vector_val@U?$_Simple_types@PEAVCurve@@@std@@@std@@@std@@QEAAAEAV01@XZ
	??E?$_Vector_iterator@V?$_Vector_val@U?$_Simple_types@PEAVLink@@@std@@@std@@@std@@QEAAAEAV01@XZ
	??E?$_Vector_iterator@V?$_Vector_val@U?$_Simple_types@PEAVNode@@@std@@@std@@@std@@QEAAAEAV01@XZ
	??E?$_Vector_iterator@V?$_Vector_val@U?$_Simple_types@PEAVPattern@@@std@@@std@@@std@@QEAAAEAV01@XZ
	??E?$_Vector_iterator@V?$_Vector_val@U?$_Simple_types@V?$basic_string@DU?$char_traits@D@std@@V?$allocator@D@2@@std@@@std@@@std@@@std@@QEAAAEAV01@XZ
	??E?$istream_iterator@V?$basic_string@DU?$char_traits@D@std@@V?$allocator@D@2@@std@@DU?$char_traits@D@2@_J@std@@QEAAAEAV01@XZ
	??F?$_List_unchecked_const_iterator@V?$_List_val@U?$_List_simple_types@U?$pair@$$CBV?$basic_string@DU?$char_traits@D@std@@V?$allocator@D@2@@std@@PEAVElement@@@std@@@std@@@std@@U_Iterator_base0@2@@std@@QEAAAEAV01@XZ
	??F?$_List_unchecked_iterator@V?$_List_val@U?$_List_simple_types@U?$pair@$$CBV?$basic_string@DU?$char_traits@D@std@@V?$allocator@D@2@@std@@PEAVElement@@@std@@@std@@@std@@@std@@QEAAAEAV01@XZ
	??G?$_String_const_iterator@V?$_String_val@U?$_Simple_types@D@std@@@std@@@std@@QEBA_JAEBV01@@Z
	??G?$_String_iterator@V?$_String_val@U?$_Simple_types@D@std@@@std@@@std@@QEBA_JAEBV?$_String_const_iterator@V?$_String_val@U?$_Simple_types@D@std@@@std@@@1@@Z
	??H?$_Vector_iterator@V?$_Vector_val@U?$_Simple_types@V?$_List_unchecked_iterator@V?$_List_val@U?$_List_simple_types@U?$pair@$$CBV?$basic_string@DU?$char_traits@D@std@@V?$allocator@D@2@@std@@PEAVElement@@@std@@@std@@@std@@@std@@@std@@@std@@@std@@QEBA?AV01@_J@Z
	??R?$_Uhash_compare@V?$basic_string@DU?$char_traits@D@std@@V?$allocator@D@2@@std@@U?$hash@V?$basic_string@DU?$char_traits@D@std@@V?$allocator@D@2@@std@@@2@U?$equal_to@V?$basic_string@DU?$char_traits@D@std@@V?$allocator@D@2@@std@@@2@@std@@QEBA_KAEBV?$basic_string@DU?$char_traits@D@std@@V?$allocator@D@2@@1@@Z
	??R?$_Uhash_compare@V?$basic_string@DU?$char_traits@D@std@@V?$allocator@D@2@@std@@U?$hash@V?$basic_string@DU?$char_traits@D@std@@V?$allocator@D@2@@std@@@2@U?$equal_to@V?$basic_string@DU?$char_traits@D@std@@V?$allocator@D@2@@std@@@2@@std@@QEBA_NAEBV?$basic_string@DU?$char_traits@D@std@@V?$allocator@D@2@@1@0@Z
	??R?$equal_to@V?$basic_string@DU?$char_traits@D@std@@V?$allocator@D@2@@std@@@std@@QEBA_NAEBV?$basic_string@DU?$char_traits@D@std@@V?$allocator@D@2@@1@0@Z
	??R?$hash@V?$basic_string@DU?$char_traits@D@std@@V?$allocator@D@2@@std@@@std@@QEBA_KAEBV?$basic_string@DU?$char_traits@D@std@@V?$allocator@D@2@@1@@Z
	??Y?$_Vector_const_iterator@V?$_Vector_val@U?$_Simple_types@V?$_List_unchecked_iterator@V?$_List_val@U?$_List_simple_types@U?$pair@$$CBV?$basic_string@DU?$char_traits@D@std@@V?$allocator@D@2@@std@@PEAVElement@@@std@@@std@@@std@@@std@@@std@@@std@@@std@@QEAAAEAV01@_J@Z
	??Y?$_Vector_iterator@V?$_Vector_val@U?$_Simple_types@V?$_List_unchecked_iterator@V?$_List_val@U?$_List_simple_types@U?$pair@$$CBV?$basic_string@DU?$char_traits@D@std@@V?$allocator@D@2@@std@@PEAVElement@@@std@@@std@@@std@@@std@@@std@@@std@@@std@@QEAAAEAV01@_J@Z
	??Y?$basic_string@DU?$char_traits@D@std@@V?$allocator@D@2@@std@@QEAAAEAV01@AEBV01@@Z
	??Y?$basic_string@DU?$char_traits@D@std@@V?$allocator@D@2@@std@@QEAAAEAV01@D@Z
	??Y?$basic_string@DU?$char_traits@D@std@@V?$allocator@D@2@@std@@QEAAAEAV01@PEBD@Z
	??_D?$basic_fstream@DU?$char_traits@D@std@@@std@@QEAAXXZ
	??_D?$basic_ifstream@DU?$char_traits@D@std@@@std@@QEAAXXZ
	??_D?$basic_istringstream@DU?$char_traits@D@std@@V?$allocator@D@2@@std@@QEAAXXZ
	??_D?$basic_ofstream@DU?$char_traits@D@std@@@std@@QEAAXXZ
	??_D?$basic_ostringstream@DU?$char_traits@D@std@@V?$allocator@D@2@@std@@QEAAXXZ
	??_D?$basic_stringstream@DU?$char_traits@D@std@@V?$allocator@D@2@@std@@QEAAXXZ
	?_Adopt@_Iterator_base0@std@@QEAAXPEBX@Z
	?_Adopt@_Iterator_base12@std@@QEAAXPEBU_Container_base12@2@@Z
	?_Alloc_proxy@?$_List_alloc@U?$_List_base_types@U?$pair@$$CBV?$basic_string@DU?$char_traits@D@std@@V?$allocator@D@2@@std@@PEAVElement@@@std@@V?$allocator@U?$pair@$$CBV?$basic_string@DU?$char_traits@D@std@@V?$allocator@D@2@@std@@PEAVElement@@@std@@@2@@std@@@std@@QEAAXXZ
	?_Alloc_proxy@?$_List_alloc@U?$_List_base_types@VDemand@@V?$allocator@VDemand@@@std@@@std@@@std@@QEAAXXZ
	?_Alloc_proxy@?$_String_alloc@U?$_String_base_types@DV?$allocator@D@std@@@std@@@std@@QEAAXXZ
	?_Alloc_proxy@?$_Vector_alloc@U?$_Vec_base_types@DV?$allocator@D@std@@@std@@@std@@QEAAXXZ
	?_Alloc_proxy@?$_Vector_alloc@U?$_Vec_base_types@HV?$allocator@H@std@@@std@@@std@@QEAAXXZ
	?_Alloc_proxy@?$_Vector_alloc@U?$_Vec_base_types@NV?$allocator@N@std@@@std@@@std@@QEAAXXZ
	?_Alloc_proxy@?$_Vector_alloc@U?$_Vec_base_types@PEAUSegment@@V?$allocator@PEAUSegment@@@std@@@std@@@std@@QEAAXXZ
	?_Alloc_proxy@?$_Vector_alloc@U?$_Vec_base_types@PEAVControl@@V?$allocator@PEAVControl@@@std@@@std@@@std@@QEAAXXZ
	?_Alloc_proxy@?$_Vector_alloc@U?$_Vec_base_types@PEAVCurve@@V?$allocator@PEAVCurve@@@std@@@std@@@std@@QEAAXXZ
	?_Alloc_proxy@?$_Vector_alloc@U?$_Vec_base_types@PEAVLink@@V?$allocator@PEAVLink@@@std@@@std@@@std@@QEAAXXZ
	?_Alloc_proxy@?$_Vector_alloc@U?$_Vec_base_types@PEAVNode@@V?$allocator@PEAVNode@@@std@@@std@@@std@@QEAAXXZ
	?_Alloc_proxy@?$_Vector_alloc@U?$_Vec_base_types@PEAVPattern@@V?$allocator@PEAVPattern@@@std@@@std@@@std@@QEAAXXZ
	?_Alloc_proxy@?$_Vector_alloc@U?$_Vec_base_types@V?$_List_unchecked_iterator@V?$_List_val@U?$_List_simple_types@U?$pair@$$CBV?$basic_string@DU?$char_traits@D@std@@V?$allocator@D@2@@std@@PEAVElement@@@std@@@std@@@std@@@std@@U?$_Wrap_alloc@V?$allocator@V?$_List_unchecked_iterator@V?$_List_val@U?$_List_simple_types@U?$pair@$$CBV?$basic_string@DU?$char_traits@D@std@@V?$allocator@D@2@@std@@PEAVElement@@@std@@@std@@@std@@@std@@@std@@@2@@std@@@std@@QEAAXXZ
	?_Alloc_proxy@?$_Vector_alloc@U?$_Vec_base_types@V?$basic_string@DU?$char_traits@D@std@@V?$allocator@D@2@@std@@V?$allocator@V?$basic_string@DU?$char_traits@D@std@@V?$allocator@D@2@@std@@@2@@std@@@std@@QEAAXXZ
	?_Allocate@std@@YAPEAX_K0_N@Z
	?_Assign_rv@?$basic_string@DU?$char_traits@D@std@@V?$allocator@D@2@@std@@QEAAX$$QEAV12@@Z
	?_Assign_rv@?$vector@V?$basic_string@DU?$char_traits@D@std@@V?$allocator@D@2@@std@@V?$allocator@V?$basic_string@DU?$char_traits@D@std@@V?$allocator@D@2@@std@@@2@@std@@QEAAX$$QEAV12@U?$integral_constant@_N$00@2@@Z
	?_Begin@?$_Hash@V?$_Umap_traits@V?$basic_string@DU?$char_traits@D@std@@V?$allocator@D@2@@std@@PEAVElement@@V?$_Uhash_compare@V?$basic_string@DU?$char_traits@D@std@@V?$allocator@D@2@@std@@U?$hash@V?$basic_string@DU?$char_traits@D@std@@V?$allocator@D@2@@std@@@2@U?$equal_to@V?$basic_string@DU?$char_traits@D@std@@V?$allocator@D@2@@std@@@2@@2@V?$allocator@U?$pair@$$CBV?$basic_string@DU?$char_traits@D@std@@V?$allocator@D@2@@std@@PEAVElement@@@std@@@2@$0A@@std@@@std@@IEAA?AV?$_List_unchecked_iterator@V?$_List_val@U?$_List_simple_types@U?$pair@$$CBV?$basic_string@DU?$char_traits@D@std@@V?$allocator@D@2@@std@@PEAVElement@@@std@@@std@@@std@@@2@_K@Z
	?_Buy@?$vector@DV?$allocator@D@std@@@std@@IEAA_N_K@Z
	?_Buy@?$vector@HV?$allocator@H@std@@@std@@IEAA_N_K@Z
	?_Buyheadnode@?$_List_alloc@U?$_List_base_types@U?$pair@$$CBV?$basic_string@DU?$char_traits@D@std@@V?$allocator@D@2@@std@@PEAVElement@@@std@@V?$allocator@U?$pair@$$CBV?$basic_string@DU?$char_traits@D@std@@V?$allocator@D@2@@std@@PEAVElement@@@std@@@2@@std@@@std@@QEAAPEAU?$_List_node@U?$pair@$$CBV?$basic_string@DU?$char_traits@D@std@@V?$allocator@D@2@@std@@PEAVElement@@@std@@PEAX@2@XZ
	?_Buyheadnode@?$_List_alloc@U?$_List_base_types@VDemand@@V?$allocator@VDemand@@@std@@@std@@@std@@QEAAPEAU?$_List_node@VDemand@@PEAX@2@XZ
	?_Buynode0@?$_List_alloc@U?$_List_base_types@U?$pair@$$CBV?$basic_string@DU?$char_traits@D@std@@V?$allocator@D@2@@std@@PEAVElement@@@std@@V?$allocator@U?$pair@$$CBV?$basic_string@DU?$char_traits@D@std@@V?$allocator@D@2@@std@@PEAVElement@@@std@@@2@@std@@@std@@QEAAPEAU?$_List_node@U?$pair@$$CBV?$basic_string@DU?$char_traits@D@std@@V?$allocator@D@2@@std@@PEAVElement@@@std@@PEAX@2@PEAU32@0@Z
	?_Buynode0@?$_List_alloc@U?$_List_base_types@VDemand@@V?$allocator@VDemand@@@std@@@std@@@std@@QEAAPEAU?$_List_node@VDemand@@PEAX@2@PEAU32@0@Z
	?_Bx@?$_String_alloc@U?$_String_base_types@DV?$allocator@D@std@@@std@@@std@@QEAAAEAT_Bxty@?$_String_val@U?$_Simple_types@D@std@@@2@XZ
	?_Chassign@?$basic_string@DU?$char_traits@D@std@@V?$allocator@D@2@@std@@QEAAX_K0D@Z
	?_Check_offset@?$basic_string@DU?$char_traits@D@std@@V?$allocator@D@2@@std@@QEBAX_K@Z
	?_Check_size@?$_Hash@V?$_Umap_traits@V?$basic_string@DU?$char_traits@D@std@@V?$allocator@D@2@@std@@PEAVElement@@V?$_Uhash_compare@V?$basic_string@DU?$char_traits@D@std@@V?$allocator@D@2@@std@@U?$hash@V?$basic_string@DU?$char_traits@D@std@@V?$allocator@D@2@@std@@@2@U?$equal_to@V?$basic_string@DU?$char_traits@D@std@@V?$allocator@D@2@@std@@@2@@2@V?$allocator@U?$pair@$$CBV?$basic_string@DU?$char_traits@D@std@@V?$allocator@D@2@@std@@PEAVElement@@@std@@@2@$0A@@std@@@std@@IEAAXXZ
	?_Clamp_suffix_size@?$basic_string@DU?$char_traits@D@std@@V?$allocator@D@2@@std@@QEBA_K_K0@Z
	?_Clrcont@_Iterator_base12@std@@QEAAXXZ
	?_Compat@?$_String_const_iterator@V?$_String_val@U?$_Simple_types@D@std@@@std@@@std@@QEBAXAEBV12@@Z
	?_Compat@?$_Vector_const_iterator@V?$_Vector_val@U?$_Simple_types@PEAVControl@@@std@@@std@@@std@@QEBAXAEBV12@@Z
	?_Compat@?$_Vector_const_iterator@V?$_Vector_val@U?$_Simple_types@PEAVCurve@@@std@@@std@@@std@@QEBAXAEBV12@@Z
	?_Compat@?$_Vector_const_iterator@V?$_Vector_val@U?$_Simple_types@PEAVLink@@@std@@@std@@@std@@QEBAXAEBV12@@Z
	?_Compat@?$_Vector_const_iterator@V?$_Vector_val@U?$_Simple_types@PEAVNode@@@std@@@std@@@std@@QEBAXAEBV12@@Z
	?_Compat@?$_Vector_const_iterator@V?$_Vector_val@U?$_Simple_types@PEAVPattern@@@std@@@std@@@std@@QEBAXAEBV12@@Z
	?_Compat@?$_Vector_const_iterator@V?$_Vector_val@U?$_Simple_types@V?$basic_string@DU?$char_traits@D@std@@V?$allocator@D@2@@std@@@std@@@std@@@std@@QEBAXAEBV12@@Z
	?_Construct_n@?$vector@DV?$allocator@D@std@@@std@@QEAAX_KPEBD@Z
	?_Construct_n@?$vector@HV?$allocator@H@std@@@std@@QEAAX_KPEBH@Z
	?_Copy@?$basic_string@DU?$char_traits@D@std@@V?$allocator@D@2@@std@@QEAAX_K0@Z
	?_Copy_alloc@?$_String_alloc@U?$_String_base_types@DV?$allocator@D@std@@@std@@@std@@QEAAXAEBU?$_Wrap_alloc@V?$allocator@D@std@@@2@@Z
	?_Deallocate@std@@YAXPEAX_K1@Z
	?_Destroy@?$vector@DV?$allocator@D@std@@@std@@IEAAXPEAD0@Z
	?_Destroy@?$vector@HV?$allocator@H@std@@@std@@IEAAXPEAH0@Z
	?_Destroy@?$vector@NV?$allocator@N@std@@@std@@IEAAXPEAN0@Z
	?_Destroy@?$vector@PEAUSegment@@V?$allocator@PEAUSegment@@@std@@@std@@IEAAXPEAPEAUSegment@@0@Z
	?_Destroy@?$vector@PEAVControl@@V?$allocator@PEAVControl@@@std@@@std@@IEAAXPEAPEAVControl@@0@Z
	?_Destroy@?$vector@PEAVCurve@@V?$allocator@PEAVCurve@@@std@@@std@@IEAAXPEAPEAVCurve@@0@Z
	?_Destroy@?$vector@PEAVLink@@V?$allocator@PEAVLink@@@std@@@std@@IEAAXPEAPEAVLink@@0@Z
	?_Destroy@?$vector@PEAVNode@@V?$allocator@PEAVNode@@@std@@@std@@IEAAXPEAPEAVNode@@0@Z
	?_Destroy@?$vector@PEAVPattern@@V?$allocator@PEAVPattern@@@std@@@std@@IEAAXPEAPEAVPattern@@0@Z
	?_Destroy@?$vector@V?$_List_unchecked_iterator@V?$_List_val@U?$_List_simple_types@U?$pair@$$CBV?$basic_string@DU?$char_traits@D@std@@V?$allocator@D@2@@std@@PEAVElement@@@std@@@std@@@std@@@std@@U?$_Wrap_alloc@V?$allocator@V?$_List_unchecked_iterator@V?$_List_val@U?$_List_simple_types@U?$pair@$$CBV?$basic_string@DU?$char_traits@D@std@@V?$allocator@D@2@@std@@PEAVElement@@@std@@@std@@@std@@@std@@@std@@@2@@std@@IEAAXPEAV?$_List_unchecked_iterator@V?$_List_val@U?$_List_simple_types@U?$pair@$$CBV?$basic_string@DU?$char_traits@D@std@@V?$allocator@D@2@@std@@PEAVElement@@@std@@@std@@@std@@@2@0@Z
	?_Destroy@?$vector@V?$basic_string@DU?$char_traits@D@std@@V?$allocator@D@2@@std@@V?$allocator@V?$basic_string@DU?$char_traits@D@std@@V?$allocator@D@2@@std@@@2@@std@@IEAAXPEAV?$basic_string@DU?$char_traits@D@std@@V?$allocator@D@2@@2@0@Z
	?_Destroy_if_not_nil@?$_Hash@V?$_Umap_traits@V?$basic_string@DU?$char_traits@D@std@@V?$allocator@D@2@@std@@PEAVElement@@V?$_Uhash_compare@V?$basic_string@DU?$char_traits@D@std@@V?$allocator@D@2@@std@@U?$hash@V?$basic_string@DU?$char_traits@D@std@@V?$allocator@D@2@@std@@@2@U?$equal_to@V?$basic_string@DU?$char_traits@D@std@@V?$allocator@D@2@@std@@@2@@2@V?$allocator@U?$pair@$$CBV?$basic_string@DU?$char_traits@D@std@@V?$allocator@D@2@@std@@PEAVElement@@@std@@@2@$0A@@std@@@std@@IEAAXV?$_List_unchecked_iterator@V?$_List_val@U?$_List_simple_types@U?$pair@$$CBV?$basic_string@DU?$char_traits@D@std@@V?$allocator@D@2@@std@@PEAVElement@@@std@@@std@@@std@@@2@@Z
	?_End@?$_Hash@V?$_Umap_traits@V?$basic_string@DU?$char_traits@D@std@@V?$allocator@D@2@@std@@PEAVElement@@V?$_Uhash_compare@V?$basic_string@DU?$char_traits@D@std@@V?$allocator@D@2@@std@@U?$hash@V?$basic_string@DU?$char_traits@D@std@@V?$allocator@D@2@@std@@@2@U?$equal_to@V?$basic_string@DU?$char_traits@D@std@@V?$allocator@D@2@@std@@@2@@2@V?$allocator@U?$pair@$$CBV?$basic_string@DU?$char_traits@D@std@@V?$allocator@D@2@@std@@PEAVElement@@@std@@@2@$0A@@std@@@std@@IEAA?AV?$_List_unchecked_iterator@V?$_List_val@U?$_List_simple_types@U?$pair@$$CBV?$basic_string@DU?$char_traits@D@std@@V?$allocator@D@2@@std@@PEAVElement@@@std@@@std@@@std@@@2@_K@Z
	?_Endwrite@?$basic_filebuf@DU?$char_traits@D@std@@@std@@IEAA_NXZ
	?_Eos@?$basic_string@DU?$char_traits@D@std@@V?$allocator@D@2@@std@@QEAAX_K@Z
	?_Equal@?$istream_iterator@V?$basic_string@DU?$char_traits@D@std@@V?$allocator@D@2@@std@@DU?$char_traits@D@2@_J@std@@QEBA_NAEBV12@@Z
	?_Erase_bucket@?$_Hash@V?$_Umap_traits@V?$basic_string@DU?$char_traits@D@std@@V?$allocator@D@2@@std@@PEAVElement@@V?$_Uhash_compare@V?$basic_string@DU?$char_traits@D@std@@V?$allocator@D@2@@std@@U?$hash@V?$basic_string@DU?$char_traits@D@std@@V?$allocator@D@2@@std@@@2@U?$equal_to@V?$basic_string@DU?$char_traits@D@std@@V?$allocator@D@2@@std@@@2@@2@V?$allocator@U?$pair@$$CBV?$basic_string@DU?$char_traits@D@std@@V?$allocator@D@2@@std@@PEAVElement@@@std@@@2@$0A@@std@@@std@@IEAAXV?$_List_iterator@V?$_List_val@U?$_List_simple_types@U?$pair@$$CBV?$basic_string@DU?$char_traits@D@std@@V?$allocator@D@2@@std@@PEAVElement@@@std@@@std@@@std@@@2@_K@Z
	?_Free_proxy@?$_List_alloc@U?$_List_base_types@U?$pair@$$CBV?$basic_string@DU?$char_traits@D@std@@V?$allocator@D@2@@std@@PEAVElement@@@std@@V?$allocator@U?$pair@$$CBV?$basic_string@DU?$char_traits@D@std@@V?$allocator@D@2@@std@@PEAVElement@@@std@@@2@@std@@@std@@QEAAXXZ
	?_Free_proxy@?$_List_alloc@U?$_List_base_types@VDemand@@V?$allocator@VDemand@@@std@@@std@@@std@@QEAAXXZ
	?_Free_proxy@?$_String_alloc@U?$_String_base_types@DV?$allocator@D@std@@@std@@@std@@QEAAXXZ
	?_Free_proxy@?$_Vector_alloc@U?$_Vec_base_types@DV?$allocator@D@std@@@std@@@std@@QEAAXXZ
	?_Free_proxy@?$_Vector_alloc@U?$_Vec_base_types@HV?$allocator@H@std@@@std@@@std@@QEAAXXZ
	?_Free_proxy@?$_Vector_alloc@U?$_Vec_base_types@NV?$allocator@N@std@@@std@@@std@@QEAAXXZ
	?_Free_proxy@?$_Vector_alloc@U?$_Vec_base_types@PEAUSegment@@V?$allocator@PEAUSegment@@@std@@@std@@@std@@QEAAXXZ
	?_Free_proxy@?$_Vector_alloc@U?$_Vec_base_types@PEAVControl@@V?$allocator@PEAVControl@@@std@@@std@@@std@@QEAAXXZ
	?_Free_proxy@?$_Vector_alloc@U?$_Vec_base_types@PEAVCurve@@V?$allocator@PEAVCurve@@@std@@@std@@@std@@QEAAXXZ
	?_Free_proxy@?$_Vector_alloc@U?$_Vec_base_types@PEAVLink@@V?$allocator@PEAVLink@@@std@@@std@@@std@@QEAAXXZ
	?_Free_proxy@?$_Vector_alloc@U?$_Vec_base_types@PEAVNode@@V?$allocator@PEAVNode@@@std@@@std@@@std@@QEAAXXZ
	?_Free_proxy@?$_Vector_alloc@U?$_Vec_base_types@PEAVPattern@@V?$allocator@PEAVPattern@@@std@@@std@@@std@@QEAAXXZ
	?_Free_proxy@?$_Vector_alloc@U?$_Vec_base_types@V?$_List_unchecked_iterator@V?$_List_val@U?$_List_simple_types@U?$pair@$$CBV?$basic_string@DU?$char_traits@D@std@@V?$allocator@D@2@@std@@PEAVElement@@@std@@@std@@@std@@@std@@U?$_Wrap_alloc@V?$allocator@V?$_List_unchecked_iterator@V?$_List_val@U?$_List_simple_types@U?$pair@$$CBV?$basic_string@DU?$char_traits@D@std@@V?$allocator@D@2@@std@@PEAVElement@@@std@@@std@@@std@@@std@@@std@@@2@@std@@@std@@QEAAXXZ
	?_Free_proxy@?$_Vector_alloc@U?$_Vec_base_types@V?$basic_string@DU?$char_traits@D@std@@V?$allocator@D@2@@std@@V?$allocator@V?$basic_string@DU?$char_traits@D@std@@V?$allocator@D@2@@std@@@2@@std@@@std@@QEAAXXZ
	?_Freeheadnode@?$_List_alloc@U?$_List_base_types@U?$pair@$$CBV?$basic_string@DU?$char_traits@D@std@@V?$allocator@D@2@@std@@PEAVElement@@@std@@V?$allocator@U?$pair@$$CBV?$basic_string@DU?$char_traits@D@std@@V?$allocator@D@2@@std@@PEAVElement@@@std@@@2@@std@@@std@@QEAAXPEAU?$_List_node@U?$pair@$$CBV?$basic_string@DU?$char_traits@D@std@@V?$allocator@D@2@@std@@PEAVElement@@@std@@PEAX@2@@Z
	?_Freeheadnode@?$_List_alloc@U?$_List_base_types@VDemand@@V?$allocator@VDemand@@@std@@@std@@@std@@QEAAXPEAU?$_List_node@VDemand@@PEAX@2@@Z
	?_Freenode@?$_List_buy@U?$pair@$$CBV?$basic_string@DU?$char_traits@D@std@@V?$allocator@D@2@@std@@PEAVElement@@@std@@V?$allocator@U?$pair@$$CBV?$basic_string@DU?$char_traits@D@std@@V?$allocator@D@2@@std@@PEAVElement@@@std@@@2@@std@@QEAAXPEAU?$_List_node@U?$pair@$$CBV?$basic_string@DU?$char_traits@D@std@@V?$allocator@D@2@@std@@PEAVElement@@@std@@PEAX@2@@Z
	?_Freenode@?$_List_buy@VDemand@@V?$allocator@VDemand@@@std@@@std@@QEAAXPEAU?$_List_node@VDemand@@PEAX@2@@Z
	?_Get_data@?$_List_alloc@U?$_List_base_types@U?$pair@$$CBV?$basic_string@DU?$char_traits@D@std@@V?$allocator@D@2@@std@@PEAVElement@@@std@@V?$allocator@U?$pair@$$CBV?$basic_string@DU?$char_traits@D@std@@V?$allocator@D@2@@std@@PEAVElement@@@std@@@2@@std@@@std@@QEAAAEAV?$_List_val@U?$_List_simple_types@U?$pair@$$CBV?$basic_string@DU?$char_traits@D@std@@V?$allocator@D@2@@std@@PEAVElement@@@std@@@std@@@2@XZ
	?_Get_data@?$_List_alloc@U?$_List_base_types@U?$pair@$$CBV?$basic_string@DU?$char_traits@D@std@@V?$allocator@D@2@@std@@PEAVElement@@@std@@V?$allocator@U?$pair@$$CBV?$basic_string@DU?$char_traits@D@std@@V?$allocator@D@2@@std@@PEAVElement@@@std@@@2@@std@@@std@@QEBAAEBV?$_List_val@U?$_List_simple_types@U?$pair@$$CBV?$basic_string@DU?$char_traits@D@std@@V?$allocator@D@2@@std@@PEAVElement@@@std@@@std@@@2@XZ
	?_Get_data@?$_List_alloc@U?$_List_base_types@VDemand@@V?$allocator@VDemand@@@std@@@std@@@std@@QEAAAEAV?$_List_val@U?$_List_simple_types@VDemand@@@std@@@2@XZ
	?_Get_data@?$_List_alloc@U?$_List_base_types@VDemand@@V?$allocator@VDemand@@@std@@@std@@@std@@QEBAAEBV?$_List_val@U?$_List_simple_types@VDemand@@@std@@@2@XZ
	?_Get_data@?$_String_alloc@U?$_String_base_types@DV?$allocator@D@std@@@std@@@std@@QEAAAEAV?$_String_val@U?$_Simple_types@D@std@@@2@XZ
	?_Get_data@?$_String_alloc@U?$_String_base_types@DV?$allocator@D@std@@@std@@@std@@QEBAAEBV?$_String_val@U?$_Simple_types@D@std@@@2@XZ
	?_Get_data@?$_Vector_alloc@U?$_Vec_base_types@DV?$allocator@D@std@@@std@@@std@@QEAAAEAV?$_Vector_val@U?$_Simple_types@D@std@@@2@XZ
	?_Get_data@?$_Vector_alloc@U?$_Vec_base_types@DV?$allocator@D@std@@@std@@@std@@QEBAAEBV?$_Vector_val@U?$_Simple_types@D@std@@@2@XZ
	?_Get_data@?$_Vector_alloc@U?$_Vec_base_types@HV?$allocator@H@std@@@std@@@std@@QEAAAEAV?$_Vector_val@U?$_Simple_types@H@std@@@2@XZ
	?_Get_data@?$_Vector_alloc@U?$_Vec_base_types@HV?$allocator@H@std@@@std@@@std@@QEBAAEBV?$_Vector_val@U?$_Simple_types@H@std@@@2@XZ
	?_Get_data@?$_Vector_alloc@U?$_Vec_base_types@NV?$allocator@N@std@@@std@@@std@@QEAAAEAV?$_Vector_val@U?$_Simple_types@N@std@@@2@XZ
	?_Get_data@?$_Vector_alloc@U?$_Vec_base_types@NV?$allocator@N@std@@@std@@@std@@QEBAAEBV?$_Vector_val@U?$_Simple_types@N@std@@@2@XZ
	?_Get_data@?$_Vector_alloc@U?$_Vec_base_types@PEAUSegment@@V?$allocator@PEAUSegment@@@std@@@std@@@std@@QEAAAEAV?$_Vector_val@U?$_Simple_types@PEAUSegment@@@std@@@2@XZ
	?_Get_data@?$_Vector_alloc@U?$_Vec_base_types@PEAUSegment@@V?$allocator@PEAUSegment@@@std@@@std@@@std@@QEBAAEBV?$_Vector_val@U?$_Simple_types@PEAUSegment@@@std@@@2@XZ
	?_Get_data@?$_Vector_alloc@U?$_Vec_base_types@PEAVControl@@V?$allocator@PEAVControl@@@std@@@std@@@std@@QEAAAEAV?$_Vector_val@U?$_Simple_types@PEAVControl@@@std@@@2@XZ
	?_Get_data@?$_Vector_alloc@U?$_Vec_base_types@PEAVControl@@V?$allocator@PEAVControl@@@std@@@std@@@std@@QEBAAEBV?$_Vector_val@U?$_Simple_types@PEAVControl@@@std@@@2@XZ
	?_Get_data@?$_Vector_alloc@U?$_Vec_base_types@PEAVCurve@@V?$allocator@PEAVCurve@@@std@@@std@@@std@@QEAAAEAV?$_Vector_val@U?$_Simple_types@PEAVCurve@@@std@@@2@XZ
	?_Get_data@?$_Vector_alloc@U?$_Vec_base_types@PEAVCurve@@V?$allocator@PEAVCurve@@@std@@@std@@@std@@QEBAAEBV?$_Vector_val@U?$_Simple_types@PEAVCurve@@@std@@@2@XZ
	?_Get_data@?$_Vector_alloc@U?$_Vec_base_types@PEAVLink@@V?$allocator@PEAVLink@@@std@@@std@@@std@@QEAAAEAV?$_Vector_val@U?$_Simple_types@PEAVLink@@@std@@@2@XZ
	?_Get_data@?$_Vector_alloc@U?$_Vec_base_types@PEAVLink@@V?$allocator@PEAVLink@@@std@@@std@@@std@@QEBAAEBV?$_Vector_val@U?$_Simple_types@PEAVLink@@@std@@@2@XZ
	?_Get_data@?$_Vector_alloc@U?$_Vec_base_types@PEAVNode@@V?$allocator@PEAVNode@@@std@@@std@@@std@@QEAAAEAV?$_Vector_val@U?$_Simple_types@PEAVNode@@@std@@@2@XZ
	?_Get_data@?$_Vector_alloc@U?$_Vec_base_types@PEAVNode@@V?$allocator@PEAVNode@@@std@@@std@@@std@@QEBAAEBV?$_Vector_val@U?$_Simple_types@PEAVNode@@@std@@@2@XZ
	?_Get_data@?$_Vector_alloc@U?$_Vec_base_types@PEAVPattern@@V?$allocator@PEAVPattern@@@std@@@std@@@std@@QEAAAEAV?$_Vector_val@U?$_Simple_types@PEAVPattern@@@std@@@2@XZ
	?_Get_data@?$_Vector_alloc@U?$_Vec_base_types@PEAVPattern@@V?$allocator@PEAVPattern@@@std@@@std@@@std@@QEBAAEBV?$_Vector_val@U?$_Simple_types@PEAVPattern@@@std@@@2@XZ
	?_Get_data@?$_Vector_alloc@U?$_Vec_base_types@V?$_List_unchecked_iterator@V?$_List_val@U?$_List_simple_types@U?$pair@$$CBV?$basic_string@DU?$char_traits@D@std@@V?$allocator@D@2@@std@@PEAVElement@@@std@@@std@@@std@@@std@@U?$_Wrap_alloc@V?$allocator@V?$_List_unchecked_iterator@V?$_List_val@U?$_List_simple_types@U?$pair@$$CBV?$basic_string@DU?$char_traits@D@std@@V?$allocator@D@2@@std@@PEAVElement@@@std@@@std@@@std@@@std@@@std@@@2@@std@@@std@@QEAAAEAV?$_Vector_val@U?$_Simple_types@V?$_List_unchecked_iterator@V?$_List_val@U?$_List_simple_types@U?$pair@$$CBV?$basic_string@DU?$char_traits@D@std@@V?$allocator@D@2@@std@@PEAVElement@@@std@@@std@@@std@@@std@@@std@@@2@XZ
	?_Get_data@?$_Vector_alloc@U?$_Vec_base_types@V?$_List_unchecked_iterator@V?$_List_val@U?$_List_simple_types@U?$pair@$$CBV?$basic_string@DU?$char_traits@D@std@@V?$allocator@D@2@@std@@PEAVElement@@@std@@@std@@@std@@@std@@U?$_Wrap_alloc@V?$allocator@V?$_List_unchecked_iterator@V?$_List_val@U?$_List_simple_types@U?$pair@$$CBV?$basic_string@DU?$char_traits@D@std@@V?$allocator@D@2@@std@@PEAVElement@@@std@@@std@@@std@@@std@@@std@@@2@@std@@@std@@QEBAAEBV?$_Vector_val@U?$_Simple_types@V?$_List_unchecked_iterator@V?$_List_val@U?$_List_simple_types@U?$pair@$$CBV?$basic_string@DU?$char_traits@D@std@@V?$allocator@D@2@@std@@PEAVElement@@@std@@@std@@@std@@@std@@@std@@@2@XZ
	?_Get_data@?$_Vector_alloc@U?$_Vec_base_types@V?$basic_string@DU?$char_traits@D@std@@V?$allocator@D@2@@std@@V?$allocator@V?$basic_string@DU?$char_traits@D@std@@V?$allocator@D@2@@std@@@2@@std@@@std@@QEAAAEAV?$_Vector_val@U?$_Simple_types@V?$basic_string@DU?$char_traits@D@std@@V?$allocator@D@2@@std@@@std@@@2@XZ
	?_Get_data@?$_Vector_alloc@U?$_Vec_base_types@V?$basic_string@DU?$char_traits@D@std@@V?$allocator@D@2@@std@@V?$allocator@V?$basic_string@DU?$char_traits@D@std@@V?$allocator@D@2@@std@@@2@@std@@@std@@QEBAAEBV?$_Vector_val@U?$_Simple_types@V?$basic_string@DU?$char_traits@D@std@@V?$allocator@D@2@@std@@@std@@@2@XZ
	?_Get_first@?$_Compressed_pair@U?$_Wrap_alloc@U?$_Wrap_alloc@V?$allocator@V?$_List_unchecked_iterator@V?$_List_val@U?$_List_simple_types@U?$pair@$$CBV?$basic_string@DU?$char_traits@D@std@@V?$allocator@D@2@@std@@PEAVElement@@@std@@@std@@@std@@@std@@@std@@@std@@@std@@V?$_Vector_val@U?$_Simple_types@V?$_List_unchecked_iterator@V?$_List_val@U?$_List_simple_types@U?$pair@$$CBV?$basic_string@DU?$char_traits@D@std@@V?$allocator@D@2@@std@@PEAVElement@@@std@@@std@@@std@@@std@@@std@@@2@$00@std@@QEAAAEAU?$_Wrap_alloc@U?$_Wrap_alloc@V?$allocator@V?$_List_unchecked_iterator@V?$_List_val@U?$_List_simple_types@U?$pair@$$CBV?$basic_string@DU?$char_traits@D@std@@V?$allocator@D@2@@std@@PEAVElement@@@std@@@std@@@std@@@std@@@std@@@std@@@2@XZ
	?_Get_first@?$_Compressed_pair@U?$_Wrap_alloc@U?$_Wrap_alloc@V?$allocator@V?$_List_unchecked_iterator@V?$_List_val@U?$_List_simple_types@U?$pair@$$CBV?$basic_string@DU?$char_traits@D@std@@V?$allocator@D@2@@std@@PEAVElement@@@std@@@std@@@std@@@std@@@std@@@std@@@std@@V?$_Vector_val@U?$_Simple_types@V?$_List_unchecked_iterator@V?$_List_val@U?$_List_simple_types@U?$pair@$$CBV?$basic_string@DU?$char_traits@D@std@@V?$allocator@D@2@@std@@PEAVElement@@@std@@@std@@@std@@@std@@@std@@@2@$00@std@@QEBAAEBU?$_Wrap_alloc@U?$_Wrap_alloc@V?$allocator@V?$_List_unchecked_iterator@V?$_List_val@U?$_List_simple_types@U?$pair@$$CBV?$basic_string@DU?$char_traits@D@std@@V?$allocator@D@2@@std@@PEAVElement@@@std@@@std@@@std@@@std@@@std@@@std@@@2@XZ
	?_Get_first@?$_Compressed_pair@U?$_Wrap_alloc@V?$allocator@D@std@@@std@@V?$_String_val@U?$_Simple_types@D@std@@@2@$00@std@@QEAAAEAU?$_Wrap_alloc@V?$allocator@D@std@@@2@XZ
	?_Get_first@?$_Compressed_pair@U?$_Wrap_alloc@V?$allocator@D@std@@@std@@V?$_String_val@U?$_Simple_types@D@std@@@2@$00@std@@QEBAAEBU?$_Wrap_alloc@V?$allocator@D@std@@@2@XZ
	?_Get_first@?$_Compressed_pair@U?$_Wrap_alloc@V?$allocator@D@std@@@std@@V?$_Vector_val@U?$_Simple_types@D@std@@@2@$00@std@@QEAAAEAU?$_Wrap_alloc@V?$allocator@D@std@@@2@XZ
	?_Get_first@?$_Compressed_pair@U?$_Wrap_alloc@V?$allocator@D@std@@@std@@V?$_Vector_val@U?$_Simple_types@D@std@@@2@$00@std@@QEBAAEBU?$_Wrap_alloc@V?$allocator@D@std@@@2@XZ
	?_Get_first@?$_Compressed_pair@U?$_Wrap_alloc@V?$allocator@H@std@@@std@@V?$_Vector_val@U?$_Simple_types@H@std@@@2@$00@std@@QEAAAEAU?$_Wrap_alloc@V?$allocator@H@std@@@2@XZ
	?_Get_first@?$_Compressed_pair@U?$_Wrap_alloc@V?$allocator@H@std@@@std@@V?$_Vector_val@U?$_Simple_types@H@std@@@2@$00@std@@QEBAAEBU?$_Wrap_alloc@V?$allocator@H@std@@@2@XZ
	?_Get_first@?$_Compressed_pair@U?$_Wrap_alloc@V?$allocator@N@std@@@std@@V?$_Vector_val@U?$_Simple_types@N@std@@@2@$00@std@@QEAAAEAU?$_Wrap_alloc@V?$allocator@N@std@@@2@XZ
	?_Get_first@?$_Compressed_pair@U?$_Wrap_alloc@V?$allocator@N@std@@@std@@V?$_Vector_val@U?$_Simple_types@N@std@@@2@$00@std@@QEBAAEBU?$_Wrap_alloc@V?$allocator@N@std@@@2@XZ
	?_Get_first@?$_Compressed_pair@U?$_Wrap_alloc@V?$allocator@PEAUSegment@@@std@@@std@@V?$_Vector_val@U?$_Simple_types@PEAUSegment@@@std@@@2@$00@std@@QEAAAEAU?$_Wrap_alloc@V?$allocator@PEAUSegment@@@std@@@2@XZ
	?_Get_first@?$_Compressed_pair@U?$_Wrap_alloc@V?$allocator@PEAUSegment@@@std@@@std@@V?$_Vector_val@U?$_Simple_types@PEAUSegment@@@std@@@2@$00@std@@QEBAAEBU?$_Wrap_alloc@V?$allocator@PEAUSegment@@@std@@@2@XZ
	?_Get_first@?$_Compressed_pair@U?$_Wrap_alloc@V?$allocator@PEAVControl@@@std@@@std@@V?$_Vector_val@U?$_Simple_types@PEAVControl@@@std@@@2@$00@std@@QEAAAEAU?$_Wrap_alloc@V?$allocator@PEAVControl@@@std@@@2@XZ
	?_Get_first@?$_Compressed_pair@U?$_Wrap_alloc@V?$allocator@PEAVControl@@@std@@@std@@V?$_Vector_val@U?$_Simple_types@PEAVControl@@@std@@@2@$00@std@@QEBAAEBU?$_Wrap_alloc@V?$allocator@PEAVControl@@@std@@@2@XZ
	?_Get_first@?$_Compressed_pair@U?$_Wrap_alloc@V?$allocator@PEAVCurve@@@std@@@std@@V?$_Vector_val@U?$_Simple_types@PEAVCurve@@@std@@@2@$00@std@@QEAAAEAU?$_Wrap_alloc@V?$allocator@PEAVCurve@@@std@@@2@XZ
	?_Get_first@?$_Compressed_pair@U?$_Wrap_alloc@V?$allocator@PEAVCurve@@@std@@@std@@V?$_Vector_val@U?$_Simple_types@PEAVCurve@@@std@@@2@$00@std@@QEBAAEBU?$_Wrap_alloc@V?$allocator@PEAVCurve@@@std@@@2@XZ
	?_Get_first@?$_Compressed_pair@U?$_Wrap_alloc@V?$allocator@PEAVLink@@@std@@@std@@V?$_Vector_val@U?$_Simple_types@PEAVLink@@@std@@@2@$00@std@@QEAAAEAU?$_Wrap_alloc@V?$allocator@PEAVLink@@@std@@@2@XZ
	?_Get_first@?$_Compressed_pair@U?$_Wrap_alloc@V?$allocator@PEAVLink@@@std@@@std@@V?$_Vector_val@U?$_Simple_types@PEAVLink@@@std@@@2@$00@std@@QEBAAEBU?$_Wrap_alloc@V?$allocator@PEAVLink@@@std@@@2@XZ
	?_Get_first@?$_Compressed_pair@U?$_Wrap_alloc@V?$allocator@PEAVNode@@@std@@@std@@V?$_Vector_val@U?$_Simple_types@PEAVNode@@@std@@@2@$00@std@@QEAAAEAU?$_Wrap_alloc@V?$allocator@PEAVNode@@@std@@@2@XZ
	?_Get_first@?$_Compressed_pair@U?$_Wrap_alloc@V?$allocator@PEAVNode@@@std@@@std@@V?$_Vector_val@U?$_Simple_types@PEAVNode@@@std@@@2@$00@std@@QEBAAEBU?$_Wrap_alloc@V?$allocator@PEAVNode@@@std@@@2@XZ
	?_Get_first@?$_Compressed_pair@U?$_Wrap_alloc@V?$allocator@PEAVPattern@@@std@@@std@@V?$_Vector_val@U?$_Simple_types@PEAVPattern@@@std@@@2@$00@std@@QEAAAEAU?$_Wrap_alloc@V?$allocator@PEAVPattern@@@std@@@2@XZ
	?_Get_first@?$_Compressed_pair@U?$_Wrap_alloc@V?$allocator@PEAVPattern@@@std@@@std@@V?$_Vector_val@U?$_Simple_types@PEAVPattern@@@std@@@2@$00@std@@QEBAAEBU?$_Wrap_alloc@V?$allocator@PEAVPattern@@@std@@@2@XZ
	?_Get_first@?$_Compressed_pair@U?$_Wrap_alloc@V?$allocator@U?$_List_node@U?$pair@$$CBV?$basic_string@DU?$char_traits@D@std@@V?$allocator@D@2@@std@@PEAVElement@@@std@@PEAX@std@@@std@@@std@@V?$_List_val@U?$_List_simple_types@U?$pair@$$CBV?$basic_string@DU?$char_traits@D@std@@V?$allocator@D@2@@std@@PEAVElement@@@std@@@std@@@2@$00@std@@QEAAAEAU?$_Wrap_alloc@V?$allocator@U?$_List_node@U?$pair@$$CBV?$basic_string@DU?$char_traits@D@std@@V?$allocator@D@2@@std@@PEAVElement@@@std@@PEAX@std@@@std@@@2@XZ
	?_Get_first@?$_Compressed_pair@U?$_Wrap_alloc@V?$allocator@U?$_List_node@U?$pair@$$CBV?$basic_string@DU?$char_traits@D@std@@V?$allocator@D@2@@std@@PEAVElement@@@std@@PEAX@std@@@std@@@std@@V?$_List_val@U?$_List_simple_types@U?$pair@$$CBV?$basic_string@DU?$char_traits@D@std@@V?$allocator@D@2@@std@@PEAVElement@@@std@@@std@@@2@$00@std@@QEBAAEBU?$_Wrap_alloc@V?$allocator@U?$_List_node@U?$pair@$$CBV?$basic_string@DU?$char_traits@D@std@@V?$allocator@D@2@@std@@PEAVElement@@@std@@PEAX@std@@@std@@@2@XZ
	?_Get_first@?$_Compressed_pair@U?$_Wrap_alloc@V?$allocator@U?$_List_node@VDemand@@PEAX@std@@@std@@@std@@V?$_List_val@U?$_List_simple_types@VDemand@@@std@@@2@$00@std@@QEAAAEAU?$_Wrap_alloc@V?$allocator@U?$_List_node@VDemand@@PEAX@std@@@std@@@2@XZ
	?_Get_first@?$_Compressed_pair@U?$_Wrap_alloc@V?$allocator@U?$_List_node@VDemand@@PEAX@std@@@std@@@std@@V?$_List_val@U?$_List_simple_types@VDemand@@@std@@@2@$00@std@@QEBAAEBU?$_Wrap_alloc@V?$allocator@U?$_List_node@VDemand@@PEAX@std@@@std@@@2@XZ
	?_Get_first@?$_Compressed_pair@U?$_Wrap_alloc@V?$allocator@V?$basic_string@DU?$char_traits@D@std@@V?$allocator@D@2@@std@@@std@@@std@@V?$_Vector_val@U?$_Simple_types@V?$basic_string@DU?$char_traits@D@std@@V?$allocator@D@2@@std@@@std@@@2@$00@std@@QEAAAEAU?$_Wrap_alloc@V?$allocator@V?$basic_string@DU?$char_traits@D@std@@V?$allocator@D@2@@std@@@std@@@2@XZ
	?_Get_first@?$_Compressed_pair@U?$_Wrap_alloc@V?$allocator@V?$basic_string@DU?$char_traits@D@std@@V?$allocator@D@2@@std@@@std@@@std@@V?$_Vector_val@U?$_Simple_types@V?$basic_string@DU?$char_traits@D@std@@V?$allocator@D@2@@std@@@std@@@2@$00@std@@QEBAAEBU?$_Wrap_alloc@V?$allocator@V?$basic_string@DU?$char_traits@D@std@@V?$allocator@D@2@@std@@@std@@@2@XZ
	?_Get_first@?$_Compressed_pair@U?$equal_to@V?$basic_string@DU?$char_traits@D@std@@V?$allocator@D@2@@std@@@std@@M$00@std@@QEBAAEBU?$equal_to@V?$basic_string@DU?$char_traits@D@std@@V?$allocator@D@2@@std@@@2@XZ
	?_Get_first@?$_Compressed_pair@U?$hash@V?$basic_string@DU?$char_traits@D@std@@V?$allocator@D@2@@std@@@std@@V?$_Compressed_pair@U?$equal_to@V?$basic_string@DU?$char_traits@D@std@@V?$allocator@D@2@@std@@@std@@M$00@2@$00@std@@QEBAAEBU?$hash@V?$basic_string@DU?$char_traits@D@std@@V?$allocator@D@2@@std@@@2@XZ
	?_Get_max_bucket_size@?$_Uhash_compare@V?$basic_string@DU?$char_traits@D@std@@V?$allocator@D@2@@std@@U?$hash@V?$basic_string@DU?$char_traits@D@std@@V?$allocator@D@2@@std@@@2@U?$equal_to@V?$basic_string@DU?$char_traits@D@std@@V?$allocator@D@2@@std@@@2@@std@@QEAAAEAMXZ
	?_Get_max_bucket_size@?$_Uhash_compare@V?$basic_string@DU?$char_traits@D@std@@V?$allocator@D@2@@std@@U?$hash@V?$basic_string@DU?$char_traits@D@std@@V?$allocator@D@2@@std@@@2@U?$equal_to@V?$basic_string@DU?$char_traits@D@std@@V?$allocator@D@2@@std@@@2@@std@@QEBAAEBMXZ
	?_Get_second@?$_Compressed_pair@U?$_Wrap_alloc@U?$_Wrap_alloc@V?$allocator@V?$_List_unchecked_iterator@V?$_List_val@U?$_List_simple_types@U?$pair@$$CBV?$basic_string@DU?$char_traits@D@std@@V?$allocator@D@2@@std@@PEAVElement@@@std@@@std@@@std@@@std@@@std@@@std@@@std@@V?$_Vector_val@U?$_Simple_types@V?$_List_unchecked_iterator@V?$_List_val@U?$_List_simple_types@U?$pair@$$CBV?$basic_string@DU?$char_traits@D@std@@V?$allocator@D@2@@std@@PEAVElement@@@std@@@std@@@std@@@std@@@std@@@2@$00@std@@QEAAAEAV?$_Vector_val@U?$_Simple_types@V?$_List_unchecked_iterator@V?$_List_val@U?$_List_simple_types@U?$pair@$$CBV?$basic_string@DU?$char_traits@D@std@@V?$allocator@D@2@@std@@PEAVElement@@@std@@@std@@@std@@@std@@@std@@@2@XZ
	?_Get_second@?$_Compressed_pair@U?$_Wrap_alloc@U?$_Wrap_alloc@V?$allocator@V?$_List_unchecked_iterator@V?$_List_val@U?$_List_simple_types@U?$pair@$$CBV?$basic_string@DU?$char_traits@D@std@@V?$allocator@D@2@@std@@PEAVElement@@@std@@@std@@@std@@@std@@@std@@@std@@@std@@V?$_Vector_val@U?$_Simple_types@V?$_List_unchecked_iterator@V?$_List_val@U?$_List_simple_types@U?$pair@$$CBV?$basic_string@DU?$char_traits@D@std@@V?$allocator@D@2@@std@@PEAVElement@@@std@@@std@@@std@@@std@@@std@@@2@$00@std@@QEBAAEBV?$_Vector_val@U?$_Simple_types@V?$_List_unchecked_iterator@V?$_List_val@U?$_List_simple_types@U?$pair@$$CBV?$basic_string@DU?$char_traits@D@std@@V?$allocator@D@2@@std@@PEAVElement@@@std@@@std@@@std@@@std@@@std@@@2@XZ
	?_Get_second@?$_Compressed_pair@U?$_Wrap_alloc@V?$allocator@D@std@@@std@@V?$_String_val@U?$_Simple_types@D@std@@@2@$00@std@@QEAAAEAV?$_String_val@U?$_Simple_types@D@std@@@2@XZ
	?_Get_second@?$_Compressed_pair@U?$_Wrap_alloc@V?$allocator@D@std@@@std@@V?$_String_val@U?$_Simple_types@D@std@@@2@$00@std@@QEBAAEBV?$_String_val@U?$_Simple_types@D@std@@@2@XZ
	?_Get_second@?$_Compressed_pair@U?$_Wrap_alloc@V?$allocator@D@std@@@std@@V?$_Vector_val@U?$_Simple_types@D@std@@@2@$00@std@@QEAAAEAV?$_Vector_val@U?$_Simple_types@D@std@@@2@XZ
	?_Get_second@?$_Compressed_pair@U?$_Wrap_alloc@V?$allocator@D@std@@@std@@V?$_Vector_val@U?$_Simple_types@D@std@@@2@$00@std@@QEBAAEBV?$_Vector_val@U?$_Simple_types@D@std@@@2@XZ
	?_Get_second@?$_Compressed_pair@U?$_Wrap_alloc@V?$allocator@H@std@@@std@@V?$_Vector_val@U?$_Simple_types@H@std@@@2@$00@std@@QEAAAEAV?$_Vector_val@U?$_Simple_types@H@std@@@2@XZ
	?_Get_second@?$_Compressed_pair@U?$_Wrap_alloc@V?$allocator@H@std@@@std@@V?$_Vector_val@U?$_Simple_types@H@std@@@2@$00@std@@QEBAAEBV?$_Vector_val@U?$_Simple_types@H@std@@@2@XZ
	?_Get_second@?$_Compressed_pair@U?$_Wrap_alloc@V?$allocator@N@std@@@std@@V?$_Vector_val@U?$_Simple_types@N@std@@@2@$00@std@@QEAAAEAV?$_Vector_val@U?$_Simple_types@N@std@@@2@XZ
	?_Get_second@?$_Compressed_pair@U?$_Wrap_alloc@V?$allocator@N@std@@@std@@V?$_Vector_val@U?$_Simple_types@N@std@@@2@$00@std@@QEBAAEBV?$_Vector_val@U?$_Simple_types@N@std@@@2@XZ
	?_Get_second@?$_Compressed_pair@U?$_Wrap_alloc@V?$allocator@PEAUSegment@@@std@@@std@@V?$_Vector_val@U?$_Simple_types@PEAUSegment@@@std@@@2@$00@std@@QEAAAEAV?$_Vector_val@U?$_Simple_types@PEAUSegment@@@std@@@2@XZ
	?_Get_second@?$_Compressed_pair@U?$_Wrap_alloc@V?$allocator@PEAUSegment@@@std@@@std@@V?$_Vector_val@U?$_Simple_types@PEAUSegment@@@std@@@2@$00@std@@QEBAAEBV?$_Vector_val@U?$_Simple_types@PEAUSegment@@@std@@@2@XZ
	?_Get_second@?$_Compressed_pair@U?$_Wrap_alloc@V?$allocator@PEAVControl@@@std@@@std@@V?$_Vector_val@U?$_Simple_types@PEAVControl@@@std@@@2@$00@std@@QEAAAEAV?$_Vector_val@U?$_Simple_types@PEAVControl@@@std@@@2@XZ
	?_Get_second@?$_Compressed_pair@U?$_Wrap_alloc@V?$allocator@PEAVControl@@@std@@@std@@V?$_Vector_val@U?$_Simple_types@PEAVControl@@@std@@@2@$00@std@@QEBAAEBV?$_Vector_val@U?$_Simple_types@PEAVControl@@@std@@@2@XZ
	?_Get_second@?$_Compressed_pair@U?$_Wrap_alloc@V?$allocator@PEAVCurve@@@std@@@std@@V?$_Vector_val@U?$_Simple_types@PEAVCurve@@@std@@@2@$00@std@@QEAAAEAV?$_Vector_val@U?$_Simple_types@PEAVCurve@@@std@@@2@XZ
	?_Get_second@?$_Compressed_pair@U?$_Wrap_alloc@V?$allocator@PEAVCurve@@@std@@@std@@V?$_Vector_val@U?$_Simple_types@PEAVCurve@@@std@@@2@$00@std@@QEBAAEBV?$_Vector_val@U?$_Simple_types@PEAVCurve@@@std@@@2@XZ
	?_Get_second@?$_Compressed_pair@U?$_Wrap_alloc@V?$allocator@PEAVLink@@@std@@@std@@V?$_Vector_val@U?$_Simple_types@PEAVLink@@@std@@@2@$00@std@@QEAAAEAV?$_Vector_val@U?$_Simple_types@PEAVLink@@@std@@@2@XZ
	?_Get_second@?$_Compressed_pair@U?$_Wrap_alloc@V?$allocator@PEAVLink@@@std@@@std@@V?$_Vector_val@U?$_Simple_types@PEAVLink@@@std@@@2@$00@std@@QEBAAEBV?$_Vector_val@U?$_Simple_types@PEAVLink@@@std@@@2@XZ
	?_Get_second@?$_Compressed_pair@U?$_Wrap_alloc@V?$allocator@PEAVNode@@@std@@@std@@V?$_Vector_val@U?$_Simple_types@PEAVNode@@@std@@@2@$00@std@@QEAAAEAV?$_Vector_val@U?$_Simple_types@PEAVNode@@@std@@@2@XZ
	?_Get_second@?$_Compressed_pair@U?$_Wrap_alloc@V?$allocator@PEAVNode@@@std@@@std@@V?$_Vector_val@U?$_Simple_types@PEAVNode@@@std@@@2@$00@std@@QEBAAEBV?$_Vector_val@U?$_Simple_types@PEAVNode@@@std@@@2@XZ
	?_Get_second@?$_Compressed_pair@U?$_Wrap_alloc@V?$allocator@PEAVPattern@@@std@@@std@@V?$_Vector_val@U?$_Simple_types@PEAVPattern@@@std@@@2@$00@std@@QEAAAEAV?$_Vector_val@U?$_Simple_types@PEAVPattern@@@std@@@2@XZ
	?_Get_second@?$_Compressed_pair@U?$_Wrap_alloc@V?$allocator@PEAVPattern@@@std@@@std@@V?$_Vector_val@U?$_Simple_types@PEAVPattern@@@std@@@2@$00@std@@QEBAAEBV?$_Vector_val@U?$_Simple_types@PEAVPattern@@@std@@@2@XZ
	?_Get_second@?$_Compressed_pair@U?$_Wrap_alloc@V?$allocator@U?$_List_node@U?$pair@$$CBV?$basic_string@DU?$char_traits@D@std@@V?$allocator@D@2@@std@@PEAVElement@@@std@@PEAX@std@@@std@@@std@@V?$_List_val@U?$_List_simple_types@U?$pair@$$CBV?$basic_string@DU?$char_traits@D@std@@V?$allocator@D@2@@std@@PEAVElement@@@std@@@std@@@2@$00@std@@QEAAAEAV?$_List_val@U?$_List_simple_types@U?$pair@$$CBV?$basic_string@DU?$char_traits@D@std@@V?$allocator@D@2@@std@@PEAVElement@@@std@@@std@@@2@XZ
	?_Get_second@?$_Compressed_pair@U?$_Wrap_alloc@V?$allocator@U?$_List_node@U?$pair@$$CBV?$basic_string@DU?$char_traits@D@std@@V?$allocator@D@2@@std@@PEAVElement@@@std@@PEAX@std@@@std@@@std@@V?$_List_val@U?$_List_simple_types@U?$pair@$$CBV?$basic_string@DU?$char_traits@D@std@@V?$allocator@D@2@@std@@PEAVElement@@@std@@@std@@@2@$00@std@@QEBAAEBV?$_List_val@U?$_List_simple_types@U?$pair@$$CBV?$basic_string@DU?$char_traits@D@std@@V?$allocator@D@2@@std@@PEAVElement@@@std@@@std@@@2@XZ
	?_Get_second@?$_Compressed_pair@U?$_Wrap_alloc@V?$allocator@U?$_List_node@VDemand@@PEAX@std@@@std@@@std@@V?$_List_val@U?$_List_simple_types@VDemand@@@std@@@2@$00@std@@QEAAAEAV?$_List_val@U?$_List_simple_types@VDemand@@@std@@@2@XZ
	?_Get_second@?$_Compressed_pair@U?$_Wrap_alloc@V?$allocator@U?$_List_node@VDemand@@PEAX@std@@@std@@@std@@V?$_List_val@U?$_List_simple_types@VDemand@@@std@@@2@$00@std@@QEBAAEBV?$_List_val@U?$_List_simple_types@VDemand@@@std@@@2@XZ
	?_Get_second@?$_Compressed_pair@U?$_Wrap_alloc@V?$allocator@V?$basic_string@DU?$char_traits@D@std@@V?$allocator@D@2@@std@@@std@@@std@@V?$_Vector_val@U?$_Simple_types@V?$basic_string@DU?$char_traits@D@std@@V?$allocator@D@2@@std@@@std@@@2@$00@std@@QEAAAEAV?$_Vector_val@U?$_Simple_types@V?$basic_string@DU?$char_traits@D@std@@V?$allocator@D@2@@std@@@std@@@2@XZ
	?_Get_second@?$_Compressed_pair@U?$_Wrap_alloc@V?$allocator@V?$basic_string@DU?$char_traits@D@std@@V?$allocator@D@2@@std@@@std@@@std@@V?$_Vector_val@U?$_Simple_types@V?$basic_string@DU?$char_traits@D@std@@V?$allocator@D@2@@std@@@std@@@2@$00@std@@QEBAAEBV?$_Vector_val@U?$_Simple_types@V?$basic_string@DU?$char_traits@D@std@@V?$allocator@D@2@@std@@@std@@@2@XZ
	?_Get_second@?$_Compressed_pair@U?$equal_to@V?$basic_string@DU?$char_traits@D@std@@V?$allocator@D@2@@std@@@std@@M$00@std@@QEAAAEAMXZ
	?_Get_second@?$_Compressed_pair@U?$equal_to@V?$basic_string@DU?$char_traits@D@std@@V?$allocator@D@2@@std@@@std@@M$00@std@@QEBAAEBMXZ
	?_Get_second@?$_Compressed_pair@U?$hash@V?$basic_string@DU?$char_traits@D@std@@V?$allocator@D@2@@std@@@std@@V?$_Compressed_pair@U?$equal_to@V?$basic_string@DU?$char_traits@D@std@@V?$allocator@D@2@@std@@@std@@M$00@2@$00@std@@QEAAAEAV?$_Compressed_pair@U?$equal_to@V?$basic_string@DU?$char_traits@D@std@@V?$allocator@D@2@@std@@@std@@M$00@2@XZ
	?_Get_second@?$_Compressed_pair@U?$hash@V?$basic_string@DU?$char_traits@D@std@@V?$allocator@D@2@@std@@@std@@V?$_Compressed_pair@U?$equal_to@V?$basic_string@DU?$char_traits@D@std@@V?$allocator@D@2@@std@@@std@@M$00@2@$00@std@@QEBAAEBV?$_Compressed_pair@U?$equal_to@V?$basic_string@DU?$char_traits@D@std@@V?$allocator@D@2@@std@@@std@@M$00@2@XZ
	?_Getal@?$_List_alloc@U?$_List_base_types@U?$pair@$$CBV?$basic_string@DU?$char_traits@D@std@@V?$allocator@D@2@@std@@PEAVElement@@@std@@V?$allocator@U?$pair@$$CBV?$basic_string@DU?$char_traits@D@std@@V?$allocator@D@2@@std@@PEAVElement@@@std@@@2@@std@@@std@@QEAAAEAU?$_Wrap_alloc@V?$allocator@U?$_List_node@U?$pair@$$CBV?$basic_string@DU?$char_traits@D@std@@V?$allocator@D@2@@std@@PEAVElement@@@std@@PEAX@std@@@std@@@2@XZ
	?_Getal@?$_List_alloc@U?$_List_base_types@U?$pair@$$CBV?$basic_string@DU?$char_traits@D@std@@V?$allocator@D@2@@std@@PEAVElement@@@std@@V?$allocator@U?$pair@$$CBV?$basic_string@DU?$char_traits@D@std@@V?$allocator@D@2@@std@@PEAVElement@@@std@@@2@@std@@@std@@QEBAAEBU?$_Wrap_alloc@V?$allocator@U?$_List_node@U?$pair@$$CBV?$basic_string@DU?$char_traits@D@std@@V?$allocator@D@2@@std@@PEAVElement@@@std@@PEAX@std@@@std@@@2@XZ
	?_Getal@?$_List_alloc@U?$_List_base_types@VDemand@@V?$allocator@VDemand@@@std@@@std@@@std@@QEAAAEAU?$_Wrap_alloc@V?$allocator@U?$_List_node@VDemand@@PEAX@std@@@std@@@2@XZ
	?_Getal@?$_List_alloc@U?$_List_base_types@VDemand@@V?$allocator@VDemand@@@std@@@std@@@std@@QEBAAEBU?$_Wrap_alloc@V?$allocator@U?$_List_node@VDemand@@PEAX@std@@@std@@@2@XZ
	?_Getal@?$_String_alloc@U?$_String_base_types@DV?$allocator@D@std@@@std@@@std@@QEAAAEAU?$_Wrap_alloc@V?$allocator@D@std@@@2@XZ
	?_Getal@?$_String_alloc@U?$_String_base_types@DV?$allocator@D@std@@@std@@@std@@QEBAAEBU?$_Wrap_alloc@V?$allocator@D@std@@@2@XZ
	?_Getal@?$_Vector_alloc@U?$_Vec_base_types@DV?$allocator@D@std@@@std@@@std@@QEAAAEAU?$_Wrap_alloc@V?$allocator@D@std@@@2@XZ
	?_Getal@?$_Vector_alloc@U?$_Vec_base_types@DV?$allocator@D@std@@@std@@@std@@QEBAAEBU?$_Wrap_alloc@V?$allocator@D@std@@@2@XZ
	?_Getal@?$_Vector_alloc@U?$_Vec_base_types@HV?$allocator@H@std@@@std@@@std@@QEAAAEAU?$_Wrap_alloc@V?$allocator@H@std@@@2@XZ
	?_Getal@?$_Vector_alloc@U?$_Vec_base_types@HV?$allocator@H@std@@@std@@@std@@QEBAAEBU?$_Wrap_alloc@V?$allocator@H@std@@@2@XZ
	?_Getal@?$_Vector_alloc@U?$_Vec_base_types@NV?$allocator@N@std@@@std@@@std@@QEAAAEAU?$_Wrap_alloc@V?$allocator@N@std@@@2@XZ
	?_Getal@?$_Vector_alloc@U?$_Vec_base_types@NV?$allocator@N@std@@@std@@@std@@QEBAAEBU?$_Wrap_alloc@V?$allocator@N@std@@@2@XZ
	?_Getal@?$_Vector_alloc@U?$_Vec_base_types@PEAUSegment@@V?$allocator@PEAUSegment@@@std@@@std@@@std@@QEAAAEAU?$_Wrap_alloc@V?$allocator@PEAUSegment@@@std@@@2@XZ
	?_Getal@?$_Vector_alloc@U?$_Vec_base_types@PEAUSegment@@V?$allocator@PEAUSegment@@@std@@@std@@@std@@QEBAAEBU?$_Wrap_alloc@V?$allocator@PEAUSegment@@@std@@@2@XZ
	?_Getal@?$_Vector_alloc@U?$_Vec_base_types@PEAVControl@@V?$allocator@PEAVControl@@@std@@@std@@@std@@QEAAAEAU?$_Wrap_alloc@V?$allocator@PEAVControl@@@std@@@2@XZ
	?_Getal@?$_Vector_alloc@U?$_Vec_base_types@PEAVControl@@V?$allocator@PEAVControl@@@std@@@std@@@std@@QEBAAEBU?$_Wrap_alloc@V?$allocator@PEAVControl@@@std@@@2@XZ
	?_Getal@?$_Vector_alloc@U?$_Vec_base_types@PEAVCurve@@V?$allocator@PEAVCurve@@@std@@@std@@@std@@QEAAAEAU?$_Wrap_alloc@V?$allocator@PEAVCurve@@@std@@@2@XZ
	?_Getal@?$_Vector_alloc@U?$_Vec_base_types@PEAVCurve@@V?$allocator@PEAVCurve@@@std@@@std@@@std@@QEBAAEBU?$_Wrap_alloc@V?$allocator@PEAVCurve@@@std@@@2@XZ
	?_Getal@?$_Vector_alloc@U?$_Vec_base_types@PEAVLink@@V?$allocator@PEAVLink@@@std@@@std@@@std@@QEAAAEAU?$_Wrap_alloc@V?$allocator@PEAVLink@@@std@@@2@XZ
	?_Getal@?$_Vector_alloc@U?$_Vec_base_types@PEAVLink@@V?$allocator@PEAVLink@@@std@@@std@@@std@@QEBAAEBU?$_Wrap_alloc@V?$allocator@PEAVLink@@@std@@@2@XZ
	?_Getal@?$_Vector_alloc@U?$_Vec_base_types@PEAVNode@@V?$allocator@PEAVNode@@@std@@@std@@@std@@QEAAAEAU?$_Wrap_alloc@V?$allocator@PEAVNode@@@std@@@2@XZ
	?_Getal@?$_Vector_alloc@U?$_Vec_base_types@PEAVNode@@V?$allocator@PEAVNode@@@std@@@std@@@std@@QEBAAEBU?$_Wrap_alloc@V?$allocator@PEAVNode@@@std@@@2@XZ
	?_Getal@?$_Vector_alloc@U?$_Vec_base_types@PEAVPattern@@V?$allocator@PEAVPattern@@@std@@@std@@@std@@QEAAAEAU?$_Wrap_alloc@V?$allocator@PEAVPattern@@@std@@@2@XZ
	?_Getal@?$_Vector_alloc@U?$_Vec_base_types@PEAVPattern@@V?$allocator@PEAVPattern@@@std@@@std@@@std@@QEBAAEBU?$_Wrap_alloc@V?$allocator@PEAVPattern@@@std@@@2@XZ
	?_Getal@?$_Vector_alloc@U?$_Vec_base_types@V?$_List_unchecked_iterator@V?$_List_val@U?$_List_simple_types@U?$pair@$$CBV?$basic_string@DU?$char_traits@D@std@@V?$allocator@D@2@@std@@PEAVElement@@@std@@@std@@@std@@@std@@U?$_Wrap_alloc@V?$allocator@V?$_List_unchecked_iterator@V?$_List_val@U?$_List_simple_types@U?$pair@$$CBV?$basic_string@DU?$char_traits@D@std@@V?$allocator@D@2@@std@@PEAVElement@@@std@@@std@@@std@@@std@@@std@@@2@@std@@@std@@QEAAAEAU?$_Wrap_alloc@U?$_Wrap_alloc@V?$allocator@V?$_List_unchecked_iterator@V?$_List_val@U?$_List_simple_types@U?$pair@$$CBV?$basic_string@DU?$char_traits@D@std@@V?$allocator@D@2@@std@@PEAVElement@@@std@@@std@@@std@@@std@@@std@@@std@@@2@XZ
	?_Getal@?$_Vector_alloc@U?$_Vec_base_types@V?$_List_unchecked_iterator@V?$_List_val@U?$_List_simple_types@U?$pair@$$CBV?$basic_string@DU?$char_traits@D@std@@V?$allocator@D@2@@std@@PEAVElement@@@std@@@std@@@std@@@std@@U?$_Wrap_alloc@V?$allocator@V?$_List_unchecked_iterator@V?$_List_val@U?$_List_simple_types@U?$pair@$$CBV?$basic_string@DU?$char_traits@D@std@@V?$allocator@D@2@@std@@PEAVElement@@@std@@@std@@@std@@@std@@@std@@@2@@std@@@std@@QEBAAEBU?$_Wrap_alloc@U?$_Wrap_alloc@V?$allocator@V?$_List_unchecked_iterator@V?$_List_val@U?$_List_simple_types@U?$pair@$$CBV?$basic_string@DU?$char_traits@D@std@@V?$allocator@D@2@@std@@PEAVElement@@@std@@@std@@@std@@@std@@@std@@@std@@@2@XZ
	?_Getal@?$_Vector_alloc@U?$_Vec_base_types@V?$basic_string@DU?$char_traits@D@std@@V?$allocator@D@2@@std@@V?$allocator@V?$basic_string@DU?$char_traits@D@std@@V?$allocator@D@2@@std@@@2@@std@@@std@@QEAAAEAU?$_Wrap_alloc@V?$allocator@V?$basic_string@DU?$char_traits@D@std@@V?$allocator@D@2@@std@@@std@@@2@XZ
	?_Getal@?$_Vector_alloc@U?$_Vec_base_types@V?$basic_string@DU?$char_traits@D@std@@V?$allocator@D@2@@std@@V?$allocator@V?$basic_string@DU?$char_traits@D@std@@V?$allocator@D@2@@std@@@2@@std@@@std@@QEBAAEBU?$_Wrap_alloc@V?$allocator@V?$basic_string@DU?$char_traits@D@std@@V?$allocator@D@2@@std@@@std@@@2@XZ
	?_Getcont@_Iterator_base12@std@@QEBAPEBU_Container_base12@2@XZ
	?_Getfacet@locale@std@@QEBAPEBVfacet@12@_K@Z
	?_Gethash@?$_Uhash_compare@V?$basic_string@DU?$char_traits@D@std@@V?$allocator@D@2@@std@@U?$hash@V?$basic_string@DU?$char_traits@D@std@@V?$allocator@D@2@@std@@@2@U?$equal_to@V?$basic_string@DU?$char_traits@D@std@@V?$allocator@D@2@@std@@@2@@std@@QEBAAEBU?$hash@V?$basic_string@DU?$char_traits@D@std@@V?$allocator@D@2@@std@@@2@XZ
	?_Getkeyeq@?$_Uhash_compare@V?$basic_string@DU?$char_traits@D@std@@V?$allocator@D@2@@std@@U?$hash@V?$basic_string@DU?$char_traits@D@std@@V?$allocator@D@2@@std@@@2@U?$equal_to@V?$basic_string@DU?$char_traits@D@std@@V?$allocator@D@2@@std@@@2@@std@@QEBAAEBU?$equal_to@V?$basic_string@DU?$char_traits@D@std@@V?$allocator@D@2@@std@@@2@XZ
	?_Getpfirst@?$_List_alloc@U?$_List_base_types@U?$pair@$$CBV?$basic_string@DU?$char_traits@D@std@@V?$allocator@D@2@@std@@PEAVElement@@@std@@V?$allocator@U?$pair@$$CBV?$basic_string@DU?$char_traits@D@std@@V?$allocator@D@2@@std@@PEAVElement@@@std@@@2@@std@@@std@@QEBAPEAPEAU_Iterator_base12@2@XZ
	?_Getpfirst@?$_List_alloc@U?$_List_base_types@VDemand@@V?$allocator@VDemand@@@std@@@std@@@std@@QEBAPEAPEAU_Iterator_base12@2@XZ
	?_Getpfirst@?$_Vector_alloc@U?$_Vec_base_types@DV?$allocator@D@std@@@std@@@std@@QEBAPEAPEAU_Iterator_base12@2@XZ
	?_Getpfirst@?$_Vector_alloc@U?$_Vec_base_types@HV?$allocator@H@std@@@std@@@std@@QEBAPEAPEAU_Iterator_base12@2@XZ
	?_Getpfirst@?$_Vector_alloc@U?$_Vec_base_types@NV?$allocator@N@std@@@std@@@std@@QEBAPEAPEAU_Iterator_base12@2@XZ
	?_Getpfirst@?$_Vector_alloc@U?$_Vec_base_types@PEAUSegment@@V?$allocator@PEAUSegment@@@std@@@std@@@std@@QEBAPEAPEAU_Iterator_base12@2@XZ
	?_Getpfirst@?$_Vector_alloc@U?$_Vec_base_types@PEAVControl@@V?$allocator@PEAVControl@@@std@@@std@@@std@@QEBAPEAPEAU_Iterator_base12@2@XZ
	?_Getpfirst@?$_Vector_alloc@U?$_Vec_base_types@PEAVCurve@@V?$allocator@PEAVCurve@@@std@@@std@@@std@@QEBAPEAPEAU_Iterator_base12@2@XZ
	?_Getpfirst@?$_Vector_alloc@U?$_Vec_base_types@PEAVLink@@V?$allocator@PEAVLink@@@std@@@std@@@std@@QEBAPEAPEAU_Iterator_base12@2@XZ
	?_Getpfirst@?$_Vector_alloc@U?$_Vec_base_types@PEAVNode@@V?$allocator@PEAVNode@@@std@@@std@@@std@@QEBAPEAPEAU_Iterator_base12@2@XZ
	?_Getpfirst@?$_Vector_alloc@U?$_Vec_base_types@PEAVPattern@@V?$allocator@PEAVPattern@@@std@@@std@@@std@@QEBAPEAPEAU_Iterator_base12@2@XZ
	?_Getpfirst@?$_Vector_alloc@U?$_Vec_base_types@V?$_List_unchecked_iterator@V?$_List_val@U?$_List_simple_types@U?$pair@$$CBV?$basic_string@DU?$char_traits@D@std@@V?$allocator@D@2@@std@@PEAVElement@@@std@@@std@@@std@@@std@@U?$_Wrap_alloc@V?$allocator@V?$_List_unchecked_iterator@V?$_List_val@U?$_List_simple_types@U?$pair@$$CBV?$basic_string@DU?$char_traits@D@std@@V?$allocator@D@2@@std@@PEAVElement@@@std@@@std@@@std@@@std@@@std@@@2@@std@@@std@@QEBAPEAPEAU_Iterator_base12@2@XZ
	?_Getpfirst@?$_Vector_alloc@U?$_Vec_base_types@V?$basic_string@DU?$char_traits@D@std@@V?$allocator@D@2@@std@@V?$allocator@V?$basic_string@DU?$char_traits@D@std@@V?$allocator@D@2@@std@@@2@@std@@@std@@QEBAPEAPEAU_Iterator_base12@2@XZ
	?_Getpfirst@_Container_base12@std@@QEBAPEAPEAU_Iterator_base12@2@XZ
	?_Getpnext@_Iterator_base12@std@@QEAAPEAPEAU12@XZ
	?_Getstate@?$basic_stringbuf@DU?$char_traits@D@std@@V?$allocator@D@2@@std@@AEAAHH@Z
	?_Getval@?$istream_iterator@V?$basic_string@DU?$char_traits@D@std@@V?$allocator@D@2@@std@@DU?$char_traits@D@2@_J@std@@IEAAXXZ
	?_Grow@?$basic_string@DU?$char_traits@D@std@@V?$allocator@D@2@@std@@QEAA_N_K_N@Z
	?_Grow_to@?$vector@DV?$allocator@D@std@@@std@@IEBA_K_K@Z
	?_Grow_to@?$vector@HV?$allocator@H@std@@@std@@IEBA_K_K@Z
	?_Grow_to@?$vector@NV?$allocator@N@std@@@std@@IEBA_K_K@Z
	?_Grow_to@?$vector@PEAUSegment@@V?$allocator@PEAUSegment@@@std@@@std@@IEBA_K_K@Z
	?_Grow_to@?$vector@PEAVControl@@V?$allocator@PEAVControl@@@std@@@std@@IEBA_K_K@Z
	?_Grow_to@?$vector@PEAVCurve@@V?$allocator@PEAVCurve@@@std@@@std@@IEBA_K_K@Z
	?_Grow_to@?$vector@PEAVLink@@V?$allocator@PEAVLink@@@std@@@std@@IEBA_K_K@Z
	?_Grow_to@?$vector@PEAVNode@@V?$allocator@PEAVNode@@@std@@@std@@IEBA_K_K@Z
	?_Grow_to@?$vector@PEAVPattern@@V?$allocator@PEAVPattern@@@std@@@std@@IEBA_K_K@Z
	?_Grow_to@?$vector@V?$_List_unchecked_iterator@V?$_List_val@U?$_List_simple_types@U?$pair@$$CBV?$basic_string@DU?$char_traits@D@std@@V?$allocator@D@2@@std@@PEAVElement@@@std@@@std@@@std@@@std@@U?$_Wrap_alloc@V?$allocator@V?$_List_unchecked_iterator@V?$_List_val@U?$_List_simple_types@U?$pair@$$CBV?$basic_string@DU?$char_traits@D@std@@V?$allocator@D@2@@std@@PEAVElement@@@std@@@std@@@std@@@std@@@std@@@2@@std@@IEBA_K_K@Z
	?_Grow_to@?$vector@V?$basic_string@DU?$char_traits@D@std@@V?$allocator@D@2@@std@@V?$allocator@V?$basic_string@DU?$char_traits@D@std@@V?$allocator@D@2@@std@@@2@@std@@IEBA_K_K@Z
	?_Hash_seq@std@@YA_KPEBE_K@Z
	?_Hashval@?$_Hash@V?$_Umap_traits@V?$basic_string@DU?$char_traits@D@std@@V?$allocator@D@2@@std@@PEAVElement@@V?$_Uhash_compare@V?$basic_string@DU?$char_traits@D@std@@V?$allocator@D@2@@std@@U?$hash@V?$basic_string@DU?$char_traits@D@std@@V?$allocator@D@2@@std@@@2@U?$equal_to@V?$basic_string@DU?$char_traits@D@std@@V?$allocator@D@2@@std@@@2@@2@V?$allocator@U?$pair@$$CBV?$basic_string@DU?$char_traits@D@std@@V?$allocator@D@2@@std@@PEAVElement@@@std@@@2@$0A@@std@@@std@@IEBA_KAEBV?$basic_string@DU?$char_traits@D@std@@V?$allocator@D@2@@2@@Z
	?_Incsize@?$list@U?$pair@$$CBV?$basic_string@DU?$char_traits@D@std@@V?$allocator@D@2@@std@@PEAVElement@@@std@@V?$allocator@U?$pair@$$CBV?$basic_string@DU?$char_traits@D@std@@V?$allocator@D@2@@std@@PEAVElement@@@std@@@2@@std@@QEAAX_K@Z
	?_Incsize@?$list@VDemand@@V?$allocator@VDemand@@@std@@@std@@QEAAX_K@Z
	?_Init@?$_Hash@V?$_Umap_traits@V?$basic_string@DU?$char_traits@D@std@@V?$allocator@D@2@@std@@PEAVElement@@V?$_Uhash_compare@V?$basic_string@DU?$char_traits@D@std@@V?$allocator@D@2@@std@@U?$hash@V?$basic_string@DU?$char_traits@D@std@@V?$allocator@D@2@@std@@@2@U?$equal_to@V?$basic_string@DU?$char_traits@D@std@@V?$allocator@D@2@@std@@@2@@2@V?$allocator@U?$pair@$$CBV?$basic_string@DU?$char_traits@D@std@@V?$allocator@D@2@@std@@PEAVElement@@@std@@@2@$0A@@std@@@std@@IEAAX_K@Z
	?_Init@?$basic_filebuf@DU?$char_traits@D@std@@@std@@IEAAXPEAU_iobuf@@W4_Initfl@12@@Z
	?_Init@?$basic_stringbuf@DU?$char_traits@D@std@@V?$allocator@D@2@@std@@IEAAXPEBD_KH@Z
	?_Initcvt@?$basic_filebuf@DU?$char_traits@D@std@@@std@@IEAAXPEBV?$codecvt@DDU_Mbstatet@@@2@@Z
	?_Insert_bucket@?$_Hash@V?$_Umap_traits@V?$basic_string@DU?$char_traits@D@std@@V?$allocator@D@2@@std@@PEAVElement@@V?$_Uhash_compare@V?$basic_string@DU?$char_traits@D@std@@V?$allocator@D@2@@std@@U?$hash@V?$basic_string@DU?$char_traits@D@std@@V?$allocator@D@2@@std@@@2@U?$equal_to@V?$basic_string@DU?$char_traits@D@std@@V?$allocator@D@2@@std@@@2@@2@V?$allocator@U?$pair@$$CBV?$basic_string@DU?$char_traits@D@std@@V?$allocator@D@2@@std@@PEAVElement@@@std@@@2@$0A@@std@@@std@@IEAAXV?$_List_unchecked_iterator@V?$_List_val@U?$_List_simple_types@U?$pair@$$CBV?$basic_string@DU?$char_traits@D@std@@V?$allocator@D@2@@std@@PEAVElement@@@std@@@std@@@std@@@2@0_K@Z
	?_Insert_n@?$vector@V?$_List_unchecked_iterator@V?$_List_val@U?$_List_simple_types@U?$pair@$$CBV?$basic_string@DU?$char_traits@D@std@@V?$allocator@D@2@@std@@PEAVElement@@@std@@@std@@@std@@@std@@U?$_Wrap_alloc@V?$allocator@V?$_List_unchecked_iterator@V?$_List_val@U?$_List_simple_types@U?$pair@$$CBV?$basic_string@DU?$char_traits@D@std@@V?$allocator@D@2@@std@@PEAVElement@@@std@@@std@@@std@@@std@@@std@@@2@@std@@IEAA?AV?$_Vector_iterator@V?$_Vector_val@U?$_Simple_types@V?$_List_unchecked_iterator@V?$_List_val@U?$_List_simple_types@U?$pair@$$CBV?$basic_string@DU?$char_traits@D@std@@V?$allocator@D@2@@std@@PEAVElement@@@std@@@std@@@std@@@std@@@std@@@std@@@2@V?$_Vector_const_iterator@V?$_Vector_val@U?$_Simple_types@V?$_List_unchecked_iterator@V?$_List_val@U?$_List_simple_types@U?$pair@$$CBV?$basic_string@DU?$char_traits@D@std@@V?$allocator@D@2@@std@@PEAVElement@@@std@@@std@@@std@@@std@@@std@@@std@@@2@_KAEBV?$_List_unchecked_iterator@V?$_List_val@U?$_List_simple_types@U?$pair@$$CBV?$basic_string@DU?$char_traits@D@std@@V?$allocator@D@2@@std@@PEAVElement@@@std@@@std@@@std@@@2@@Z
	?_Inside@?$basic_string@DU?$char_traits@D@std@@V?$allocator@D@2@@std@@QEAA_NPEBD@Z
	?_Inside@?$vector@DV?$allocator@D@std@@@std@@IEBA_NPEBD@Z
	?_Inside@?$vector@HV?$allocator@H@std@@@std@@IEBA_NPEBH@Z
	?_Inside@?$vector@NV?$allocator@N@std@@@std@@IEBA_NPEBN@Z
	?_Inside@?$vector@PEAUSegment@@V?$allocator@PEAUSegment@@@std@@@std@@IEBA_NPEBQEAUSegment@@@Z
	?_Inside@?$vector@PEAVControl@@V?$allocator@PEAVControl@@@std@@@std@@IEBA_NPEBQEAVControl@@@Z
	?_Inside@?$vector@PEAVCurve@@V?$allocator@PEAVCurve@@@std@@@std@@IEBA_NPEBQEAVCurve@@@Z
	?_Inside@?$vector@PEAVLink@@V?$allocator@PEAVLink@@@std@@@std@@IEBA_NPEBQEAVLink@@@Z
	?_Inside@?$vector@PEAVNode@@V?$allocator@PEAVNode@@@std@@@std@@IEBA_NPEBQEAVNode@@@Z
	?_Inside@?$vector@PEAVPattern@@V?$allocator@PEAVPattern@@@std@@@std@@IEBA_NPEBQEAVPattern@@@Z
	?_Inside@?$vector@V?$basic_string@DU?$char_traits@D@std@@V?$allocator@D@2@@std@@V?$allocator@V?$basic_string@DU?$char_traits@D@std@@V?$allocator@D@2@@std@@@2@@std@@IEBA_NPEBV?$basic_string@DU?$char_traits@D@std@@V?$allocator@D@2@@2@@Z
	?_Lock@?$basic_filebuf@DU?$char_traits@D@std@@@std@@UEAAXXZ
	?_Make_iter@?$_Hash@V?$_Umap_traits@V?$basic_string@DU?$char_traits@D@std@@V?$allocator@D@2@@std@@PEAVElement@@V?$_Uhash_compare@V?$basic_string@DU?$char_traits@D@std@@V?$allocator@D@2@@std@@U?$hash@V?$basic_string@DU?$char_traits@D@std@@V?$allocator@D@2@@std@@@2@U?$equal_to@V?$basic_string@DU?$char_traits@D@std@@V?$allocator@D@2@@std@@@2@@2@V?$allocator@U?$pair@$$CBV?$basic_string@DU?$char_traits@D@std@@V?$allocator@D@2@@std@@PEAVElement@@@std@@@2@$0A@@std@@@std@@QEBA?AV?$_List_iterator@V?$_List_val@U?$_List_simple_types@U?$pair@$$CBV?$basic_string@DU?$char_traits@D@std@@V?$allocator@D@2@@std@@PEAVElement@@@std@@@std@@@std@@@2@V?$_List_const_iterator@V?$_List_val@U?$_List_simple_types@U?$pair@$$CBV?$basic_string@DU?$char_traits@D@std@@V?$allocator@D@2@@std@@PEAVElement@@@std@@@std@@@std@@@2@@Z
	?_Make_iter@?$_Hash@V?$_Umap_traits@V?$basic_string@DU?$char_traits@D@std@@V?$allocator@D@2@@std@@PEAVElement@@V?$_Uhash_compare@V?$basic_string@DU?$char_traits@D@std@@V?$allocator@D@2@@std@@U?$hash@V?$basic_string@DU?$char_traits@D@std@@V?$allocator@D@2@@std@@@2@U?$equal_to@V?$basic_string@DU?$char_traits@D@std@@V?$allocator@D@2@@std@@@2@@2@V?$allocator@U?$pair@$$CBV?$basic_string@DU?$char_traits@D@std@@V?$allocator@D@2@@std@@PEAVElement@@@std@@@2@$0A@@std@@@std@@QEBA?AV?$_List_iterator@V?$_List_val@U?$_List_simple_types@U?$pair@$$CBV?$basic_string@DU?$char_traits@D@std@@V?$allocator@D@2@@std@@PEAVElement@@@std@@@std@@@std@@@2@V?$_List_unchecked_const_iterator@V?$_List_val@U?$_List_simple_types@U?$pair@$$CBV?$basic_string@DU?$char_traits@D@std@@V?$allocator@D@2@@std@@PEAVElement@@@std@@@std@@@std@@U_Iterator_base0@2@@2@@Z
	?_Make_iter@?$list@U?$pair@$$CBV?$basic_string@DU?$char_traits@D@std@@V?$allocator@D@2@@std@@PEAVElement@@@std@@V?$allocator@U?$pair@$$CBV?$basic_string@DU?$char_traits@D@std@@V?$allocator@D@2@@std@@PEAVElement@@@std@@@2@@std@@QEBA?AV?$_List_iterator@V?$_List_val@U?$_List_simple_types@U?$pair@$$CBV?$basic_string@DU?$char_traits@D@std@@V?$allocator@D@2@@std@@PEAVElement@@@std@@@std@@@std@@@2@V?$_List_const_iterator@V?$_List_val@U?$_List_simple_types@U?$pair@$$CBV?$basic_string@DU?$char_traits@D@std@@V?$allocator@D@2@@std@@PEAVElement@@@std@@@std@@@std@@@2@@Z
	?_Make_iter@?$list@U?$pair@$$CBV?$basic_string@DU?$char_traits@D@std@@V?$allocator@D@2@@std@@PEAVElement@@@std@@V?$allocator@U?$pair@$$CBV?$basic_string@DU?$char_traits@D@std@@V?$allocator@D@2@@std@@PEAVElement@@@std@@@2@@std@@QEBA?AV?$_List_iterator@V?$_List_val@U?$_List_simple_types@U?$pair@$$CBV?$basic_string@DU?$char_traits@D@std@@V?$allocator@D@2@@std@@PEAVElement@@@std@@@std@@@std@@@2@V?$_List_unchecked_const_iterator@V?$_List_val@U?$_List_simple_types@U?$pair@$$CBV?$basic_string@DU?$char_traits@D@std@@V?$allocator@D@2@@std@@PEAVElement@@@std@@@std@@@std@@U_Iterator_base0@2@@2@@Z
	?_Max_bucket_size@?$_Hash@V?$_Umap_traits@V?$basic_string@DU?$char_traits@D@std@@V?$allocator@D@2@@std@@PEAVElement@@V?$_Uhash_compare@V?$basic_string@DU?$char_traits@D@std@@V?$allocator@D@2@@std@@U?$hash@V?$basic_string@DU?$char_traits@D@std@@V?$allocator@D@2@@std@@@2@U?$equal_to@V?$basic_string@DU?$char_traits@D@std@@V?$allocator@D@2@@std@@@2@@2@V?$allocator@U?$pair@$$CBV?$basic_string@DU?$char_traits@D@std@@V?$allocator@D@2@@std@@PEAVElement@@@std@@@2@$0A@@std@@@std@@IEAAAEAMXZ
	?_Max_bucket_size@?$_Hash@V?$_Umap_traits@V?$basic_string@DU?$char_traits@D@std@@V?$allocator@D@2@@std@@PEAVElement@@V?$_Uhash_compare@V?$basic_string@DU?$char_traits@D@std@@V?$allocator@D@2@@std@@U?$hash@V?$basic_string@DU?$char_traits@D@std@@V?$allocator@D@2@@std@@@2@U?$equal_to@V?$basic_string@DU?$char_traits@D@std@@V?$allocator@D@2@@std@@@2@@2@V?$allocator@U?$pair@$$CBV?$basic_string@DU?$char_traits@D@std@@V?$allocator@D@2@@std@@PEAVElement@@@std@@@2@$0A@@std@@@std@@IEBAAEBMXZ
	?_Move_alloc@?$_String_alloc@U?$_String_base_types@DV?$allocator@D@std@@@std@@@std@@QEAAXAEAU?$_Wrap_alloc@V?$allocator@D@std@@@2@@Z
	?_Myend@?$_Vector_alloc@U?$_Vec_base_types@DV?$allocator@D@std@@@std@@@std@@QEAAAEAPEADXZ
	?_Myend@?$_Vector_alloc@U?$_Vec_base_types@DV?$allocator@D@std@@@std@@@std@@QEBAAEBQEADXZ
	?_Myend@?$_Vector_alloc@U?$_Vec_base_types@HV?$allocator@H@std@@@std@@@std@@QEAAAEAPEAHXZ
	?_Myend@?$_Vector_alloc@U?$_Vec_base_types@HV?$allocator@H@std@@@std@@@std@@QEBAAEBQEAHXZ
	?_Myend@?$_Vector_alloc@U?$_Vec_base_types@NV?$allocator@N@std@@@std@@@std@@QEAAAEAPEANXZ
	?_Myend@?$_Vector_alloc@U?$_Vec_base_types@NV?$allocator@N@std@@@std@@@std@@QEBAAEBQEANXZ
	?_Myend@?$_Vector_alloc@U?$_Vec_base_types@PEAUSegment@@V?$allocator@PEAUSegment@@@std@@@std@@@std@@QEAAAEAPEAPEAUSegment@@XZ
	?_Myend@?$_Vector_alloc@U?$_Vec_base_types@PEAUSegment@@V?$allocator@PEAUSegment@@@std@@@std@@@std@@QEBAAEBQEAPEAUSegment@@XZ
	?_Myend@?$_Vector_alloc@U?$_Vec_base_types@PEAVControl@@V?$allocator@PEAVControl@@@std@@@std@@@std@@QEAAAEAPEAPEAVControl@@XZ
	?_Myend@?$_Vector_alloc@U?$_Vec_base_types@PEAVControl@@V?$allocator@PEAVControl@@@std@@@std@@@std@@QEBAAEBQEAPEAVControl@@XZ
	?_Myend@?$_Vector_alloc@U?$_Vec_base_types@PEAVCurve@@V?$allocator@PEAVCurve@@@std@@@std@@@std@@QEAAAEAPEAPEAVCurve@@XZ
	?_Myend@?$_Vector_alloc@U?$_Vec_base_types@PEAVCurve@@V?$allocator@PEAVCurve@@@std@@@std@@@std@@QEBAAEBQEAPEAVCurve@@XZ
	?_Myend@?$_Vector_alloc@U?$_Vec_base_types@PEAVLink@@V?$allocator@PEAVLink@@@std@@@std@@@std@@QEAAAEAPEAPEAVLink@@XZ
	?_Myend@?$_Vector_alloc@U?$_Vec_base_types@PEAVLink@@V?$allocator@PEAVLink@@@std@@@std@@@std@@QEBAAEBQEAPEAVLink@@XZ
	?_Myend@?$_Vector_alloc@U?$_Vec_base_types@PEAVNode@@V?$allocator@PEAVNode@@@std@@@std@@@std@@QEAAAEAPEAPEAVNode@@XZ
	?_Myend@?$_Vector_alloc@U?$_Vec_base_types@PEAVNode@@V?$allocator@PEAVNode@@@std@@@std@@@std@@QEBAAEBQEAPEAVNode@@XZ
	?_Myend@?$_Vector_alloc@U?$_Vec_base_types@PEAVPattern@@V?$allocator@PEAVPattern@@@std@@@std@@@std@@QEAAAEAPEAPEAVPattern@@XZ
	?_Myend@?$_Vector_alloc@U?$_Vec_base_types@PEAVPattern@@V?$allocator@PEAVPattern@@@std@@@std@@@std@@QEBAAEBQEAPEAVPattern@@XZ
	?_Myend@?$_Vector_alloc@U?$_Vec_base_types@V?$_List_unchecked_iterator@V?$_List_val@U?$_List_simple_types@U?$pair@$$CBV?$basic_string@DU?$char_traits@D@std@@V?$allocator@D@2@@std@@PEAVElement@@@std@@@std@@@std@@@std@@U?$_Wrap_alloc@V?$allocator@V?$_List_unchecked_iterator@V?$_List_val@U?$_List_simple_types@U?$pair@$$CBV?$basic_string@DU?$char_traits@D@std@@V?$allocator@D@2@@std@@PEAVElement@@@std@@@std@@@std@@@std@@@std@@@2@@std@@@std@@QEAAAEAPEAV?$_List_unchecked_iterator@V?$_List_val@U?$_List_simple_types@U?$pair@$$CBV?$basic_string@DU?$char_traits@D@std@@V?$allocator@D@2@@std@@PEAVElement@@@std@@@std@@@std@@@2@XZ
	?_Myend@?$_Vector_alloc@U?$_Vec_base_types@V?$_List_unchecked_iterator@V?$_List_val@U?$_List_simple_types@U?$pair@$$CBV?$basic_string@DU?$char_traits@D@std@@V?$allocator@D@2@@std@@PEAVElement@@@std@@@std@@@std@@@std@@U?$_Wrap_alloc@V?$allocator@V?$_List_unchecked_iterator@V?$_List_val@U?$_List_simple_types@U?$pair@$$CBV?$basic_string@DU?$char_traits@D@std@@V?$allocator@D@2@@std@@PEAVElement@@@std@@@std@@@std@@@std@@@std@@@2@@std@@@std@@QEBAAEBQEAV?$_List_unchecked_iterator@V?$_List_val@U?$_List_simple_types@U?$pair@$$CBV?$basic_string@DU?$char_traits@D@std@@V?$allocator@D@2@@std@@PEAVElement@@@std@@@std@@@std@@@2@XZ
	?_Myend@?$_Vector_alloc@U?$_Vec_base_types@V?$basic_string@DU?$char_traits@D@std@@V?$allocator@D@2@@std@@V?$allocator@V?$basic_string@DU?$char_traits@D@std@@V?$allocator@D@2@@std@@@2@@std@@@std@@QEAAAEAPEAV?$basic_string@DU?$char_traits@D@std@@V?$allocator@D@2@@2@XZ
	?_Myend@?$_Vector_alloc@U?$_Vec_base_types@V?$basic_string@DU?$char_traits@D@std@@V?$allocator@D@2@@std@@V?$allocator@V?$basic_string@DU?$char_traits@D@std@@V?$allocator@D@2@@std@@@2@@std@@@std@@QEBAAEBQEAV?$basic_string@DU?$char_traits@D@std@@V?$allocator@D@2@@2@XZ
	?_Myfirst@?$_Vector_alloc@U?$_Vec_base_types@DV?$allocator@D@std@@@std@@@std@@QEAAAEAPEADXZ
	?_Myfirst@?$_Vector_alloc@U?$_Vec_base_types@DV?$allocator@D@std@@@std@@@std@@QEBAAEBQEADXZ
	?_Myfirst@?$_Vector_alloc@U?$_Vec_base_types@HV?$allocator@H@std@@@std@@@std@@QEAAAEAPEAHXZ
	?_Myfirst@?$_Vector_alloc@U?$_Vec_base_types@HV?$allocator@H@std@@@std@@@std@@QEBAAEBQEAHXZ
	?_Myfirst@?$_Vector_alloc@U?$_Vec_base_types@NV?$allocator@N@std@@@std@@@std@@QEAAAEAPEANXZ
	?_Myfirst@?$_Vector_alloc@U?$_Vec_base_types@NV?$allocator@N@std@@@std@@@std@@QEBAAEBQEANXZ
	?_Myfirst@?$_Vector_alloc@U?$_Vec_base_types@PEAUSegment@@V?$allocator@PEAUSegment@@@std@@@std@@@std@@QEAAAEAPEAPEAUSegment@@XZ
	?_Myfirst@?$_Vector_alloc@U?$_Vec_base_types@PEAUSegment@@V?$allocator@PEAUSegment@@@std@@@std@@@std@@QEBAAEBQEAPEAUSegment@@XZ
	?_Myfirst@?$_Vector_alloc@U?$_Vec_base_types@PEAVControl@@V?$allocator@PEAVControl@@@std@@@std@@@std@@QEAAAEAPEAPEAVControl@@XZ
	?_Myfirst@?$_Vector_alloc@U?$_Vec_base_types@PEAVControl@@V?$allocator@PEAVControl@@@std@@@std@@@std@@QEBAAEBQEAPEAVControl@@XZ
	?_Myfirst@?$_Vector_alloc@U?$_Vec_base_types@PEAVCurve@@V?$allocator@PEAVCurve@@@std@@@std@@@std@@QEAAAEAPEAPEAVCurve@@XZ
	?_Myfirst@?$_Vector_alloc@U?$_Vec_base_types@PEAVCurve@@V?$allocator@PEAVCurve@@@std@@@std@@@std@@QEBAAEBQEAPEAVCurve@@XZ
	?_Myfirst@?$_Vector_alloc@U?$_Vec_base_types@PEAVLink@@V?$allocator@PEAVLink@@@std@@@std@@@std@@QEAAAEAPEAPEAVLink@@XZ
	?_Myfirst@?$_Vector_alloc@U?$_Vec_base_types@PEAVLink@@V?$allocator@PEAVLink@@@std@@@std@@@std@@QEBAAEBQEAPEAVLink@@XZ
	?_Myfirst@?$_Vector_alloc@U?$_Vec_base_types@PEAVNode@@V?$allocator@PEAVNode@@@std@@@std@@@std@@QEAAAEAPEAPEAVNode@@XZ
	?_Myfirst@?$_Vector_alloc@U?$_Vec_base_types@PEAVNode@@V?$allocator@PEAVNode@@@std@@@std@@@std@@QEBAAEBQEAPEAVNode@@XZ
	?_Myfirst@?$_Vector_alloc@U?$_Vec_base_types@PEAVPattern@@V?$allocator@PEAVPattern@@@std@@@std@@@std@@QEAAAEAPEAPEAVPattern@@XZ
	?_Myfirst@?$_Vector_alloc@U?$_Vec_base_types@PEAVPattern@@V?$allocator@PEAVPattern@@@std@@@std@@@std@@QEBAAEBQEAPEAVPattern@@XZ
	?_Myfirst@?$_Vector_alloc@U?$_Vec_base_types@V?$_List_unchecked_iterator@V?$_List_val@U?$_List_simple_types@U?$pair@$$CBV?$basic_string@DU?$char_traits@D@std@@V?$allocator@D@2@@std@@PEAVElement@@@std@@@std@@@std@@@std@@U?$_Wrap_alloc@V?$allocator@V?$_List_unchecked_iterator@V?$_List_val@U?$_List_simple_types@U?$pair@$$CBV?$basic_string@DU?$char_traits@D@std@@V?$allocator@D@2@@std@@PEAVElement@@@std@@@std@@@std@@@std@@@std@@@2@@std@@@std@@QEAAAEAPEAV?$_List_unchecked_iterator@V?$_List_val@U?$_List_simple_types@U?$pair@$$CBV?$basic_string@DU?$char_traits@D@std@@V?$allocator@D@2@@std@@PEAVElement@@@std@@@std@@@std@@@2@XZ
	?_Myfirst@?$_Vector_alloc@U?$_Vec_base_types@V?$_List_unchecked_iterator@V?$_List_val@U?$_List_simple_types@U?$pair@$$CBV?$basic_string@DU?$char_traits@D@std@@V?$allocator@D@2@@std@@PEAVElement@@@std@@@std@@@std@@@std@@U?$_Wrap_alloc@V?$allocator@V?$_List_unchecked_iterator@V?$_List_val@U?$_List_simple_types@U?$pair@$$CBV?$basic_string@DU?$char_traits@D@std@@V?$allocator@D@2@@std@@PEAVElement@@@std@@@std@@@std@@@std@@@std@@@2@@std@@@std@@QEBAAEBQEAV?$_List_unchecked_iterator@V?$_List_val@U?$_List_simple_types@U?$pair@$$CBV?$basic_string@DU?$char_traits@D@std@@V?$allocator@D@2@@std@@PEAVElement@@@std@@@std@@@std@@@2@XZ
	?_Myfirst@?$_Vector_alloc@U?$_Vec_base_types@V?$basic_string@DU?$char_traits@D@std@@V?$allocator@D@2@@std@@V?$allocator@V?$basic_string@DU?$char_traits@D@std@@V?$allocator@D@2@@std@@@2@@std@@@std@@QEAAAEAPEAV?$basic_string@DU?$char_traits@D@std@@V?$allocator@D@2@@2@XZ
	?_Myfirst@?$_Vector_alloc@U?$_Vec_base_types@V?$basic_string@DU?$char_traits@D@std@@V?$allocator@D@2@@std@@V?$allocator@V?$basic_string@DU?$char_traits@D@std@@V?$allocator@D@2@@std@@@2@@std@@@std@@QEBAAEBQEAV?$basic_string@DU?$char_traits@D@std@@V?$allocator@D@2@@2@XZ
	?_Myhead@?$_List_alloc@U?$_List_base_types@U?$pair@$$CBV?$basic_string@DU?$char_traits@D@std@@V?$allocator@D@2@@std@@PEAVElement@@@std@@V?$allocator@U?$pair@$$CBV?$basic_string@DU?$char_traits@D@std@@V?$allocator@D@2@@std@@PEAVElement@@@std@@@2@@std@@@std@@QEAAAEAPEAU?$_List_node@U?$pair@$$CBV?$basic_string@DU?$char_traits@D@std@@V?$allocator@D@2@@std@@PEAVElement@@@std@@PEAX@2@XZ
	?_Myhead@?$_List_alloc@U?$_List_base_types@VDemand@@V?$allocator@VDemand@@@std@@@std@@@std@@QEAAAEAPEAU?$_List_node@VDemand@@PEAX@2@XZ
	?_Mylast@?$_Vector_alloc@U?$_Vec_base_types@DV?$allocator@D@std@@@std@@@std@@QEAAAEAPEADXZ
	?_Mylast@?$_Vector_alloc@U?$_Vec_base_types@DV?$allocator@D@std@@@std@@@std@@QEBAAEBQEADXZ
	?_Mylast@?$_Vector_alloc@U?$_Vec_base_types@HV?$allocator@H@std@@@std@@@std@@QEAAAEAPEAHXZ
	?_Mylast@?$_Vector_alloc@U?$_Vec_base_types@HV?$allocator@H@std@@@std@@@std@@QEBAAEBQEAHXZ
	?_Mylast@?$_Vector_alloc@U?$_Vec_base_types@NV?$allocator@N@std@@@std@@@std@@QEAAAEAPEANXZ
	?_Mylast@?$_Vector_alloc@U?$_Vec_base_types@NV?$allocator@N@std@@@std@@@std@@QEBAAEBQEANXZ
	?_Mylast@?$_Vector_alloc@U?$_Vec_base_types@PEAUSegment@@V?$allocator@PEAUSegment@@@std@@@std@@@std@@QEAAAEAPEAPEAUSegment@@XZ
	?_Mylast@?$_Vector_alloc@U?$_Vec_base_types@PEAUSegment@@V?$allocator@PEAUSegment@@@std@@@std@@@std@@QEBAAEBQEAPEAUSegment@@XZ
	?_Mylast@?$_Vector_alloc@U?$_Vec_base_types@PEAVControl@@V?$allocator@PEAVControl@@@std@@@std@@@std@@QEAAAEAPEAPEAVControl@@XZ
	?_Mylast@?$_Vector_alloc@U?$_Vec_base_types@PEAVControl@@V?$allocator@PEAVControl@@@std@@@std@@@std@@QEBAAEBQEAPEAVControl@@XZ
	?_Mylast@?$_Vector_alloc@U?$_Vec_base_types@PEAVCurve@@V?$allocator@PEAVCurve@@@std@@@std@@@std@@QEAAAEAPEAPEAVCurve@@XZ
	?_Mylast@?$_Vector_alloc@U?$_Vec_base_types@PEAVCurve@@V?$allocator@PEAVCurve@@@std@@@std@@@std@@QEBAAEBQEAPEAVCurve@@XZ
	?_Mylast@?$_Vector_alloc@U?$_Vec_base_types@PEAVLink@@V?$allocator@PEAVLink@@@std@@@std@@@std@@QEAAAEAPEAPEAVLink@@XZ
	?_Mylast@?$_Vector_alloc@U?$_Vec_base_types@PEAVLink@@V?$allocator@PEAVLink@@@std@@@std@@@std@@QEBAAEBQEAPEAVLink@@XZ
	?_Mylast@?$_Vector_alloc@U?$_Vec_base_types@PEAVNode@@V?$allocator@PEAVNode@@@std@@@std@@@std@@QEAAAEAPEAPEAVNode@@XZ
	?_Mylast@?$_Vector_alloc@U?$_Vec_base_types@PEAVNode@@V?$allocator@PEAVNode@@@std@@@std@@@std@@QEBAAEBQEAPEAVNode@@XZ
	?_Mylast@?$_Vector_alloc@U?$_Vec_base_types@PEAVPattern@@V?$allocator@PEAVPattern@@@std@@@std@@@std@@QEAAAEAPEAPEAVPattern@@XZ
	?_Mylast@?$_Vector_alloc@U?$_Vec_base_types@PEAVPattern@@V?$allocator@PEAVPattern@@@std@@@std@@@std@@QEBAAEBQEAPEAVPattern@@XZ
	?_Mylast@?$_Vector_alloc@U?$_Vec_base_types@V?$_List_unchecked_iterator@V?$_List_val@U?$_List_simple_types@U?$pair@$$CBV?$basic_string@DU?$char_traits@D@std@@V?$allocator@D@2@@std@@PEAVElement@@@std@@@std@@@std@@@std@@U?$_Wrap_alloc@V?$allocator@V?$_List_unchecked_iterator@V?$_List_val@U?$_List_simple_types@U?$pair@$$CBV?$basic_string@DU?$char_traits@D@std@@V?$allocator@D@2@@std@@PEAVElement@@@std@@@std@@@std@@@std@@@std@@@2@@std@@@std@@QEAAAEAPEAV?$_List_unchecked_iterator@V?$_List_val@U?$_List_simple_types@U?$pair@$$CBV?$basic_string@DU?$char_traits@D@std@@V?$allocator@D@2@@std@@PEAVElement@@@std@@@std@@@std@@@2@XZ
	?_Mylast@?$_Vector_alloc@U?$_Vec_base_types@V?$_List_unchecked_iterator@V?$_List_val@U?$_List_simple_types@U?$pair@$$CBV?$basic_string@DU?$char_traits@D@std@@V?$allocator@D@2@@std@@PEAVElement@@@std@@@std@@@std@@@std@@U?$_Wrap_alloc@V?$allocator@V?$_List_unchecked_iterator@V?$_List_val@U?$_List_simple_types@U?$pair@$$CBV?$basic_string@DU?$char_traits@D@std@@V?$allocator@D@2@@std@@PEAVElement@@@std@@@std@@@std@@@std@@@std@@@2@@std@@@std@@QEBAAEBQEAV?$_List_unchecked_iterator@V?$_List_val@U?$_List_simple_types@U?$pair@$$CBV?$basic_string@DU?$char_traits@D@std@@V?$allocator@D@2@@std@@PEAVElement@@@std@@@std@@@std@@@2@XZ
	?_Mylast@?$_Vector_alloc@U?$_Vec_base_types@V?$basic_string@DU?$char_traits@D@std@@V?$allocator@D@2@@std@@V?$allocator@V?$basic_string@DU?$char_traits@D@std@@V?$allocator@D@2@@std@@@2@@std@@@std@@QEAAAEAPEAV?$basic_string@DU?$char_traits@D@std@@V?$allocator@D@2@@2@XZ
	?_Mylast@?$_Vector_alloc@U?$_Vec_base_types@V?$basic_string@DU?$char_traits@D@std@@V?$allocator@D@2@@std@@V?$allocator@V?$basic_string@DU?$char_traits@D@std@@V?$allocator@D@2@@std@@@2@@std@@@std@@QEBAAEBQEAV?$basic_string@DU?$char_traits@D@std@@V?$allocator@D@2@@2@XZ
	?_Mynode@?$_List_unchecked_const_iterator@V?$_List_val@U?$_List_simple_types@U?$pair@$$CBV?$basic_string@DU?$char_traits@D@std@@V?$allocator@D@2@@std@@PEAVElement@@@std@@@std@@@std@@U_Iterator_base0@2@@std@@QEBAPEAU?$_List_node@U?$pair@$$CBV?$basic_string@DU?$char_traits@D@std@@V?$allocator@D@2@@std@@PEAVElement@@@std@@PEAX@2@XZ
	?_Mynode@?$_List_unchecked_const_iterator@V?$_List_val@U?$_List_simple_types@U?$pair@$$CBV?$basic_string@DU?$char_traits@D@std@@V?$allocator@D@2@@std@@PEAVElement@@@std@@@std@@@std@@U_Iterator_base12@2@@std@@QEBAPEAU?$_List_node@U?$pair@$$CBV?$basic_string@DU?$char_traits@D@std@@V?$allocator@D@2@@std@@PEAVElement@@@std@@PEAX@2@XZ
	?_Mynode@?$_List_unchecked_const_iterator@V?$_List_val@U?$_List_simple_types@VDemand@@@std@@@std@@U_Iterator_base0@2@@std@@QEBAPEAU?$_List_node@VDemand@@PEAX@2@XZ
	?_Myproxy@?$_List_alloc@U?$_List_base_types@U?$pair@$$CBV?$basic_string@DU?$char_traits@D@std@@V?$allocator@D@2@@std@@PEAVElement@@@std@@V?$allocator@U?$pair@$$CBV?$basic_string@DU?$char_traits@D@std@@V?$allocator@D@2@@std@@PEAVElement@@@std@@@2@@std@@@std@@QEAAAEAPEAU_Container_proxy@2@XZ
	?_Myproxy@?$_List_alloc@U?$_List_base_types@VDemand@@V?$allocator@VDemand@@@std@@@std@@@std@@QEAAAEAPEAU_Container_proxy@2@XZ
	?_Myproxy@?$_String_alloc@U?$_String_base_types@DV?$allocator@D@std@@@std@@@std@@QEAAAEAPEAU_Container_proxy@2@XZ
	?_Myproxy@?$_Vector_alloc@U?$_Vec_base_types@DV?$allocator@D@std@@@std@@@std@@QEAAAEAPEAU_Container_proxy@2@XZ
	?_Myproxy@?$_Vector_alloc@U?$_Vec_base_types@HV?$allocator@H@std@@@std@@@std@@QEAAAEAPEAU_Container_proxy@2@XZ
	?_Myproxy@?$_Vector_alloc@U?$_Vec_base_types@NV?$allocator@N@std@@@std@@@std@@QEAAAEAPEAU_Container_proxy@2@XZ
	?_Myproxy@?$_Vector_alloc@U?$_Vec_base_types@PEAUSegment@@V?$allocator@PEAUSegment@@@std@@@std@@@std@@QEAAAEAPEAU_Container_proxy@2@XZ
	?_Myproxy@?$_Vector_alloc@U?$_Vec_base_types@PEAVControl@@V?$allocator@PEAVControl@@@std@@@std@@@std@@QEAAAEAPEAU_Container_proxy@2@XZ
	?_Myproxy@?$_Vector_alloc@U?$_Vec_base_types@PEAVCurve@@V?$allocator@PEAVCurve@@@std@@@std@@@std@@QEAAAEAPEAU_Container_proxy@2@XZ
	?_Myproxy@?$_Vector_alloc@U?$_Vec_base_types@PEAVLink@@V?$allocator@PEAVLink@@@std@@@std@@@std@@QEAAAEAPEAU_Container_proxy@2@XZ
	?_Myproxy@?$_Vector_alloc@U?$_Vec_base_types@PEAVNode@@V?$allocator@PEAVNode@@@std@@@std@@@std@@QEAAAEAPEAU_Container_proxy@2@XZ
	?_Myproxy@?$_Vector_alloc@U?$_Vec_base_types@PEAVPattern@@V?$allocator@PEAVPattern@@@std@@@std@@@std@@QEAAAEAPEAU_Container_proxy@2@XZ
	?_Myproxy@?$_Vector_alloc@U?$_Vec_base_types@V?$_List_unchecked_iterator@V?$_List_val@U?$_List_simple_types@U?$pair@$$CBV?$basic_string@DU?$char_traits@D@std@@V?$allocator@D@2@@std@@PEAVElement@@@std@@@std@@@std@@@std@@U?$_Wrap_alloc@V?$allocator@V?$_List_unchecked_iterator@V?$_List_val@U?$_List_simple_types@U?$pair@$$CBV?$basic_string@DU?$char_traits@D@std@@V?$allocator@D@2@@std@@PEAVElement@@@std@@@std@@@std@@@std@@@std@@@2@@std@@@std@@QEAAAEAPEAU_Container_proxy@2@XZ
	?_Myproxy@?$_Vector_alloc@U?$_Vec_base_types@V?$basic_string@DU?$char_traits@D@std@@V?$allocator@D@2@@std@@V?$allocator@V?$basic_string@DU?$char_traits@D@std@@V?$allocator@D@2@@std@@@2@@std@@@std@@QEAAAEAPEAU_Container_proxy@2@XZ
	?_Myptr@?$_String_alloc@U?$_String_base_types@DV?$allocator@D@std@@@std@@@std@@QEAAPEADXZ
	?_Myptr@?$_String_alloc@U?$_String_base_types@DV?$allocator@D@std@@@std@@@std@@QEBAPEBDXZ
	?_Myptr@?$_String_val@U?$_Simple_types@D@std@@@std@@QEAAPEADXZ
	?_Myptr@?$_String_val@U?$_Simple_types@D@std@@@std@@QEBAPEBDXZ
	?_Myres@?$_String_alloc@U?$_String_base_types@DV?$allocator@D@std@@@std@@@std@@QEAAAEA_KXZ
	?_Myres@?$_String_alloc@U?$_String_base_types@DV?$allocator@D@std@@@std@@@std@@QEBAAEB_KXZ
	?_Mysize@?$_List_alloc@U?$_List_base_types@U?$pair@$$CBV?$basic_string@DU?$char_traits@D@std@@V?$allocator@D@2@@std@@PEAVElement@@@std@@V?$allocator@U?$pair@$$CBV?$basic_string@DU?$char_traits@D@std@@V?$allocator@D@2@@std@@PEAVElement@@@std@@@2@@std@@@std@@QEAAAEA_KXZ
	?_Mysize@?$_List_alloc@U?$_List_base_types@U?$pair@$$CBV?$basic_string@DU?$char_traits@D@std@@V?$allocator@D@2@@std@@PEAVElement@@@std@@V?$allocator@U?$pair@$$CBV?$basic_string@DU?$char_traits@D@std@@V?$allocator@D@2@@std@@PEAVElement@@@std@@@2@@std@@@std@@QEBAAEB_KXZ
	?_Mysize@?$_List_alloc@U?$_List_base_types@VDemand@@V?$allocator@VDemand@@@std@@@std@@@std@@QEAAAEA_KXZ
	?_Mysize@?$_List_alloc@U?$_List_base_types@VDemand@@V?$allocator@VDemand@@@std@@@std@@@std@@QEBAAEB_KXZ
	?_Mysize@?$_String_alloc@U?$_String_base_types@DV?$allocator@D@std@@@std@@@std@@QEAAAEA_KXZ
	?_Mysize@?$_String_alloc@U?$_String_base_types@DV?$allocator@D@std@@@std@@@std@@QEBAAEB_KXZ
	?_Myval@?$_List_alloc@U?$_List_base_types@U?$pair@$$CBV?$basic_string@DU?$char_traits@D@std@@V?$allocator@D@2@@std@@PEAVElement@@@std@@V?$allocator@U?$pair@$$CBV?$basic_string@DU?$char_traits@D@std@@V?$allocator@D@2@@std@@PEAVElement@@@std@@@2@@std@@@std@@SAAEAU?$pair@$$CBV?$basic_string@DU?$char_traits@D@std@@V?$allocator@D@2@@std@@PEAVElement@@@2@PEAU?$_List_node@U?$pair@$$CBV?$basic_string@DU?$char_traits@D@std@@V?$allocator@D@2@@std@@PEAVElement@@@std@@PEAX@2@@Z
	?_Myval@?$_List_alloc@U?$_List_base_types@VDemand@@V?$allocator@VDemand@@@std@@@std@@@std@@SAAEAVDemand@@PEAU?$_List_node@VDemand@@PEAX@2@@Z
	?_Myval@?$_List_val@U?$_List_simple_types@U?$pair@$$CBV?$basic_string@DU?$char_traits@D@std@@V?$allocator@D@2@@std@@PEAVElement@@@std@@@std@@@std@@SAAEAU?$pair@$$CBV?$basic_string@DU?$char_traits@D@std@@V?$allocator@D@2@@std@@PEAVElement@@@2@PEAU?$_List_node@U?$pair@$$CBV?$basic_string@DU?$char_traits@D@std@@V?$allocator@D@2@@std@@PEAVElement@@@std@@PEAX@2@@Z
	?_Myval@?$_List_val@U?$_List_simple_types@VDemand@@@std@@@std@@SAAEAVDemand@@PEAU?$_List_node@VDemand@@PEAX@2@@Z
	?_Nextnode@?$_List_alloc@U?$_List_base_types@U?$pair@$$CBV?$basic_string@DU?$char_traits@D@std@@V?$allocator@D@2@@std@@PEAVElement@@@std@@V?$allocator@U?$pair@$$CBV?$basic_string@DU?$char_traits@D@std@@V?$allocator@D@2@@std@@PEAVElement@@@std@@@2@@std@@@std@@SAAEAPEAU?$_List_node@U?$pair@$$CBV?$basic_string@DU?$char_traits@D@std@@V?$allocator@D@2@@std@@PEAVElement@@@std@@PEAX@2@PEAU32@@Z
	?_Nextnode@?$_List_alloc@U?$_List_base_types@VDemand@@V?$allocator@VDemand@@@std@@@std@@@std@@SAAEAPEAU?$_List_node@VDemand@@PEAX@2@PEAU32@@Z
	?_Nextnode@?$_List_val@U?$_List_simple_types@U?$pair@$$CBV?$basic_string@DU?$char_traits@D@std@@V?$allocator@D@2@@std@@PEAVElement@@@std@@@std@@@std@@SAAEAPEAU?$_List_node@U?$pair@$$CBV?$basic_string@DU?$char_traits@D@std@@V?$allocator@D@2@@std@@PEAVElement@@@std@@PEAX@2@PEAU32@@Z
	?_Nextnode@?$_List_val@U?$_List_simple_types@VDemand@@@std@@@std@@SAAEAPEAU?$_List_node@VDemand@@PEAX@2@PEAU32@@Z
	?_Orphan_all@?$_List_alloc@U?$_List_base_types@U?$pair@$$CBV?$basic_string@DU?$char_traits@D@std@@V?$allocator@D@2@@std@@PEAVElement@@@std@@V?$allocator@U?$pair@$$CBV?$basic_string@DU?$char_traits@D@std@@V?$allocator@D@2@@std@@PEAVElement@@@std@@@2@@std@@@std@@QEAAXXZ
	?_Orphan_all@?$_List_alloc@U?$_List_base_types@VDemand@@V?$allocator@VDemand@@@std@@@std@@@std@@QEAAXXZ
	?_Orphan_all@?$_String_alloc@U?$_String_base_types@DV?$allocator@D@std@@@std@@@std@@QEAAXXZ
	?_Orphan_all@?$_Vector_alloc@U?$_Vec_base_types@DV?$allocator@D@std@@@std@@@std@@QEAAXXZ
	?_Orphan_all@?$_Vector_alloc@U?$_Vec_base_types@HV?$allocator@H@std@@@std@@@std@@QEAAXXZ
	?_Orphan_all@?$_Vector_alloc@U?$_Vec_base_types@NV?$allocator@N@std@@@std@@@std@@QEAAXXZ
	?_Orphan_all@?$_Vector_alloc@U?$_Vec_base_types@PEAUSegment@@V?$allocator@PEAUSegment@@@std@@@std@@@std@@QEAAXXZ
	?_Orphan_all@?$_Vector_alloc@U?$_Vec_base_types@PEAVControl@@V?$allocator@PEAVControl@@@std@@@std@@@std@@QEAAXXZ
	?_Orphan_all@?$_Vector_alloc@U?$_Vec_base_types@PEAVCurve@@V?$allocator@PEAVCurve@@@std@@@std@@@std@@QEAAXXZ
	?_Orphan_all@?$_Vector_alloc@U?$_Vec_base_types@PEAVLink@@V?$allocator@PEAVLink@@@std@@@std@@@std@@QEAAXXZ
	?_Orphan_all@?$_Vector_alloc@U?$_Vec_base_types@PEAVNode@@V?$allocator@PEAVNode@@@std@@@std@@@std@@QEAAXXZ
	?_Orphan_all@?$_Vector_alloc@U?$_Vec_base_types@PEAVPattern@@V?$allocator@PEAVPattern@@@std@@@std@@@std@@QEAAXXZ
	?_Orphan_all@?$_Vector_alloc@U?$_Vec_base_types@V?$_List_unchecked_iterator@V?$_List_val@U?$_List_simple_types@U?$pair@$$CBV?$basic_string@DU?$char_traits@D@std@@V?$allocator@D@2@@std@@PEAVElement@@@std@@@std@@@std@@@std@@U?$_Wrap_alloc@V?$allocator@V?$_List_unchecked_iterator@V?$_List_val@U?$_List_simple_types@U?$pair@$$CBV?$basic_string@DU?$char_traits@D@std@@V?$allocator@D@2@@std@@PEAVElement@@@std@@@std@@@std@@@std@@@std@@@2@@std@@@std@@QEAAXXZ
	?_Orphan_all@?$_Vector_alloc@U?$_Vec_base_types@V?$basic_string@DU?$char_traits@D@std@@V?$allocator@D@2@@std@@V?$allocator@V?$basic_string@DU?$char_traits@D@std@@V?$allocator@D@2@@std@@@2@@std@@@std@@QEAAXXZ
	?_Orphan_all@_Container_base12@std@@QEAAXXZ
	?_Orphan_me@_Iterator_base12@std@@QEAAXXZ
	?_Orphan_ptr@?$list@U?$pair@$$CBV?$basic_string@DU?$char_traits@D@std@@V?$allocator@D@2@@std@@PEAVElement@@@std@@V?$allocator@U?$pair@$$CBV?$basic_string@DU?$char_traits@D@std@@V?$allocator@D@2@@std@@PEAVElement@@@std@@@2@@std@@QEAAXPEAU?$_List_node@U?$pair@$$CBV?$basic_string@DU?$char_traits@D@std@@V?$allocator@D@2@@std@@PEAVElement@@@std@@PEAX@2@@Z
	?_Orphan_ptr@?$list@VDemand@@V?$allocator@VDemand@@@std@@@std@@QEAAXPEAU?$_List_node@VDemand@@PEAX@2@@Z
	?_Orphan_range@?$vector@DV?$allocator@D@std@@@std@@IEBAXPEAD0@Z
	?_Orphan_range@?$vector@HV?$allocator@H@std@@@std@@IEBAXPEAH0@Z
	?_Orphan_range@?$vector@NV?$allocator@N@std@@@std@@IEBAXPEAN0@Z
	?_Orphan_range@?$vector@PEAUSegment@@V?$allocator@PEAUSegment@@@std@@@std@@IEBAXPEAPEAUSegment@@0@Z
	?_Orphan_range@?$vector@PEAVControl@@V?$allocator@PEAVControl@@@std@@@std@@IEBAXPEAPEAVControl@@0@Z
	?_Orphan_range@?$vector@PEAVCurve@@V?$allocator@PEAVCurve@@@std@@@std@@IEBAXPEAPEAVCurve@@0@Z
	?_Orphan_range@?$vector@PEAVLink@@V?$allocator@PEAVLink@@@std@@@std@@IEBAXPEAPEAVLink@@0@Z
	?_Orphan_range@?$vector@PEAVNode@@V?$allocator@PEAVNode@@@std@@@std@@IEBAXPEAPEAVNode@@0@Z
	?_Orphan_range@?$vector@PEAVPattern@@V?$allocator@PEAVPattern@@@std@@@std@@IEBAXPEAPEAVPattern@@0@Z
	?_Orphan_range@?$vector@V?$_List_unchecked_iterator@V?$_List_val@U?$_List_simple_types@U?$pair@$$CBV?$basic_string@DU?$char_traits@D@std@@V?$allocator@D@2@@std@@PEAVElement@@@std@@@std@@@std@@@std@@U?$_Wrap_alloc@V?$allocator@V?$_List_unchecked_iterator@V?$_List_val@U?$_List_simple_types@U?$pair@$$CBV?$basic_string@DU?$char_traits@D@std@@V?$allocator@D@2@@std@@PEAVElement@@@std@@@std@@@std@@@std@@@std@@@2@@std@@IEBAXPEAV?$_List_unchecked_iterator@V?$_List_val@U?$_List_simple_types@U?$pair@$$CBV?$basic_string@DU?$char_traits@D@std@@V?$allocator@D@2@@std@@PEAVElement@@@std@@@std@@@std@@@2@0@Z
	?_Orphan_range@?$vector@V?$basic_string@DU?$char_traits@D@std@@V?$allocator@D@2@@std@@V?$allocator@V?$basic_string@DU?$char_traits@D@std@@V?$allocator@D@2@@std@@@2@@std@@IEBAXPEAV?$basic_string@DU?$char_traits@D@std@@V?$allocator@D@2@@2@0@Z
	?_Pop_back_n@?$vector@DV?$allocator@D@std@@@std@@QEAAX_K@Z
	?_Pop_back_n@?$vector@HV?$allocator@H@std@@@std@@QEAAX_K@Z
	?_Pop_back_n@?$vector@NV?$allocator@N@std@@@std@@QEAAX_K@Z
	?_Pop_back_n@?$vector@PEAUSegment@@V?$allocator@PEAUSegment@@@std@@@std@@QEAAX_K@Z
	?_Prevnode@?$_List_alloc@U?$_List_base_types@U?$pair@$$CBV?$basic_string@DU?$char_traits@D@std@@V?$allocator@D@2@@std@@PEAVElement@@@std@@V?$allocator@U?$pair@$$CBV?$basic_string@DU?$char_traits@D@std@@V?$allocator@D@2@@std@@PEAVElement@@@std@@@2@@std@@@std@@SAAEAPEAU?$_List_node@U?$pair@$$CBV?$basic_string@DU?$char_traits@D@std@@V?$allocator@D@2@@std@@PEAVElement@@@std@@PEAX@2@PEAU32@@Z
	?_Prevnode@?$_List_alloc@U?$_List_base_types@VDemand@@V?$allocator@VDemand@@@std@@@std@@@std@@SAAEAPEAU?$_List_node@VDemand@@PEAX@2@PEAU32@@Z
	?_Prevnode@?$_List_val@U?$_List_simple_types@U?$pair@$$CBV?$basic_string@DU?$char_traits@D@std@@V?$allocator@D@2@@std@@PEAVElement@@@std@@@std@@@std@@SAAEAPEAU?$_List_node@U?$pair@$$CBV?$basic_string@DU?$char_traits@D@std@@V?$allocator@D@2@@std@@PEAVElement@@@std@@PEAX@2@PEAU32@@Z
	?_Prevnode@?$_List_val@U?$_List_simple_types@VDemand@@@std@@@std@@SAAEAPEAU?$_List_node@VDemand@@PEAX@2@PEAU32@@Z
	?_Reallocate@?$vector@DV?$allocator@D@std@@@std@@IEAAX_K@Z
	?_Reallocate@?$vector@HV?$allocator@H@std@@@std@@IEAAX_K@Z
	?_Reallocate@?$vector@NV?$allocator@N@std@@@std@@IEAAX_K@Z
	?_Reallocate@?$vector@PEAUSegment@@V?$allocator@PEAUSegment@@@std@@@std@@IEAAX_K@Z
	?_Reallocate@?$vector@PEAVControl@@V?$allocator@PEAVControl@@@std@@@std@@IEAAX_K@Z
	?_Reallocate@?$vector@PEAVCurve@@V?$allocator@PEAVCurve@@@std@@@std@@IEAAX_K@Z
	?_Reallocate@?$vector@PEAVLink@@V?$allocator@PEAVLink@@@std@@@std@@IEAAX_K@Z
	?_Reallocate@?$vector@PEAVNode@@V?$allocator@PEAVNode@@@std@@@std@@IEAAX_K@Z
	?_Reallocate@?$vector@PEAVPattern@@V?$allocator@PEAVPattern@@@std@@@std@@IEAAX_K@Z
	?_Reallocate@?$vector@V?$_List_unchecked_iterator@V?$_List_val@U?$_List_simple_types@U?$pair@$$CBV?$basic_string@DU?$char_traits@D@std@@V?$allocator@D@2@@std@@PEAVElement@@@std@@@std@@@std@@@std@@U?$_Wrap_alloc@V?$allocator@V?$_List_unchecked_iterator@V?$_List_val@U?$_List_simple_types@U?$pair@$$CBV?$basic_string@DU?$char_traits@D@std@@V?$allocator@D@2@@std@@PEAVElement@@@std@@@std@@@std@@@std@@@std@@@2@@std@@IEAAX_K@Z
	?_Reallocate@?$vector@V?$basic_string@DU?$char_traits@D@std@@V?$allocator@D@2@@std@@V?$allocator@V?$basic_string@DU?$char_traits@D@std@@V?$allocator@D@2@@std@@@2@@std@@IEAAX_K@Z
	?_Reinsert@?$_Hash@V?$_Umap_traits@V?$basic_string@DU?$char_traits@D@std@@V?$allocator@D@2@@std@@PEAVElement@@V?$_Uhash_compare@V?$basic_string@DU?$char_traits@D@std@@V?$allocator@D@2@@std@@U?$hash@V?$basic_string@DU?$char_traits@D@std@@V?$allocator@D@2@@std@@@2@U?$equal_to@V?$basic_string@DU?$char_traits@D@std@@V?$allocator@D@2@@std@@@2@@2@V?$allocator@U?$pair@$$CBV?$basic_string@DU?$char_traits@D@std@@V?$allocator@D@2@@std@@PEAVElement@@@std@@@2@$0A@@std@@@std@@IEAAXXZ
	?_Reserve@?$vector@DV?$allocator@D@std@@@std@@IEAAX_K@Z
	?_Reserve@?$vector@HV?$allocator@H@std@@@std@@IEAAX_K@Z
	?_Reserve@?$vector@NV?$allocator@N@std@@@std@@IEAAX_K@Z
	?_Reserve@?$vector@PEAUSegment@@V?$allocator@PEAUSegment@@@std@@@std@@IEAAX_K@Z
	?_Reserve@?$vector@PEAVControl@@V?$allocator@PEAVControl@@@std@@@std@@IEAAX_K@Z
	?_Reserve@?$vector@PEAVCurve@@V?$allocator@PEAVCurve@@@std@@@std@@IEAAX_K@Z
	?_Reserve@?$vector@PEAVLink@@V?$allocator@PEAVLink@@@std@@@std@@IEAAX_K@Z
	?_Reserve@?$vector@PEAVNode@@V?$allocator@PEAVNode@@@std@@@std@@IEAAX_K@Z
	?_Reserve@?$vector@PEAVPattern@@V?$allocator@PEAVPattern@@@std@@@std@@IEAAX_K@Z
	?_Reserve@?$vector@V?$basic_string@DU?$char_traits@D@std@@V?$allocator@D@2@@std@@V?$allocator@V?$basic_string@DU?$char_traits@D@std@@V?$allocator@D@2@@std@@@2@@std@@IEAAX_K@Z
	?_Reset_back@?$basic_filebuf@DU?$char_traits@D@std@@@std@@AEAAXXZ
	?_Set_back@?$basic_filebuf@DU?$char_traits@D@std@@@std@@AEAAXXZ
	?_Swap_all@?$_Vector_alloc@U?$_Vec_base_types@V?$basic_string@DU?$char_traits@D@std@@V?$allocator@D@2@@std@@V?$allocator@V?$basic_string@DU?$char_traits@D@std@@V?$allocator@D@2@@std@@@2@@std@@@std@@QEAAXAEAV12@@Z
	?_Swap_all@_Container_base12@std@@QEAAXAEAU12@@Z
	?_Tidy@?$basic_string@DU?$char_traits@D@std@@V?$allocator@D@2@@std@@QEAAX_N_K@Z
	?_Tidy@?$basic_stringbuf@DU?$char_traits@D@std@@V?$allocator@D@2@@std@@IEAAXXZ
	?_Tidy@?$list@U?$pair@$$CBV?$basic_string@DU?$char_traits@D@std@@V?$allocator@D@2@@std@@PEAVElement@@@std@@V?$allocator@U?$pair@$$CBV?$basic_string@DU?$char_traits@D@std@@V?$allocator@D@2@@std@@PEAVElement@@@std@@@2@@std@@QEAAXXZ
	?_Tidy@?$list@VDemand@@V?$allocator@VDemand@@@std@@@std@@QEAAXXZ
	?_Tidy@?$vector@DV?$allocator@D@std@@@std@@IEAAXXZ
	?_Tidy@?$vector@HV?$allocator@H@std@@@std@@IEAAXXZ
	?_Tidy@?$vector@NV?$allocator@N@std@@@std@@IEAAXXZ
	?_Tidy@?$vector@PEAUSegment@@V?$allocator@PEAUSegment@@@std@@@std@@IEAAXXZ
	?_Tidy@?$vector@PEAVControl@@V?$allocator@PEAVControl@@@std@@@std@@IEAAXXZ
	?_Tidy@?$vector@PEAVCurve@@V?$allocator@PEAVCurve@@@std@@@std@@IEAAXXZ
	?_Tidy@?$vector@PEAVLink@@V?$allocator@PEAVLink@@@std@@@std@@IEAAXXZ
	?_Tidy@?$vector@PEAVNode@@V?$allocator@PEAVNode@@@std@@@std@@IEAAXXZ
	?_Tidy@?$vector@PEAVPattern@@V?$allocator@PEAVPattern@@@std@@@std@@IEAAXXZ
	?_Tidy@?$vector@V?$_List_unchecked_iterator@V?$_List_val@U?$_List_simple_types@U?$pair@$$CBV?$basic_string@DU?$char_traits@D@std@@V?$allocator@D@2@@std@@PEAVElement@@@std@@@std@@@std@@@std@@U?$_Wrap_alloc@V?$allocator@V?$_List_unchecked_iterator@V?$_List_val@U?$_List_simple_types@U?$pair@$$CBV?$basic_string@DU?$char_traits@D@std@@V?$allocator@D@2@@std@@PEAVElement@@@std@@@std@@@std@@@std@@@std@@@2@@std@@IEAAXXZ
	?_Tidy@?$vector@V?$basic_string@DU?$char_traits@D@std@@V?$allocator@D@2@@std@@V?$allocator@V?$basic_string@DU?$char_traits@D@std@@V?$allocator@D@2@@std@@@2@@std@@IEAAXXZ
	?_Traits_compare@?$basic_string@DU?$char_traits@D@std@@V?$allocator@D@2@@std@@SAHQEBD_K01@Z
	?_Ufill@?$vector@DV?$allocator@D@std@@@std@@IEAAPEADPEAD_KPEBD@Z
	?_Ufill@?$vector@HV?$allocator@H@std@@@std@@IEAAPEAHPEAH_KPEBH@Z
	?_Ufill@?$vector@NV?$allocator@N@std@@@std@@IEAAPEANPEAN_KPEBN@Z
	?_Ufill@?$vector@PEAUSegment@@V?$allocator@PEAUSegment@@@std@@@std@@IEAAPEAPEAUSegment@@PEAPEAU3@_KPEBQEAU3@@Z
	?_Ufill@?$vector@V?$_List_unchecked_iterator@V?$_List_val@U?$_List_simple_types@U?$pair@$$CBV?$basic_string@DU?$char_traits@D@std@@V?$allocator@D@2@@std@@PEAVElement@@@std@@@std@@@std@@@std@@U?$_Wrap_alloc@V?$allocator@V?$_List_unchecked_iterator@V?$_List_val@U?$_List_simple_types@U?$pair@$$CBV?$basic_string@DU?$char_traits@D@std@@V?$allocator@D@2@@std@@PEAVElement@@@std@@@std@@@std@@@std@@@std@@@2@@std@@IEAAPEAV?$_List_unchecked_iterator@V?$_List_val@U?$_List_simple_types@U?$pair@$$CBV?$basic_string@DU?$char_traits@D@std@@V?$allocator@D@2@@std@@PEAVElement@@@std@@@std@@@std@@@2@PEAV32@_KPEBV32@@Z
	?_Unchecked@?$_List_iterator@V?$_List_val@U?$_List_simple_types@U?$pair@$$CBV?$basic_string@DU?$char_traits@D@std@@V?$allocator@D@2@@std@@PEAVElement@@@std@@@std@@@std@@@std@@QEBA?AV?$_List_unchecked_iterator@V?$_List_val@U?$_List_simple_types@U?$pair@$$CBV?$basic_string@DU?$char_traits@D@std@@V?$allocator@D@2@@std@@PEAVElement@@@std@@@std@@@std@@@2@XZ
	?_Unchecked_begin@?$_Hash@V?$_Umap_traits@V?$basic_string@DU?$char_traits@D@std@@V?$allocator@D@2@@std@@PEAVElement@@V?$_Uhash_compare@V?$basic_string@DU?$char_traits@D@std@@V?$allocator@D@2@@std@@U?$hash@V?$basic_string@DU?$char_traits@D@std@@V?$allocator@D@2@@std@@@2@U?$equal_to@V?$basic_string@DU?$char_traits@D@std@@V?$allocator@D@2@@std@@@2@@2@V?$allocator@U?$pair@$$CBV?$basic_string@DU?$char_traits@D@std@@V?$allocator@D@2@@std@@PEAVElement@@@std@@@2@$0A@@std@@@std@@QEAA?AV?$_List_unchecked_iterator@V?$_List_val@U?$_List_simple_types@U?$pair@$$CBV?$basic_string@DU?$char_traits@D@std@@V?$allocator@D@2@@std@@PEAVElement@@@std@@@std@@@std@@@2@XZ
	?_Unchecked_begin@?$list@U?$pair@$$CBV?$basic_string@DU?$char_traits@D@std@@V?$allocator@D@2@@std@@PEAVElement@@@std@@V?$allocator@U?$pair@$$CBV?$basic_string@DU?$char_traits@D@std@@V?$allocator@D@2@@std@@PEAVElement@@@std@@@2@@std@@QEAA?AV?$_List_unchecked_iterator@V?$_List_val@U?$_List_simple_types@U?$pair@$$CBV?$basic_string@DU?$char_traits@D@std@@V?$allocator@D@2@@std@@PEAVElement@@@std@@@std@@@std@@@2@XZ
	?_Unchecked_end@?$_Hash@V?$_Umap_traits@V?$basic_string@DU?$char_traits@D@std@@V?$allocator@D@2@@std@@PEAVElement@@V?$_Uhash_compare@V?$basic_string@DU?$char_traits@D@std@@V?$allocator@D@2@@std@@U?$hash@V?$basic_string@DU?$char_traits@D@std@@V?$allocator@D@2@@std@@@2@U?$equal_to@V?$basic_string@DU?$char_traits@D@std@@V?$allocator@D@2@@std@@@2@@2@V?$allocator@U?$pair@$$CBV?$basic_string@DU?$char_traits@D@std@@V?$allocator@D@2@@std@@PEAVElement@@@std@@@2@$0A@@std@@@std@@QEAA?AV?$_List_unchecked_iterator@V?$_List_val@U?$_List_simple_types@U?$pair@$$CBV?$basic_string@DU?$char_traits@D@std@@V?$allocator@D@2@@std@@PEAVElement@@@std@@@std@@@std@@@2@XZ
	?_Unchecked_end@?$list@U?$pair@$$CBV?$basic_string@DU?$char_traits@D@std@@V?$allocator@D@2@@std@@PEAVElement@@@std@@V?$allocator@U?$pair@$$CBV?$basic_string@DU?$char_traits@D@std@@V?$allocator@D@2@@std@@PEAVElement@@@std@@@2@@std@@QEAA?AV?$_List_unchecked_iterator@V?$_List_val@U?$_List_simple_types@U?$pair@$$CBV?$basic_string@DU?$char_traits@D@std@@V?$allocator@D@2@@std@@PEAVElement@@@std@@@std@@@std@@@2@XZ
	?_Unchecked_end@?$list@VDemand@@V?$allocator@VDemand@@@std@@@std@@QEAA?AV?$_List_unchecked_iterator@V?$_List_val@U?$_List_simple_types@VDemand@@@std@@@std@@@2@XZ
	?_Unchecked_splice@?$list@U?$pair@$$CBV?$basic_string@DU?$char_traits@D@std@@V?$allocator@D@2@@std@@PEAVElement@@@std@@V?$allocator@U?$pair@$$CBV?$basic_string@DU?$char_traits@D@std@@V?$allocator@D@2@@std@@PEAVElement@@@std@@@2@@std@@QEAAXV?$_List_unchecked_const_iterator@V?$_List_val@U?$_List_simple_types@U?$pair@$$CBV?$basic_string@DU?$char_traits@D@std@@V?$allocator@D@2@@std@@PEAVElement@@@std@@@std@@@std@@U_Iterator_base0@2@@2@00@Z
	?_Unlinknode@?$list@U?$pair@$$CBV?$basic_string@DU?$char_traits@D@std@@V?$allocator@D@2@@std@@PEAVElement@@@std@@V?$allocator@U?$pair@$$CBV?$basic_string@DU?$char_traits@D@std@@V?$allocator@D@2@@std@@PEAVElement@@@std@@@2@@std@@QEAAPEAU?$_List_node@U?$pair@$$CBV?$basic_string@DU?$char_traits@D@std@@V?$allocator@D@2@@std@@PEAVElement@@@std@@PEAX@2@V?$_List_const_iterator@V?$_List_val@U?$_List_simple_types@U?$pair@$$CBV?$basic_string@DU?$char_traits@D@std@@V?$allocator@D@2@@std@@PEAVElement@@@std@@@std@@@std@@@2@@Z
	?_Unlock@?$basic_filebuf@DU?$char_traits@D@std@@@std@@UEAAXXZ
	?_Unused_capacity@?$vector@DV?$allocator@D@std@@@std@@QEBA_KXZ
	?_Unused_capacity@?$vector@HV?$allocator@H@std@@@std@@QEBA_KXZ
	?_Unused_capacity@?$vector@NV?$allocator@N@std@@@std@@QEBA_KXZ
	?_Unused_capacity@?$vector@PEAUSegment@@V?$allocator@PEAUSegment@@@std@@@std@@QEBA_KXZ
	?_Unused_capacity@?$vector@PEAVControl@@V?$allocator@PEAVControl@@@std@@@std@@QEBA_KXZ
	?_Unused_capacity@?$vector@PEAVCurve@@V?$allocator@PEAVCurve@@@std@@@std@@QEBA_KXZ
	?_Unused_capacity@?$vector@PEAVLink@@V?$allocator@PEAVLink@@@std@@@std@@QEBA_KXZ
	?_Unused_capacity@?$vector@PEAVNode@@V?$allocator@PEAVNode@@@std@@@std@@QEBA_KXZ
	?_Unused_capacity@?$vector@PEAVPattern@@V?$allocator@PEAVPattern@@@std@@@std@@QEBA_KXZ
	?_Unused_capacity@?$vector@V?$_List_unchecked_iterator@V?$_List_val@U?$_List_simple_types@U?$pair@$$CBV?$basic_string@DU?$char_traits@D@std@@V?$allocator@D@2@@std@@PEAVElement@@@std@@@std@@@std@@@std@@U?$_Wrap_alloc@V?$allocator@V?$_List_unchecked_iterator@V?$_List_val@U?$_List_simple_types@U?$pair@$$CBV?$basic_string@DU?$char_traits@D@std@@V?$allocator@D@2@@std@@PEAVElement@@@std@@@std@@@std@@@std@@@std@@@2@@std@@QEBA_KXZ
	?_Unused_capacity@?$vector@V?$basic_string@DU?$char_traits@D@std@@V?$allocator@D@2@@std@@V?$allocator@V?$basic_string@DU?$char_traits@D@std@@V?$allocator@D@2@@std@@@2@@std@@QEBA_KXZ
	?_Vec_hi@?$_Hash@V?$_Umap_traits@V?$basic_string@DU?$char_traits@D@std@@V?$allocator@D@2@@std@@PEAVElement@@V?$_Uhash_compare@V?$basic_string@DU?$char_traits@D@std@@V?$allocator@D@2@@std@@U?$hash@V?$basic_string@DU?$char_traits@D@std@@V?$allocator@D@2@@std@@@2@U?$equal_to@V?$basic_string@DU?$char_traits@D@std@@V?$allocator@D@2@@std@@@2@@2@V?$allocator@U?$pair@$$CBV?$basic_string@DU?$char_traits@D@std@@V?$allocator@D@2@@std@@PEAVElement@@@std@@@2@$0A@@std@@@std@@IEAAAEAV?$_List_unchecked_iterator@V?$_List_val@U?$_List_simple_types@U?$pair@$$CBV?$basic_string@DU?$char_traits@D@std@@V?$allocator@D@2@@std@@PEAVElement@@@std@@@std@@@std@@@2@_K@Z
	?_Vec_lo@?$_Hash@V?$_Umap_traits@V?$basic_string@DU?$char_traits@D@std@@V?$allocator@D@2@@std@@PEAVElement@@V?$_Uhash_compare@V?$basic_string@DU?$char_traits@D@std@@V?$allocator@D@2@@std@@U?$hash@V?$basic_string@DU?$char_traits@D@std@@V?$allocator@D@2@@std@@@2@U?$equal_to@V?$basic_string@DU?$char_traits@D@std@@V?$allocator@D@2@@std@@@2@@2@V?$allocator@U?$pair@$$CBV?$basic_string@DU?$char_traits@D@std@@V?$allocator@D@2@@std@@PEAVElement@@@std@@@2@$0A@@std@@@std@@IEAAAEAV?$_List_unchecked_iterator@V?$_List_val@U?$_List_simple_types@U?$pair@$$CBV?$basic_string@DU?$char_traits@D@std@@V?$allocator@D@2@@std@@PEAVElement@@@std@@@std@@@std@@@2@_K@Z
	?_Xlen@?$basic_string@DU?$char_traits@D@std@@V?$allocator@D@2@@std@@QEBAXXZ
	?_Xlen@?$vector@DV?$allocator@D@std@@@std@@IEBAXXZ
	?_Xlen@?$vector@HV?$allocator@H@std@@@std@@IEBAXXZ
	?_Xlen@?$vector@NV?$allocator@N@std@@@std@@IEBAXXZ
	?_Xlen@?$vector@PEAUSegment@@V?$allocator@PEAUSegment@@@std@@@std@@IEBAXXZ
	?_Xlen@?$vector@PEAVControl@@V?$allocator@PEAVControl@@@std@@@std@@IEBAXXZ
	?_Xlen@?$vector@PEAVCurve@@V?$allocator@PEAVCurve@@@std@@@std@@IEBAXXZ
	?_Xlen@?$vector@PEAVLink@@V?$allocator@PEAVLink@@@std@@@std@@IEBAXXZ
	?_Xlen@?$vector@PEAVNode@@V?$allocator@PEAVNode@@@std@@@std@@IEBAXXZ
	?_Xlen@?$vector@PEAVPattern@@V?$allocator@PEAVPattern@@@std@@@std@@IEBAXXZ
	?_Xlen@?$vector@V?$_List_unchecked_iterator@V?$_List_val@U?$_List_simple_types@U?$pair@$$CBV?$basic_string@DU?$char_traits@D@std@@V?$allocator@D@2@@std@@PEAVElement@@@std@@@std@@@std@@@std@@U?$_Wrap_alloc@V?$allocator@V?$_List_unchecked_iterator@V?$_List_val@U?$_List_simple_types@U?$pair@$$CBV?$basic_string@DU?$char_traits@D@std@@V?$allocator@D@2@@std@@PEAVElement@@@std@@@std@@@std@@@std@@@std@@@2@@std@@IEBAXXZ
	?_Xlen@?$vector@V?$basic_string@DU?$char_traits@D@std@@V?$allocator@D@2@@std@@V?$allocator@V?$basic_string@DU?$char_traits@D@std@@V?$allocator@D@2@@std@@@2@@std@@IEBAXXZ
	?_Xran@?$basic_string@DU?$char_traits@D@std@@V?$allocator@D@2@@std@@QEBAXXZ
	?_Xran@?$vector@NV?$allocator@N@std@@@std@@IEBAXXZ
	?__empty_global_delete@@YAXPEAX@Z
	?__empty_global_delete@@YAXPEAX_K@Z
	?abs@@YAMM@Z
	?abs@@YANN@Z
	?activate@Control@@AEAA_N_NAEAV?$basic_ostream@DU?$char_traits@D@std@@@std@@@Z
	?addCVHeadLoss@HeadLossModel@@SAXNAEAN0@Z
	?addData@Curve@@QEAAXNN@Z
	?addElement@Network@@QEAA_NW4ElementType@Element@@HV?$basic_string@DU?$char_traits@D@std@@V?$allocator@D@2@@std@@@Z
	?addEmitter@Emitter@@SA_NPEAVJunction@@NNPEAVPattern@@@Z
	?addFactor@Pattern@@QEAAXN@Z
	?addSegment@LTDSolver@@AEAAXHNN@Z
	?addSource@QualSource@@SA_NPEAVNode@@HNPEAVPattern@@@Z
	?addTime@VariablePattern@@QEAAXH@Z
	?addTitleLine@Network@@QEAAXV?$basic_string@DU?$char_traits@D@std@@V?$allocator@D@2@@std@@@Z
	?addToDiag@SparspakSolver@@UEAAXHN@Z
	?addToOffDiag@SparspakSolver@@UEAAXHN@Z
	?addToRhs@SparspakSolver@@UEAAXHN@Z
	?address@?$_Wrap_alloc@U?$_Wrap_alloc@V?$allocator@U_Container_proxy@std@@@std@@@std@@@std@@QEBAPEAU_Container_proxy@2@AEAU32@@Z
	?address@?$_Wrap_alloc@V?$allocator@D@std@@@std@@QEBAPEADAEAD@Z
	?address@?$_Wrap_alloc@V?$allocator@D@std@@@std@@QEBAPEBDAEBD@Z
	?address@?$_Wrap_alloc@V?$allocator@U_Container_proxy@std@@@std@@@std@@QEBAPEAU_Container_proxy@2@AEAU32@@Z
	?adjustOptions@Options@@QEAAXXZ
	?advance@FixedPattern@@UEAAXH@Z
	?advance@HydEngine@@QEAAXPEAH@Z
	?advance@VariablePattern@@UEAAXH@Z
	?advanceSolver@Project@Epanet@@QEAAHPEAH@Z
	?aij2lnz@@YAXHPEAH000000@Z
	?alloc@MemPool@@QEAAPEAD_K@Z
	?allocate@?$_Wrap_alloc@U?$_Wrap_alloc@V?$allocator@U_Container_proxy@std@@@std@@@std@@@std@@QEAAPEAU_Container_proxy@2@_K@Z
	?allocate@?$_Wrap_alloc@U?$_Wrap_alloc@V?$allocator@V?$_List_unchecked_iterator@V?$_List_val@U?$_List_simple_types@U?$pair@$$CBV?$basic_string@DU?$char_traits@D@std@@V?$allocator@D@2@@std@@PEAVElement@@@std@@@std@@@std@@@std@@@std@@@std@@@std@@QEAAPEAV?$_List_unchecked_iterator@V?$_List_val@U?$_List_simple_types@U?$pair@$$CBV?$basic_string@DU?$char_traits@D@std@@V?$allocator@D@2@@std@@PEAVElement@@@std@@@std@@@std@@@2@_K@Z
	?allocate@?$_Wrap_alloc@V?$allocator@D@std@@@std@@QEAAPEAD_K@Z
	?allocate@?$_Wrap_alloc@V?$allocator@H@std@@@std@@QEAAPEAH_K@Z
	?allocate@?$_Wrap_alloc@V?$allocator@N@std@@@std@@QEAAPEAN_K@Z
	?allocate@?$_Wrap_alloc@V?$allocator@PEAUSegment@@@std@@@std@@QEAAPEAPEAUSegment@@_K@Z
	?allocate@?$_Wrap_alloc@V?$allocator@PEAVControl@@@std@@@std@@QEAAPEAPEAVControl@@_K@Z
	?allocate@?$_Wrap_alloc@V?$allocator@PEAVCurve@@@std@@@std@@QEAAPEAPEAVCurve@@_K@Z
	?allocate@?$_Wrap_alloc@V?$allocator@PEAVLink@@@std@@@std@@QEAAPEAPEAVLink@@_K@Z
	?allocate@?$_Wrap_alloc@V?$allocator@PEAVNode@@@std@@@std@@QEAAPEAPEAVNode@@_K@Z
	?allocate@?$_Wrap_alloc@V?$allocator@PEAVPattern@@@std@@@std@@QEAAPEAPEAVPattern@@_K@Z
	?allocate@?$_Wrap_alloc@V?$allocator@U?$_List_node@U?$pair@$$CBV?$basic_string@DU?$char_traits@D@std@@V?$allocator@D@2@@std@@PEAVElement@@@std@@PEAX@std@@@std@@@std@@QEAAPEAU?$_List_node@U?$pair@$$CBV?$basic_string@DU?$char_traits@D@std@@V?$allocator@D@2@@std@@PEAVElement@@@std@@PEAX@2@_K@Z
	?allocate@?$_Wrap_alloc@V?$allocator@U?$_List_node@VDemand@@PEAX@std@@@std@@@std@@QEAAPEAU?$_List_node@VDemand@@PEAX@2@_K@Z
	?allocate@?$_Wrap_alloc@V?$allocator@U_Container_proxy@std@@@std@@@std@@QEAAPEAU_Container_proxy@2@_K@Z
	?allocate@?$_Wrap_alloc@V?$allocator@V?$_List_unchecked_iterator@V?$_List_val@U?$_List_simple_types@U?$pair@$$CBV?$basic_string@DU?$char_traits@D@std@@V?$allocator@D@2@@std@@PEAVElement@@@std@@@std@@@std@@@std@@@std@@@std@@QEAAPEAV?$_List_unchecked_iterator@V?$_List_val@U?$_List_simple_types@U?$pair@$$CBV?$basic_string@DU?$char_traits@D@std@@V?$allocator@D@2@@std@@PEAVElement@@@std@@@std@@@std@@@2@_K@Z
	?allocate@?$_Wrap_alloc@V?$allocator@V?$basic_string@DU?$char_traits@D@std@@V?$allocator@D@2@@std@@@std@@@std@@QEAAPEAV?$basic_string@DU?$char_traits@D@std@@V?$allocator@D@2@@2@_K@Z
	?allocate@?$allocator@D@std@@QEAAPEAD_K@Z
	?allocate@?$allocator@H@std@@QEAAPEAH_K@Z
	?allocate@?$allocator@N@std@@QEAAPEAN_K@Z
	?allocate@?$allocator@PEAUSegment@@@std@@QEAAPEAPEAUSegment@@_K@Z
	?allocate@?$allocator@PEAVControl@@@std@@QEAAPEAPEAVControl@@_K@Z
	?allocate@?$allocator@PEAVCurve@@@std@@QEAAPEAPEAVCurve@@_K@Z
	?allocate@?$allocator@PEAVLink@@@std@@QEAAPEAPEAVLink@@_K@Z
	?allocate@?$allocator@PEAVNode@@@std@@QEAAPEAPEAVNode@@_K@Z
	?allocate@?$allocator@PEAVPattern@@@std@@QEAAPEAPEAVPattern@@_K@Z
	?allocate@?$allocator@U?$_List_node@U?$pair@$$CBV?$basic_string@DU?$char_traits@D@std@@V?$allocator@D@2@@std@@PEAVElement@@@std@@PEAX@std@@@std@@QEAAPEAU?$_List_node@U?$pair@$$CBV?$basic_string@DU?$char_traits@D@std@@V?$allocator@D@2@@std@@PEAVElement@@@std@@PEAX@2@_K@Z
	?allocate@?$allocator@U?$_List_node@VDemand@@PEAX@std@@@std@@QEAAPEAU?$_List_node@VDemand@@PEAX@2@_K@Z
	?allocate@?$allocator@U_Container_proxy@std@@@std@@QEAAPEAU_Container_proxy@2@_K@Z
	?allocate@?$allocator@V?$_List_unchecked_iterator@V?$_List_val@U?$_List_simple_types@U?$pair@$$CBV?$basic_string@DU?$char_traits@D@std@@V?$allocator@D@2@@std@@PEAVElement@@@std@@@std@@@std@@@std@@@std@@QEAAPEAV?$_List_unchecked_iterator@V?$_List_val@U?$_List_simple_types@U?$pair@$$CBV?$basic_string@DU?$char_traits@D@std@@V?$allocator@D@2@@std@@PEAVElement@@@std@@@std@@@std@@@2@_K@Z
	?allocate@?$allocator@V?$basic_string@DU?$char_traits@D@std@@V?$allocator@D@2@@std@@@std@@QEAAPEAV?$basic_string@DU?$char_traits@D@std@@V?$allocator@D@2@@2@_K@Z
	?append@?$basic_string@DU?$char_traits@D@std@@V?$allocator@D@2@@std@@QEAAAEAV12@AEBV12@@Z
	?append@?$basic_string@DU?$char_traits@D@std@@V?$allocator@D@2@@std@@QEAAAEAV12@AEBV12@_K1@Z
	?append@?$basic_string@DU?$char_traits@D@std@@V?$allocator@D@2@@std@@QEAAAEAV12@PEBD@Z
	?append@?$basic_string@DU?$char_traits@D@std@@V?$allocator@D@2@@std@@QEAAAEAV12@PEBD_K@Z
	?append@?$basic_string@DU?$char_traits@D@std@@V?$allocator@D@2@@std@@QEAAAEAV12@_KD@Z
	?apply@Control@@QEAAXPEAVNetwork@@HH@Z
	?applyControlPattern@Link@@UEAAXAEAV?$basic_ostream@DU?$char_traits@D@std@@@std@@@Z
	?applyControlPattern@Pump@@UEAAXAEAV?$basic_ostream@DU?$char_traits@D@std@@@std@@@Z
	?applyPressureControls@Control@@SAXPEAVNetwork@@@Z
	?assign@?$basic_string@DU?$char_traits@D@std@@V?$allocator@D@2@@std@@QEAAAEAV12@AEBV12@@Z
	?assign@?$basic_string@DU?$char_traits@D@std@@V?$allocator@D@2@@std@@QEAAAEAV12@AEBV12@_K1@Z
	?assign@?$basic_string@DU?$char_traits@D@std@@V?$allocator@D@2@@std@@QEAAAEAV12@PEBD@Z
	?assign@?$basic_string@DU?$char_traits@D@std@@V?$allocator@D@2@@std@@QEAAAEAV12@PEBD_K@Z
	?assign@?$basic_string@DU?$char_traits@D@std@@V?$allocator@D@2@@std@@QEAAAEAV12@_KD@Z
	?assign@?$char_traits@D@std@@SAPEADPEAD_KD@Z
	?assign@?$char_traits@D@std@@SAXAEADAEBD@Z
	?assign@?$vector@V?$_List_unchecked_iterator@V?$_List_val@U?$_List_simple_types@U?$pair@$$CBV?$basic_string@DU?$char_traits@D@std@@V?$allocator@D@2@@std@@PEAVElement@@@std@@@std@@@std@@@std@@U?$_Wrap_alloc@V?$allocator@V?$_List_unchecked_iterator@V?$_List_val@U?$_List_simple_types@U?$pair@$$CBV?$basic_string@DU?$char_traits@D@std@@V?$allocator@D@2@@std@@PEAVElement@@@std@@@std@@@std@@@std@@@std@@@2@@std@@QEAAX_KAEBV?$_List_unchecked_iterator@V?$_List_val@U?$_List_simple_types@U?$pair@$$CBV?$basic_string@DU?$char_traits@D@std@@V?$allocator@D@2@@std@@PEAVElement@@@std@@@std@@@std@@@2@@Z
	?at@?$vector@NV?$allocator@N@std@@@std@@QEAAAEAN_K@Z
	?begin@?$basic_string@DU?$char_traits@D@std@@V?$allocator@D@2@@std@@QEAA?AV?$_String_iterator@V?$_String_val@U?$_Simple_types@D@std@@@std@@@2@XZ
	?begin@?$basic_string@DU?$char_traits@D@std@@V?$allocator@D@2@@std@@QEBA?AV?$_String_const_iterator@V?$_String_val@U?$_Simple_types@D@std@@@std@@@2@XZ
	?begin@?$list@U?$pair@$$CBV?$basic_string@DU?$char_traits@D@std@@V?$allocator@D@2@@std@@PEAVElement@@@std@@V?$allocator@U?$pair@$$CBV?$basic_string@DU?$char_traits@D@std@@V?$allocator@D@2@@std@@PEAVElement@@@std@@@2@@std@@QEAA?AV?$_List_iterator@V?$_List_val@U?$_List_simple_types@U?$pair@$$CBV?$basic_string@DU?$char_traits@D@std@@V?$allocator@D@2@@std@@PEAVElement@@@std@@@std@@@std@@@2@XZ
	?begin@?$list@VDemand@@V?$allocator@VDemand@@@std@@@std@@QEAA?AV?$_List_iterator@V?$_List_val@U?$_List_simple_types@VDemand@@@std@@@std@@@2@XZ
	?begin@?$vector@PEAVControl@@V?$allocator@PEAVControl@@@std@@@std@@QEAA?AV?$_Vector_iterator@V?$_Vector_val@U?$_Simple_types@PEAVControl@@@std@@@std@@@2@XZ
	?begin@?$vector@PEAVCurve@@V?$allocator@PEAVCurve@@@std@@@std@@QEAA?AV?$_Vector_iterator@V?$_Vector_val@U?$_Simple_types@PEAVCurve@@@std@@@std@@@2@XZ
	?begin@?$vector@PEAVLink@@V?$allocator@PEAVLink@@@std@@@std@@QEAA?AV?$_Vector_iterator@V?$_Vector_val@U?$_Simple_types@PEAVLink@@@std@@@std@@@2@XZ
	?begin@?$vector@PEAVNode@@V?$allocator@PEAVNode@@@std@@@std@@QEAA?AV?$_Vector_iterator@V?$_Vector_val@U?$_Simple_types@PEAVNode@@@std@@@std@@@2@XZ
	?begin@?$vector@PEAVPattern@@V?$allocator@PEAVPattern@@@std@@@std@@QEAA?AV?$_Vector_iterator@V?$_Vector_val@U?$_Simple_types@PEAVPattern@@@std@@@std@@@2@XZ
	?begin@?$vector@V?$_List_unchecked_iterator@V?$_List_val@U?$_List_simple_types@U?$pair@$$CBV?$basic_string@DU?$char_traits@D@std@@V?$allocator@D@2@@std@@PEAVElement@@@std@@@std@@@std@@@std@@U?$_Wrap_alloc@V?$allocator@V?$_List_unchecked_iterator@V?$_List_val@U?$_List_simple_types@U?$pair@$$CBV?$basic_string@DU?$char_traits@D@std@@V?$allocator@D@2@@std@@PEAVElement@@@std@@@std@@@std@@@std@@@std@@@2@@std@@QEAA?AV?$_Vector_iterator@V?$_Vector_val@U?$_Simple_types@V?$_List_unchecked_iterator@V?$_List_val@U?$_List_simple_types@U?$pair@$$CBV?$basic_string@DU?$char_traits@D@std@@V?$allocator@D@2@@std@@PEAVElement@@@std@@@std@@@std@@@std@@@std@@@std@@@2@XZ
	?begin@?$vector@V?$basic_string@DU?$char_traits@D@std@@V?$allocator@D@2@@std@@V?$allocator@V?$basic_string@DU?$char_traits@D@std@@V?$allocator@D@2@@std@@@2@@std@@QEAA?AV?$_Vector_iterator@V?$_Vector_val@U?$_Simple_types@V?$basic_string@DU?$char_traits@D@std@@V?$allocator@D@2@@std@@@std@@@std@@@2@XZ
	?bucket_count@?$_Hash@V?$_Umap_traits@V?$basic_string@DU?$char_traits@D@std@@V?$allocator@D@2@@std@@PEAVElement@@V?$_Uhash_compare@V?$basic_string@DU?$char_traits@D@std@@V?$allocator@D@2@@std@@U?$hash@V?$basic_string@DU?$char_traits@D@std@@V?$allocator@D@2@@std@@@2@U?$equal_to@V?$basic_string@DU?$char_traits@D@std@@V?$allocator@D@2@@std@@@2@@2@V?$allocator@U?$pair@$$CBV?$basic_string@DU?$char_traits@D@std@@V?$allocator@D@2@@std@@PEAVElement@@@std@@@2@$0A@@std@@@std@@QEBA_KXZ
	?buildAdjncy@@YAXHHPEAH000000@Z
	?c_str@?$basic_string@DU?$char_traits@D@std@@V?$allocator@D@2@@std@@QEBAPEBDXZ
	?canLeak@Link@@UEAA_NXZ
	?canLeak@Pipe@@UEAA_NXZ
	?capacity@?$basic_string@DU?$char_traits@D@std@@V?$allocator@D@2@@std@@QEBA_KXZ
	?capacity@?$vector@DV?$allocator@D@std@@@std@@QEBA_KXZ
	?capacity@?$vector@HV?$allocator@H@std@@@std@@QEBA_KXZ
	?capacity@?$vector@NV?$allocator@N@std@@@std@@QEBA_KXZ
	?capacity@?$vector@PEAUSegment@@V?$allocator@PEAUSegment@@@std@@@std@@QEBA_KXZ
	?capacity@?$vector@PEAVControl@@V?$allocator@PEAVControl@@@std@@@std@@QEBA_KXZ
	?capacity@?$vector@PEAVCurve@@V?$allocator@PEAVCurve@@@std@@@std@@QEBA_KXZ
	?capacity@?$vector@PEAVLink@@V?$allocator@PEAVLink@@@std@@@std@@QEBA_KXZ
	?capacity@?$vector@PEAVNode@@V?$allocator@PEAVNode@@@std@@@std@@QEBA_KXZ
	?capacity@?$vector@PEAVPattern@@V?$allocator@PEAVPattern@@@std@@@std@@QEBA_KXZ
	?capacity@?$vector@V?$_List_unchecked_iterator@V?$_List_val@U?$_List_simple_types@U?$pair@$$CBV?$basic_string@DU?$char_traits@D@std@@V?$allocator@D@2@@std@@PEAVElement@@@std@@@std@@@std@@@std@@U?$_Wrap_alloc@V?$allocator@V?$_List_unchecked_iterator@V?$_List_val@U?$_List_simple_types@U?$pair@$$CBV?$basic_string@DU?$char_traits@D@std@@V?$allocator@D@2@@std@@PEAVElement@@@std@@@std@@@std@@@std@@@std@@@2@@std@@QEBA_KXZ
	?capacity@?$vector@V?$basic_string@DU?$char_traits@D@std@@V?$allocator@D@2@@std@@V?$allocator@V?$basic_string@DU?$char_traits@D@std@@V?$allocator@D@2@@std@@@2@@std@@QEBA_KXZ
	?changeSetting@Link@@UEAA_NN_NV?$basic_string@DU?$char_traits@D@std@@V?$allocator@D@2@@std@@AEAV?$basic_ostream@DU?$char_traits@D@std@@@3@@Z
	?changeSetting@Pump@@UEAA_NN_NV?$basic_string@DU?$char_traits@D@std@@V?$allocator@D@2@@std@@AEAV?$basic_ostream@DU?$char_traits@D@std@@@3@@Z
	?changeSetting@Valve@@UEAA_NN_NV?$basic_string@DU?$char_traits@D@std@@V?$allocator@D@2@@std@@AEAV?$basic_ostream@DU?$char_traits@D@std@@@3@@Z
	?changeStatus@Link@@UEAA_NH_NV?$basic_string@DU?$char_traits@D@std@@V?$allocator@D@2@@std@@AEAV?$basic_ostream@DU?$char_traits@D@std@@@3@@Z
	?changeStatus@Pipe@@UEAA_NH_NV?$basic_string@DU?$char_traits@D@std@@V?$allocator@D@2@@std@@AEAV?$basic_ostream@DU?$char_traits@D@std@@@3@@Z
	?changeStatus@Pump@@UEAA_NH_NV?$basic_string@DU?$char_traits@D@std@@V?$allocator@D@2@@std@@AEAV?$basic_ostream@DU?$char_traits@D@std@@@3@@Z
	?changeStatus@Valve@@UEAA_NH_NV?$basic_string@DU?$char_traits@D@std@@V?$allocator@D@2@@std@@AEAV?$basic_ostream@DU?$char_traits@D@std@@@3@@Z
	?clear@?$basic_string@DU?$char_traits@D@std@@V?$allocator@D@2@@std@@QEAAXXZ
	?clear@?$list@U?$pair@$$CBV?$basic_string@DU?$char_traits@D@std@@V?$allocator@D@2@@std@@PEAVElement@@@std@@V?$allocator@U?$pair@$$CBV?$basic_string@DU?$char_traits@D@std@@V?$allocator@D@2@@std@@PEAVElement@@@std@@@2@@std@@QEAAXXZ
	?clear@?$list@VDemand@@V?$allocator@VDemand@@@std@@@std@@QEAAXXZ
	?clear@?$vector@DV?$allocator@D@std@@@std@@QEAAXXZ
	?clear@?$vector@HV?$allocator@H@std@@@std@@QEAAXXZ
	?clear@?$vector@NV?$allocator@N@std@@@std@@QEAAXXZ
	?clear@?$vector@PEAUSegment@@V?$allocator@PEAUSegment@@@std@@@std@@QEAAXXZ
	?clear@?$vector@PEAVControl@@V?$allocator@PEAVControl@@@std@@@std@@QEAAXXZ
	?clear@?$vector@PEAVCurve@@V?$allocator@PEAVCurve@@@std@@@std@@QEAAXXZ
	?clear@?$vector@PEAVLink@@V?$allocator@PEAVLink@@@std@@@std@@QEAAXXZ
	?clear@?$vector@PEAVNode@@V?$allocator@PEAVNode@@@std@@@std@@QEAAXXZ
	?clear@?$vector@PEAVPattern@@V?$allocator@PEAVPattern@@@std@@@std@@QEAAXXZ
	?clear@?$vector@V?$_List_unchecked_iterator@V?$_List_val@U?$_List_simple_types@U?$pair@$$CBV?$basic_string@DU?$char_traits@D@std@@V?$allocator@D@2@@std@@PEAVElement@@@std@@@std@@@std@@@std@@U?$_Wrap_alloc@V?$allocator@V?$_List_unchecked_iterator@V?$_List_val@U?$_List_simple_types@U?$pair@$$CBV?$basic_string@DU?$char_traits@D@std@@V?$allocator@D@2@@std@@PEAVElement@@@std@@@std@@@std@@@std@@@std@@@2@@std@@QEAAXXZ
	?clear@?$vector@V?$basic_string@DU?$char_traits@D@std@@V?$allocator@D@2@@std@@V?$allocator@V?$basic_string@DU?$char_traits@D@std@@V?$allocator@D@2@@std@@@2@@std@@QEAAXXZ
	?clear@Network@@QEAAXXZ
	?clear@Project@Epanet@@QEAAXXZ
	?close@?$basic_filebuf@DU?$char_traits@D@std@@@std@@QEAAPEAV12@XZ
	?close@?$basic_fstream@DU?$char_traits@D@std@@@std@@QEAAXXZ
	?close@?$basic_ifstream@DU?$char_traits@D@std@@@std@@QEAAXXZ
	?close@?$basic_ofstream@DU?$char_traits@D@std@@@std@@QEAAXXZ
	?close@HydEngine@@QEAAXXZ
	?close@OutputFile@@QEAAXXZ
	?close@QualEngine@@QEAAXXZ
	?closeReport@Project@Epanet@@AEAAXXZ
	?compare@?$basic_string@DU?$char_traits@D@std@@V?$allocator@D@2@@std@@QEBAHAEBV12@@Z
	?compare@?$basic_string@DU?$char_traits@D@std@@V?$allocator@D@2@@std@@QEBAHPEBD@Z
	?compare@?$char_traits@D@std@@SAHPEBD0_K@Z
	?compress@@YAHHHPEAH0000@Z
	?constHpHeadLoss@PumpCurve@@AEAAXNNAEAN0@Z
	?control@Network@@QEAAPEAVControl@@AEBV?$basic_string@DU?$char_traits@D@std@@V?$allocator@D@2@@std@@@Z
	?control@Network@@QEAAPEAVControl@@H@Z
	?convertSetting@Link@@UEAANPEAVNetwork@@N@Z
	?convertSetting@Valve@@UEAANPEAVNetwork@@N@Z
	?convertUnits@Control@@QEAAXPEAVNetwork@@@Z
	?convertUnits@Emitter@@QEAAXPEAVNetwork@@@Z
	?convertUnits@Junction@@UEAAXPEAVNetwork@@@Z
	?convertUnits@Network@@QEAAXXZ
	?convertUnits@Pipe@@UEAAXPEAVNetwork@@@Z
	?convertUnits@Pump@@UEAAXPEAVNetwork@@@Z
	?convertUnits@Reservoir@@UEAAXPEAVNetwork@@@Z
	?convertUnits@Tank@@UEAAXPEAVNetwork@@@Z
	?convertUnits@Valve@@UEAAXPEAVNetwork@@@Z
	?copy@?$char_traits@D@std@@SAPEADPEADPEBD_K@Z
	?count@Network@@QEAAHW4ElementType@Element@@@Z
	?createAdjLists@Graph@@QEAAXPEAVNetwork@@@Z
	?createControl@ControlParser@@AEAAXPEAVNetwork@@@Z
	?createDemandModel@Network@@QEAA_NXZ
	?createHeadLossModel@Network@@QEAA_NXZ
	?createLeakageModel@Network@@QEAA_NXZ
	?createQualModel@Network@@QEAA_NXZ
	?currentFactor@Pattern@@QEAANXZ
	?curve@Network@@QEAAPEAVCurve@@AEBV?$basic_string@DU?$char_traits@D@std@@V?$allocator@D@2@@std@@@Z
	?curve@Network@@QEAAPEAVCurve@@H@Z
	?curveType@Curve@@QEAAHXZ
	?customCurveHeadLoss@PumpCurve@@AEAAXNNAEAN0@Z
	?deallocate@?$_Wrap_alloc@U?$_Wrap_alloc@V?$allocator@U_Container_proxy@std@@@std@@@std@@@std@@QEAAXPEAU_Container_proxy@2@_K@Z
	?deallocate@?$_Wrap_alloc@U?$_Wrap_alloc@V?$allocator@V?$_List_unchecked_iterator@V?$_List_val@U?$_List_simple_types@U?$pair@$$CBV?$basic_string@DU?$char_traits@D@std@@V?$allocator@D@2@@std@@PEAVElement@@@std@@@std@@@std@@@std@@@std@@@std@@@std@@QEAAXPEAV?$_List_unchecked_iterator@V?$_List_val@U?$_List_simple_types@U?$pair@$$CBV?$basic_string@DU?$char_traits@D@std@@V?$allocator@D@2@@std@@PEAVElement@@@std@@@std@@@std@@@2@_K@Z
	?deallocate@?$_Wrap_alloc@V?$allocator@D@std@@@std@@QEAAXPEAD_K@Z
	?deallocate@?$_Wrap_alloc@V?$allocator@H@std@@@std@@QEAAXPEAH_K@Z
	?deallocate@?$_Wrap_alloc@V?$allocator@N@std@@@std@@QEAAXPEAN_K@Z
	?deallocate@?$_Wrap_alloc@V?$allocator@PEAUSegment@@@std@@@std@@QEAAXPEAPEAUSegment@@_K@Z
	?deallocate@?$_Wrap_alloc@V?$allocator@PEAVControl@@@std@@@std@@QEAAXPEAPEAVControl@@_K@Z
	?deallocate@?$_Wrap_alloc@V?$allocator@PEAVCurve@@@std@@@std@@QEAAXPEAPEAVCurve@@_K@Z
	?deallocate@?$_Wrap_alloc@V?$allocator@PEAVLink@@@std@@@std@@QEAAXPEAPEAVLink@@_K@Z
	?deallocate@?$_Wrap_alloc@V?$allocator@PEAVNode@@@std@@@std@@QEAAXPEAPEAVNode@@_K@Z
	?deallocate@?$_Wrap_alloc@V?$allocator@PEAVPattern@@@std@@@std@@QEAAXPEAPEAVPattern@@_K@Z
	?deallocate@?$_Wrap_alloc@V?$allocator@U?$_List_node@U?$pair@$$CBV?$basic_string@DU?$char_traits@D@std@@V?$allocator@D@2@@std@@PEAVElement@@@std@@PEAX@std@@@std@@@std@@QEAAXPEAU?$_List_node@U?$pair@$$CBV?$basic_string@DU?$char_traits@D@std@@V?$allocator@D@2@@std@@PEAVElement@@@std@@PEAX@2@_K@Z
	?deallocate@?$_Wrap_alloc@V?$allocator@U?$_List_node@VDemand@@PEAX@std@@@std@@@std@@QEAAXPEAU?$_List_node@VDemand@@PEAX@2@_K@Z
	?deallocate@?$_Wrap_alloc@V?$allocator@U_Container_proxy@std@@@std@@@std@@QEAAXPEAU_Container_proxy@2@_K@Z
	?deallocate@?$_Wrap_alloc@V?$allocator@V?$_List_unchecked_iterator@V?$_List_val@U?$_List_simple_types@U?$pair@$$CBV?$basic_string@DU?$char_traits@D@std@@V?$allocator@D@2@@std@@PEAVElement@@@std@@@std@@@std@@@std@@@std@@@std@@QEAAXPEAV?$_List_unchecked_iterator@V?$_List_val@U?$_List_simple_types@U?$pair@$$CBV?$basic_string@DU?$char_traits@D@std@@V?$allocator@D@2@@std@@PEAVElement@@@std@@@std@@@std@@@2@_K@Z
	?deallocate@?$_Wrap_alloc@V?$allocator@V?$basic_string@DU?$char_traits@D@std@@V?$allocator@D@2@@std@@@std@@@std@@QEAAXPEAV?$basic_string@DU?$char_traits@D@std@@V?$allocator@D@2@@2@_K@Z
	?deallocate@?$allocator@D@std@@QEAAXPEAD_K@Z
	?deallocate@?$allocator@H@std@@QEAAXPEAH_K@Z
	?deallocate@?$allocator@N@std@@QEAAXPEAN_K@Z
	?deallocate@?$allocator@PEAUSegment@@@std@@QEAAXPEAPEAUSegment@@_K@Z
	?deallocate@?$allocator@PEAVControl@@@std@@QEAAXPEAPEAVControl@@_K@Z
	?deallocate@?$allocator@PEAVCurve@@@std@@QEAAXPEAPEAVCurve@@_K@Z
	?deallocate@?$allocator@PEAVLink@@@std@@QEAAXPEAPEAVLink@@_K@Z
	?deallocate@?$allocator@PEAVNode@@@std@@QEAAXPEAPEAVNode@@_K@Z
	?deallocate@?$allocator@PEAVPattern@@@std@@QEAAXPEAPEAVPattern@@_K@Z
	?deallocate@?$allocator@U?$_List_node@U?$pair@$$CBV?$basic_string@DU?$char_traits@D@std@@V?$allocator@D@2@@std@@PEAVElement@@@std@@PEAX@std@@@std@@QEAAXPEAU?$_List_node@U?$pair@$$CBV?$basic_string@DU?$char_traits@D@std@@V?$allocator@D@2@@std@@PEAVElement@@@std@@PEAX@2@_K@Z
	?deallocate@?$allocator@U?$_List_node@VDemand@@PEAX@std@@@std@@QEAAXPEAU?$_List_node@VDemand@@PEAX@2@_K@Z
	?deallocate@?$allocator@U_Container_proxy@std@@@std@@QEAAXPEAU_Container_proxy@2@_K@Z
	?deallocate@?$allocator@V?$_List_unchecked_iterator@V?$_List_val@U?$_List_simple_types@U?$pair@$$CBV?$basic_string@DU?$char_traits@D@std@@V?$allocator@D@2@@std@@PEAVElement@@@std@@@std@@@std@@@std@@@std@@QEAAXPEAV?$_List_unchecked_iterator@V?$_List_val@U?$_List_simple_types@U?$pair@$$CBV?$basic_string@DU?$char_traits@D@std@@V?$allocator@D@2@@std@@PEAVElement@@@std@@@std@@@std@@@2@_K@Z
	?deallocate@?$allocator@V?$basic_string@DU?$char_traits@D@std@@V?$allocator@D@2@@std@@@std@@QEAAXPEAV?$basic_string@DU?$char_traits@D@std@@V?$allocator@D@2@@2@_K@Z
	?debug@MatrixSolver@@UEAAXAEAV?$basic_ostream@DU?$char_traits@D@std@@@std@@@Z
	?demandOptionsToStr@Options@@QEAA?AV?$basic_string@DU?$char_traits@D@std@@V?$allocator@D@2@@std@@XZ
	?empty@?$basic_string@DU?$char_traits@D@std@@V?$allocator@D@2@@std@@QEBA_NXZ
	?end@?$_Hash@V?$_Umap_traits@V?$basic_string@DU?$char_traits@D@std@@V?$allocator@D@2@@std@@PEAVElement@@V?$_Uhash_compare@V?$basic_string@DU?$char_traits@D@std@@V?$allocator@D@2@@std@@U?$hash@V?$basic_string@DU?$char_traits@D@std@@V?$allocator@D@2@@std@@@2@U?$equal_to@V?$basic_string@DU?$char_traits@D@std@@V?$allocator@D@2@@std@@@2@@2@V?$allocator@U?$pair@$$CBV?$basic_string@DU?$char_traits@D@std@@V?$allocator@D@2@@std@@PEAVElement@@@std@@@2@$0A@@std@@@std@@QEAA?AV?$_List_iterator@V?$_List_val@U?$_List_simple_types@U?$pair@$$CBV?$basic_string@DU?$char_traits@D@std@@V?$allocator@D@2@@std@@PEAVElement@@@std@@@std@@@std@@@2@XZ
	?end@?$basic_string@DU?$char_traits@D@std@@V?$allocator@D@2@@std@@QEAA?AV?$_String_iterator@V?$_String_val@U?$_Simple_types@D@std@@@std@@@2@XZ
	?end@?$basic_string@DU?$char_traits@D@std@@V?$allocator@D@2@@std@@QEBA?AV?$_String_const_iterator@V?$_String_val@U?$_Simple_types@D@std@@@std@@@2@XZ
	?end@?$list@U?$pair@$$CBV?$basic_string@DU?$char_traits@D@std@@V?$allocator@D@2@@std@@PEAVElement@@@std@@V?$allocator@U?$pair@$$CBV?$basic_string@DU?$char_traits@D@std@@V?$allocator@D@2@@std@@PEAVElement@@@std@@@2@@std@@QEAA?AV?$_List_iterator@V?$_List_val@U?$_List_simple_types@U?$pair@$$CBV?$basic_string@DU?$char_traits@D@std@@V?$allocator@D@2@@std@@PEAVElement@@@std@@@std@@@std@@@2@XZ
	?end@?$list@VDemand@@V?$allocator@VDemand@@@std@@@std@@QEAA?AV?$_List_iterator@V?$_List_val@U?$_List_simple_types@VDemand@@@std@@@std@@@2@XZ
	?end@?$vector@PEAVControl@@V?$allocator@PEAVControl@@@std@@@std@@QEAA?AV?$_Vector_iterator@V?$_Vector_val@U?$_Simple_types@PEAVControl@@@std@@@std@@@2@XZ
	?end@?$vector@PEAVCurve@@V?$allocator@PEAVCurve@@@std@@@std@@QEAA?AV?$_Vector_iterator@V?$_Vector_val@U?$_Simple_types@PEAVCurve@@@std@@@std@@@2@XZ
	?end@?$vector@PEAVLink@@V?$allocator@PEAVLink@@@std@@@std@@QEAA?AV?$_Vector_iterator@V?$_Vector_val@U?$_Simple_types@PEAVLink@@@std@@@std@@@2@XZ
	?end@?$vector@PEAVNode@@V?$allocator@PEAVNode@@@std@@@std@@QEAA?AV?$_Vector_iterator@V?$_Vector_val@U?$_Simple_types@PEAVNode@@@std@@@std@@@2@XZ
	?end@?$vector@PEAVPattern@@V?$allocator@PEAVPattern@@@std@@@std@@QEAA?AV?$_Vector_iterator@V?$_Vector_val@U?$_Simple_types@PEAVPattern@@@std@@@std@@@2@XZ
	?end@?$vector@V?$basic_string@DU?$char_traits@D@std@@V?$allocator@D@2@@std@@V?$allocator@V?$basic_string@DU?$char_traits@D@std@@V?$allocator@D@2@@std@@@2@@std@@QEAA?AV?$_Vector_iterator@V?$_Vector_val@U?$_Simple_types@V?$basic_string@DU?$char_traits@D@std@@V?$allocator@D@2@@std@@@std@@@std@@@2@XZ
	?energyOptionsToStr@Options@@QEAA?AV?$basic_string@DU?$char_traits@D@std@@V?$allocator@D@2@@std@@PEAVNetwork@@@Z
	?eof@?$char_traits@D@std@@SAHXZ
	?eq@?$char_traits@D@std@@SA_NAEBD0@Z
	?eq_int_type@?$char_traits@D@std@@SA_NAEBH0@Z
	?erase@?$_Hash@V?$_Umap_traits@V?$basic_string@DU?$char_traits@D@std@@V?$allocator@D@2@@std@@PEAVElement@@V?$_Uhash_compare@V?$basic_string@DU?$char_traits@D@std@@V?$allocator@D@2@@std@@U?$hash@V?$basic_string@DU?$char_traits@D@std@@V?$allocator@D@2@@std@@@2@U?$equal_to@V?$basic_string@DU?$char_traits@D@std@@V?$allocator@D@2@@std@@@2@@2@V?$allocator@U?$pair@$$CBV?$basic_string@DU?$char_traits@D@std@@V?$allocator@D@2@@std@@PEAVElement@@@std@@@2@$0A@@std@@@std@@QEAA?AV?$_List_iterator@V?$_List_val@U?$_List_simple_types@U?$pair@$$CBV?$basic_string@DU?$char_traits@D@std@@V?$allocator@D@2@@std@@PEAVElement@@@std@@@std@@@std@@@2@V?$_List_const_iterator@V?$_List_val@U?$_List_simple_types@U?$pair@$$CBV?$basic_string@DU?$char_traits@D@std@@V?$allocator@D@2@@std@@PEAVElement@@@std@@@std@@@std@@@2@@Z
	?erase@?$basic_string@DU?$char_traits@D@std@@V?$allocator@D@2@@std@@QEAAAEAV12@_K0@Z
	?erase@?$basic_string@DU?$char_traits@D@std@@V?$allocator@D@2@@std@@QEAAAEAV12@_K@Z
	?erase@?$list@U?$pair@$$CBV?$basic_string@DU?$char_traits@D@std@@V?$allocator@D@2@@std@@PEAVElement@@@std@@V?$allocator@U?$pair@$$CBV?$basic_string@DU?$char_traits@D@std@@V?$allocator@D@2@@std@@PEAVElement@@@std@@@2@@std@@QEAA?AV?$_List_iterator@V?$_List_val@U?$_List_simple_types@U?$pair@$$CBV?$basic_string@DU?$char_traits@D@std@@V?$allocator@D@2@@std@@PEAVElement@@@std@@@std@@@std@@@2@V?$_List_const_iterator@V?$_List_val@U?$_List_simple_types@U?$pair@$$CBV?$basic_string@DU?$char_traits@D@std@@V?$allocator@D@2@@std@@PEAVElement@@@std@@@std@@@std@@@2@@Z
	?evaluate@HydBalance@@QEAANNQEAN00PEAVNetwork@@@Z
	?factor@Pattern@@QEAANH@Z
	?factor@Units@@QEAANW4Quantity@1@@Z
	?factorize@@YAHHAEAHPEAH111111@Z
	?factory@DemandModel@@SAPEAV1@V?$basic_string@DU?$char_traits@D@std@@V?$allocator@D@2@@std@@N@Z
	?factory@HeadLossModel@@SAPEAV1@V?$basic_string@DU?$char_traits@D@std@@V?$allocator@D@2@@std@@N@Z
	?factory@HydSolver@@SAPEAV1@V?$basic_string@DU?$char_traits@D@std@@V?$allocator@D@2@@std@@PEAVNetwork@@PEAVMatrixSolver@@@Z
	?factory@LeakageModel@@SAPEAV1@V?$basic_string@DU?$char_traits@D@std@@V?$allocator@D@2@@std@@NN@Z
	?factory@Link@@SAPEAV1@HV?$basic_string@DU?$char_traits@D@std@@V?$allocator@D@2@@std@@PEAVMemPool@@@Z
	?factory@MatrixSolver@@SAPEAV1@V?$basic_string@DU?$char_traits@D@std@@V?$allocator@D@2@@std@@AEAV?$basic_ostream@DU?$char_traits@D@std@@@3@@Z
	?factory@Node@@SAPEAV1@HV?$basic_string@DU?$char_traits@D@std@@V?$allocator@D@2@@std@@PEAVMemPool@@@Z
	?factory@Pattern@@SAPEAV1@HV?$basic_string@DU?$char_traits@D@std@@V?$allocator@D@2@@std@@PEAVMemPool@@@Z
	?factory@QualModel@@SAPEAV1@V?$basic_string@DU?$char_traits@D@std@@V?$allocator@D@2@@std@@@Z
	?factory@QualSolver@@SAPEAV1@V?$basic_string@DU?$char_traits@D@std@@V?$allocator@D@2@@std@@PEAVNetwork@@@Z
	?finalizeSolver@Project@Epanet@@AEAAXXZ
	?find@?$_Hash@V?$_Umap_traits@V?$basic_string@DU?$char_traits@D@std@@V?$allocator@D@2@@std@@PEAVElement@@V?$_Uhash_compare@V?$basic_string@DU?$char_traits@D@std@@V?$allocator@D@2@@std@@U?$hash@V?$basic_string@DU?$char_traits@D@std@@V?$allocator@D@2@@std@@@2@U?$equal_to@V?$basic_string@DU?$char_traits@D@std@@V?$allocator@D@2@@std@@@2@@2@V?$allocator@U?$pair@$$CBV?$basic_string@DU?$char_traits@D@std@@V?$allocator@D@2@@std@@PEAVElement@@@std@@@2@$0A@@std@@@std@@QEAA?AV?$_List_iterator@V?$_List_val@U?$_List_simple_types@U?$pair@$$CBV?$basic_string@DU?$char_traits@D@std@@V?$allocator@D@2@@std@@PEAVElement@@@std@@@std@@@std@@@2@AEBV?$basic_string@DU?$char_traits@D@std@@V?$allocator@D@2@@2@@Z
	?find@?$basic_string@DU?$char_traits@D@std@@V?$allocator@D@2@@std@@QEBA_KD_K@Z
	?find@?$basic_string@DU?$char_traits@D@std@@V?$allocator@D@2@@std@@QEBA_KPEBD_K1@Z
	?find@?$basic_string@DU?$char_traits@D@std@@V?$allocator@D@2@@std@@QEBA_KPEBD_K@Z
	?find@?$char_traits@D@std@@SAPEBDPEBD_KAEBD@Z
	?findActualDemand@Junction@@UEAANPEAVNetwork@@NAEAN@Z
	?findActualDemand@Node@@UEAANPEAVNetwork@@NAEAN@Z
	?findBulkRate@ChemModel@@AEAANNNN@Z
	?findClosedHeadLoss@HeadLossModel@@SAXNAEAN0@Z
	?findCostFactor@PumpEnergy@@AEAANPEAVPump@@PEAVNetwork@@@Z
	?findDemand@ConstrainedDemandModel@@UEAANPEAVJunction@@NAEAN@Z
	?findDemand@DemandModel@@UEAANPEAVJunction@@NAEAN@Z
	?findDemand@LogisticDemandModel@@UEAANPEAVJunction@@NAEAN@Z
	?findDemand@PowerDemandModel@@UEAANPEAVJunction@@NAEAN@Z
	?findEfficiency@PumpEnergy@@AEAANPEAVPump@@PEAVNetwork@@@Z
	?findEmitterFlow@Junction@@UEAANNAEAN@Z
	?findEmitterFlow@Node@@UEAANNAEAN@Z
	?findErrorNorm@GGASolver@@AEAANN@Z
	?findFIFOQuality@TankMixModel@@AEAANNNNPEAVSegPool@@@Z
	?findFcvHeadLoss@Valve@@IEAAXN@Z
	?findFlow@FavadLeakageModel@@UEAANNNNNAEAN@Z
	?findFlow@PowerLeakageModel@@UEAANNNNNAEAN@Z
	?findFlowChanges@GGASolver@@AEAAXXZ
	?findFlowErrorNorm@HydBalance@@QEAANQEANPEAVNetwork@@@Z
	?findFlowRate@Emitter@@QEAANNAEAN@Z
	?findFullDemand@Junction@@UEAAXNN@Z
	?findFullDemand@Node@@UEAAXNN@Z
	?findFullMatch@Utilities@@SAHAEBV?$basic_string@DU?$char_traits@D@std@@V?$allocator@D@2@@std@@QEAPEBD@Z
	?findGpvHeadLoss@Valve@@IEAAXPEAVNetwork@@N@Z
	?findHead@Tank@@QEAANN@Z
	?findHeadChanges@GGASolver@@AEAAHXZ
	?findHeadErrorNorm@HydBalance@@QEAANNQEAN00PEAVNetwork@@@Z
	?findHeadLoss@CM_HeadLossModel@@UEAAXPEAVPipe@@NAEAN1@Z
	?findHeadLoss@DW_HeadLossModel@@UEAAXPEAVPipe@@NAEAN1@Z
	?findHeadLoss@HW_HeadLossModel@@UEAAXPEAVPipe@@NAEAN1@Z
	?findHeadLoss@Pipe@@UEAAXPEAVNetwork@@N@Z
	?findHeadLoss@Pump@@UEAAXPEAVNetwork@@N@Z
	?findHeadLoss@PumpCurve@@QEAAXNNAEAN0@Z
	?findHeadLoss@Valve@@UEAAXPEAVNetwork@@N@Z
	?findLIFOQuality@TankMixModel@@AEAANNNNPEAVSegPool@@@Z
	?findLeakage@Link@@UEAANPEAVNetwork@@NAEAN@Z
	?findLeakage@Pipe@@UEAANPEAVNetwork@@NAEAN@Z
	?findLeakageFlows@@YAXNQEAN0PEAVNetwork@@@Z
	?findMIX1Quality@TankMixModel@@AEAANNNN@Z
	?findMIX2Quality@TankMixModel@@AEAANNNN@Z
	?findMassTransCoeff@ChemModel@@UEAAXPEAVPipe@@@Z
	?findMassTransCoeff@QualModel@@UEAAXPEAVPipe@@@Z
	?findMatch@Utilities@@SAHAEBV?$basic_string@DU?$char_traits@D@std@@V?$allocator@D@2@@std@@QEAPEBD@Z
	?findNodeOutflows@@YAXNQEAN0PEAVNetwork@@@Z
	?findOpenHeadLoss@Valve@@IEAAXN@Z
	?findPbvHeadLoss@Valve@@IEAAXN@Z
	?findQuality@TankMixModel@@QEAANNNNPEAVSegPool@@@Z
	?findSection@InputReader@@IEAAXAEAV?$basic_string@DU?$char_traits@D@std@@V?$allocator@D@2@@std@@@Z
	?findSegment@Curve@@QEAAXNAEAN0@Z
	?findStepSize@GGASolver@@AEAANH@Z
	?findStoredMass@LTDSolver@@AEAANXZ
	?findTcvHeadLoss@Valve@@IEAAXN@Z
	?findTotalFlowChange@@YANNQEANPEAVNetwork@@@Z
	?findTracerAdded@QualModel@@UEAANPEAVNode@@N@Z
	?findTracerAdded@TraceModel@@UEAANPEAVNode@@N@Z
	?findVolume@Tank@@QEAANN@Z
	?findWallRate@ChemModel@@AEAANNNNN@Z
	?find_last_not_of@?$basic_string@DU?$char_traits@D@std@@V?$allocator@D@2@@std@@QEBA_KAEBV12@_K@Z
	?find_last_not_of@?$basic_string@DU?$char_traits@D@std@@V?$allocator@D@2@@std@@QEBA_KPEBD_K1@Z
	?fixed@std@@YAAEAVios_base@1@AEAV21@@Z
	?flowDirectionsChanged@QualEngine@@AEAA_NXZ
	?flowUnits@Options@@QEAAHXZ
	?freeSegment@SegPool@@QEAAXPEAUSegment@@@Z
	?frictionFactor@@YANNNNAEAN@Z
	?front@?$list@U?$pair@$$CBV?$basic_string@DU?$char_traits@D@std@@V?$allocator@D@2@@std@@PEAVElement@@@std@@V?$allocator@U?$pair@$$CBV?$basic_string@DU?$char_traits@D@std@@V?$allocator@D@2@@std@@PEAVElement@@@std@@@2@@std@@QEAAAEAU?$pair@$$CBV?$basic_string@DU?$char_traits@D@std@@V?$allocator@D@2@@std@@PEAVElement@@@2@XZ
	?getCount@DataManager@@SAHHPEAHPEAVNetwork@@@Z
	?getDiag@MatrixSolver@@UEAANH@Z
	?getDiag@SparspakSolver@@UEAANH@Z
	?getElapsedTime@HydEngine@@QEAAHXZ
	?getEpanet3Keyword@OptionParser@@AEAA?AV?$basic_string@DU?$char_traits@D@std@@V?$allocator@D@2@@std@@AEBV23@0AEAV23@@Z
	?getFileName@Utilities@@SA?AV?$basic_string@DU?$char_traits@D@std@@V?$allocator@D@2@@std@@V23@@Z
	?getFullDemand@Demand@@QEAANNN@Z
	?getLinkId@DataManager@@SAHHPEADPEAVNetwork@@@Z
	?getLinkIndex@DataManager@@SAHPEADPEAHPEAVNetwork@@@Z
	?getLinkNodes@DataManager@@SAHHPEAH0PEAVNetwork@@@Z
	?getLinkType@DataManager@@SAHHPEAHPEAVNetwork@@@Z
	?getLinkValue@DataManager@@SAHHHPEANPEAVNetwork@@@Z
	?getNetwork@Project@Epanet@@QEAAPEAVNetwork@@XZ
	?getNodeId@DataManager@@SAHHPEADPEAVNetwork@@@Z
	?getNodeIndex@DataManager@@SAHPEADPEAHPEAVNetwork@@@Z
	?getNodeType@DataManager@@SAHHPEAHPEAVNetwork@@@Z
	?getNodeValue@DataManager@@SAHHHPEANPEAVNetwork@@@Z
	?getOffDiag@MatrixSolver@@UEAANH@Z
	?getOffDiag@SparspakSolver@@UEAANH@Z
	?getPeakKwatts@HydEngine@@QEAANXZ
	?getPipeValue@@YAHHPEAVLink@@PEANPEAVNetwork@@@Z
	?getQualSourceValue@@YAHHPEAVNode@@PEANPEAVNetwork@@@Z
	?getQuality@QualSource@@QEAANPEAVNode@@@Z
	?getRe@Link@@UEAANNN@Z
	?getRe@Pipe@@UEAANNN@Z
	?getRe@Valve@@UEAANNN@Z
	?getResistance@Link@@UEAANXZ
	?getResistance@Pipe@@UEAANXZ
	?getRhs@MatrixSolver@@UEAANH@Z
	?getRhs@SparspakSolver@@UEAANH@Z
	?getSeconds@Utilities@@SAHAEBV?$basic_string@DU?$char_traits@D@std@@V?$allocator@D@2@@std@@0@Z
	?getSegment@SegPool@@QEAAPEAUSegment@@NN@Z
	?getSetting@Link@@UEAANPEAVNetwork@@@Z
	?getSetting@Pipe@@UEAANPEAVNetwork@@@Z
	?getSetting@Pump@@UEAANPEAVNetwork@@@Z
	?getSetting@Valve@@UEAANPEAVNetwork@@@Z
	?getTankValue@@YAHHPEAVNode@@PEANPEAVNetwork@@@Z
	?getTime@Utilities@@SA?AV?$basic_string@DU?$char_traits@D@std@@V?$allocator@D@2@@std@@H@Z
	?getTimeStep@HydEngine@@AEAAHXZ
	?getTmpFileName@Utilities@@SA_NAEAV?$basic_string@DU?$char_traits@D@std@@V?$allocator@D@2@@std@@@Z
	?getUnitHeadLoss@Link@@UEAANXZ
	?getUnitHeadLoss@Pipe@@UEAANXZ
	?getUnits@Network@@QEAA?AV?$basic_string@DU?$char_traits@D@std@@V?$allocator@D@2@@std@@W4Quantity@Units@@@Z
	?getVelocity@Link@@UEAANXZ
	?getVelocity@Pipe@@UEAANXZ
	?getVelocity@Valve@@UEAANXZ
	?getVolume@Link@@UEAANXZ
	?getVolume@Node@@UEAANXZ
	?getVolume@Pipe@@UEAANXZ
	?getVolume@Tank@@UEAANXZ
	?getXofY@Curve@@QEAANN@Z
	?getYofX@Curve@@QEAANN@Z
	?get_allocator@?$basic_string@DU?$char_traits@D@std@@V?$allocator@D@2@@std@@QEBA?AV?$allocator@D@2@XZ
	?hasConnectedNodes@@YA_NPEAVNetwork@@@Z
	?hasConverged@GGASolver@@AEAA_NXZ
	?hasEmitter@Junction@@UEAA_NXZ
	?hasEmitter@Node@@UEAA_NXZ
	?hasFixedGradeNodes@@YA_NPEAVNetwork@@@Z
	?hasValidCurves@@YA_NPEAVNetwork@@@Z
	?hasValidLinks@@YA_NPEAVNetwork@@@Z
	?hasValidNodes@@YA_NPEAVNetwork@@@Z
	?hasValidValves@@YA_NPEAVNetwork@@@Z
	?hydOptionsToStr@Options@@QEAA?AV?$basic_string@DU?$char_traits@D@std@@V?$allocator@D@2@@std@@XZ
	?imbue@?$basic_filebuf@DU?$char_traits@D@std@@@std@@MEAAXAEBVlocale@2@@Z
	?indexOf@Network@@QEAAHW4ElementType@Element@@AEBV?$basic_string@DU?$char_traits@D@std@@V?$allocator@D@2@@std@@@Z
	?indexOption@Options@@QEAAHW4IndexOption@1@@Z
	?init@ChemModel@@UEAAXPEAVNetwork@@@Z
	?init@FixedPattern@@UEAAXHH@Z
	?init@HydEngine@@QEAAX_N@Z
	?init@LTDSolver@@UEAAXXZ
	?init@PumpEnergy@@QEAAXXZ
	?init@QualBalance@@QEAAXN@Z
	?init@QualEngine@@QEAAXXZ
	?init@QualModel@@UEAAXPEAVNetwork@@@Z
	?init@QualSolver@@UEAAXXZ
	?init@SegPool@@QEAAXXZ
	?init@SparspakSolver@@UEAAHHHPEAH0@Z
	?init@TankMixModel@@QEAAXPEAVTank@@PEAVSegPool@@N@Z
	?init@TraceModel@@UEAAXPEAVNetwork@@@Z
	?init@VariablePattern@@UEAAXHH@Z
	?initMatrixSolver@HydEngine@@AEAAXXZ
	?initReader@OutputFile@@QEAAHXZ
	?initSolver@Project@Epanet@@QEAAH_N@Z
	?initWriter@OutputFile@@QEAAHXZ
	?initialize@Junction@@UEAAXPEAVNetwork@@@Z
	?initialize@Link@@UEAAX_N@Z
	?initialize@Node@@UEAAXPEAVNetwork@@@Z
	?initialize@Tank@@UEAAXPEAVNetwork@@@Z
	?initialize@Valve@@UEAAX_N@Z
	?initializeControlSettings@ControlParser@@AEAAXXZ
	?insert@?$basic_string@DU?$char_traits@D@std@@V?$allocator@D@2@@std@@QEAAAEAV12@_KAEBV12@00@Z
	?insert@?$basic_string@DU?$char_traits@D@std@@V?$allocator@D@2@@std@@QEAAAEAV12@_KAEBV12@@Z
	?insert@?$vector@V?$_List_unchecked_iterator@V?$_List_val@U?$_List_simple_types@U?$pair@$$CBV?$basic_string@DU?$char_traits@D@std@@V?$allocator@D@2@@std@@PEAVElement@@@std@@@std@@@std@@@std@@U?$_Wrap_alloc@V?$allocator@V?$_List_unchecked_iterator@V?$_List_val@U?$_List_simple_types@U?$pair@$$CBV?$basic_string@DU?$char_traits@D@std@@V?$allocator@D@2@@std@@PEAVElement@@@std@@@std@@@std@@@std@@@std@@@2@@std@@QEAA?AV?$_Vector_iterator@V?$_Vector_val@U?$_Simple_types@V?$_List_unchecked_iterator@V?$_List_val@U?$_List_simple_types@U?$pair@$$CBV?$basic_string@DU?$char_traits@D@std@@V?$allocator@D@2@@std@@PEAVElement@@@std@@@std@@@std@@@std@@@std@@@std@@@2@V?$_Vector_const_iterator@V?$_Vector_val@U?$_Simple_types@V?$_List_unchecked_iterator@V?$_List_val@U?$_List_simple_types@U?$pair@$$CBV?$basic_string@DU?$char_traits@D@std@@V?$allocator@D@2@@std@@PEAVElement@@@std@@@std@@@std@@@std@@@std@@@std@@@2@_KAEBV?$_List_unchecked_iterator@V?$_List_val@U?$_List_simple_types@U?$pair@$$CBV?$basic_string@DU?$char_traits@D@std@@V?$allocator@D@2@@std@@PEAVElement@@@std@@@std@@@std@@@2@@Z
	?isClosed@Node@@UEAA_NN@Z
	?isClosed@Tank@@UEAA_NN@Z
	?isConstHP@PumpCurve@@QEAA_NXZ
	?isEmpty@Node@@UEAA_NXZ
	?isEmpty@Tank@@UEAA_NXZ
	?isFull@Node@@UEAA_NXZ
	?isFull@Tank@@UEAA_NXZ
	?isHpPump@Link@@UEAA_NXZ
	?isHpPump@Pump@@UEAA_NXZ
	?isPRV@Link@@UEAA_NXZ
	?isPRV@Valve@@UEAA_NXZ
	?isPSV@Link@@UEAA_NXZ
	?isPSV@Valve@@UEAA_NXZ
	?isPressureDeficient@ConstrainedDemandModel@@UEAA_NPEAVJunction@@@Z
	?isPressureDeficient@DemandModel@@UEAA_NPEAVJunction@@@Z
	?isPressureDeficient@HydEngine@@AEAA_NXZ
	?isPressureDeficient@Junction@@UEAA_NPEAVNetwork@@@Z
	?isPressureDeficient@Node@@UEAA_NPEAVNetwork@@@Z
	?isReactive@AgeModel@@UEAA_NXZ
	?isReactive@ChemModel@@UEAA_NXZ
	?isReactive@Link@@UEAA_NXZ
	?isReactive@Node@@UEAA_NXZ
	?isReactive@Pipe@@UEAA_NXZ
	?isReactive@QualModel@@UEAA_NXZ
	?isReactive@Tank@@UEAA_NXZ
	?is_open@?$basic_filebuf@DU?$char_traits@D@std@@@std@@QEBA_NXZ
	?is_open@?$basic_fstream@DU?$char_traits@D@std@@@std@@QEBA_NXZ
	?is_open@?$basic_ifstream@DU?$char_traits@D@std@@@std@@QEBA_NXZ
	?is_open@?$basic_ofstream@DU?$char_traits@D@std@@@std@@QEBA_NXZ
	?left@std@@YAAEAVios_base@1@AEAV21@@Z
	?length@?$basic_string@DU?$char_traits@D@std@@V?$allocator@D@2@@std@@QEBA_KXZ
	?length@?$char_traits@D@std@@SA_KPEBD@Z
	?link@Network@@QEAAPEAVLink@@AEBV?$basic_string@DU?$char_traits@D@std@@V?$allocator@D@2@@std@@@Z
	?link@Network@@QEAAPEAVLink@@H@Z
	?linksChangedStatus@GGASolver@@AEAA_NXZ
	?load@Project@Epanet@@QEAAHPEBD@Z
	?load_factor@?$_Hash@V?$_Umap_traits@V?$basic_string@DU?$char_traits@D@std@@V?$allocator@D@2@@std@@PEAVElement@@V?$_Uhash_compare@V?$basic_string@DU?$char_traits@D@std@@V?$allocator@D@2@@std@@U?$hash@V?$basic_string@DU?$char_traits@D@std@@V?$allocator@D@2@@std@@@2@U?$equal_to@V?$basic_string@DU?$char_traits@D@std@@V?$allocator@D@2@@std@@@2@@2@V?$allocator@U?$pair@$$CBV?$basic_string@DU?$char_traits@D@std@@V?$allocator@D@2@@std@@PEAVElement@@@std@@@2@$0A@@std@@@std@@QEBAMXZ
	?lower_bound@?$_Hash@V?$_Umap_traits@V?$basic_string@DU?$char_traits@D@std@@V?$allocator@D@2@@std@@PEAVElement@@V?$_Uhash_compare@V?$basic_string@DU?$char_traits@D@std@@V?$allocator@D@2@@std@@U?$hash@V?$basic_string@DU?$char_traits@D@std@@V?$allocator@D@2@@std@@@2@U?$equal_to@V?$basic_string@DU?$char_traits@D@std@@V?$allocator@D@2@@std@@@2@@2@V?$allocator@U?$pair@$$CBV?$basic_string@DU?$char_traits@D@std@@V?$allocator@D@2@@std@@PEAVElement@@@std@@@2@$0A@@std@@@std@@QEAA?AV?$_List_iterator@V?$_List_val@U?$_List_simple_types@U?$pair@$$CBV?$basic_string@DU?$char_traits@D@std@@V?$allocator@D@2@@std@@PEAVElement@@@std@@@std@@@std@@@2@AEBV?$basic_string@DU?$char_traits@D@std@@V?$allocator@D@2@@2@@Z
	?match@Utilities@@SA_NAEBV?$basic_string@DU?$char_traits@D@std@@V?$allocator@D@2@@std@@0@Z
	?max@?$numeric_limits@H@std@@SAHXZ
	?max@?$numeric_limits@N@std@@SANXZ
	?max_load_factor@?$_Hash@V?$_Umap_traits@V?$basic_string@DU?$char_traits@D@std@@V?$allocator@D@2@@std@@PEAVElement@@V?$_Uhash_compare@V?$basic_string@DU?$char_traits@D@std@@V?$allocator@D@2@@std@@U?$hash@V?$basic_string@DU?$char_traits@D@std@@V?$allocator@D@2@@std@@@2@U?$equal_to@V?$basic_string@DU?$char_traits@D@std@@V?$allocator@D@2@@std@@@2@@2@V?$allocator@U?$pair@$$CBV?$basic_string@DU?$char_traits@D@std@@V?$allocator@D@2@@std@@PEAVElement@@@std@@@2@$0A@@std@@@std@@QEBAMXZ
	?max_size@?$_Wrap_alloc@U?$_Wrap_alloc@V?$allocator@V?$_List_unchecked_iterator@V?$_List_val@U?$_List_simple_types@U?$pair@$$CBV?$basic_string@DU?$char_traits@D@std@@V?$allocator@D@2@@std@@PEAVElement@@@std@@@std@@@std@@@std@@@std@@@std@@@std@@QEBA_KU_Nil@2@@Z
	?max_size@?$_Wrap_alloc@V?$allocator@D@std@@@std@@QEBA_KU_Nil@2@@Z
	?max_size@?$_Wrap_alloc@V?$allocator@H@std@@@std@@QEBA_KU_Nil@2@@Z
	?max_size@?$_Wrap_alloc@V?$allocator@N@std@@@std@@QEBA_KU_Nil@2@@Z
	?max_size@?$_Wrap_alloc@V?$allocator@PEAUSegment@@@std@@@std@@QEBA_KU_Nil@2@@Z
	?max_size@?$_Wrap_alloc@V?$allocator@PEAVControl@@@std@@@std@@QEBA_KU_Nil@2@@Z
	?max_size@?$_Wrap_alloc@V?$allocator@PEAVCurve@@@std@@@std@@QEBA_KU_Nil@2@@Z
	?max_size@?$_Wrap_alloc@V?$allocator@PEAVLink@@@std@@@std@@QEBA_KU_Nil@2@@Z
	?max_size@?$_Wrap_alloc@V?$allocator@PEAVNode@@@std@@@std@@QEBA_KU_Nil@2@@Z
	?max_size@?$_Wrap_alloc@V?$allocator@PEAVPattern@@@std@@@std@@QEBA_KU_Nil@2@@Z
	?max_size@?$_Wrap_alloc@V?$allocator@U?$_List_node@U?$pair@$$CBV?$basic_string@DU?$char_traits@D@std@@V?$allocator@D@2@@std@@PEAVElement@@@std@@PEAX@std@@@std@@@std@@QEBA_KU_Nil@2@@Z
	?max_size@?$_Wrap_alloc@V?$allocator@U?$_List_node@VDemand@@PEAX@std@@@std@@@std@@QEBA_KU_Nil@2@@Z
	?max_size@?$_Wrap_alloc@V?$allocator@V?$_List_unchecked_iterator@V?$_List_val@U?$_List_simple_types@U?$pair@$$CBV?$basic_string@DU?$char_traits@D@std@@V?$allocator@D@2@@std@@PEAVElement@@@std@@@std@@@std@@@std@@@std@@@std@@QEBA_KU_Nil@2@@Z
	?max_size@?$_Wrap_alloc@V?$allocator@V?$basic_string@DU?$char_traits@D@std@@V?$allocator@D@2@@std@@@std@@@std@@QEBA_KU_Nil@2@@Z
	?max_size@?$allocator@D@std@@QEBA_KXZ
	?max_size@?$allocator@H@std@@QEBA_KXZ
	?max_size@?$allocator@N@std@@QEBA_KXZ
	?max_size@?$allocator@PEAUSegment@@@std@@QEBA_KXZ
	?max_size@?$allocator@PEAVControl@@@std@@QEBA_KXZ
	?max_size@?$allocator@PEAVCurve@@@std@@QEBA_KXZ
	?max_size@?$allocator@PEAVLink@@@std@@QEBA_KXZ
	?max_size@?$allocator@PEAVNode@@@std@@QEBA_KXZ
	?max_size@?$allocator@PEAVPattern@@@std@@QEBA_KXZ
	?max_size@?$allocator@U?$_List_node@U?$pair@$$CBV?$basic_string@DU?$char_traits@D@std@@V?$allocator@D@2@@std@@PEAVElement@@@std@@PEAX@std@@@std@@QEBA_KXZ
	?max_size@?$allocator@U?$_List_node@VDemand@@PEAX@std@@@std@@QEBA_KXZ
	?max_size@?$allocator@V?$_List_unchecked_iterator@V?$_List_val@U?$_List_simple_types@U?$pair@$$CBV?$basic_string@DU?$char_traits@D@std@@V?$allocator@D@2@@std@@PEAVElement@@@std@@@std@@@std@@@std@@@std@@QEBA_KXZ
	?max_size@?$allocator@V?$basic_string@DU?$char_traits@D@std@@V?$allocator@D@2@@std@@@std@@QEBA_KXZ
	?max_size@?$allocator_traits@U?$_Wrap_alloc@V?$allocator@V?$_List_unchecked_iterator@V?$_List_val@U?$_List_simple_types@U?$pair@$$CBV?$basic_string@DU?$char_traits@D@std@@V?$allocator@D@2@@std@@PEAVElement@@@std@@@std@@@std@@@std@@@std@@@std@@@std@@SA_KAEBU?$_Wrap_alloc@V?$allocator@V?$_List_unchecked_iterator@V?$_List_val@U?$_List_simple_types@U?$pair@$$CBV?$basic_string@DU?$char_traits@D@std@@V?$allocator@D@2@@std@@PEAVElement@@@std@@@std@@@std@@@std@@@std@@@2@@Z
	?max_size@?$allocator_traits@V?$allocator@D@std@@@std@@SA_KAEBV?$allocator@D@2@@Z
	?max_size@?$allocator_traits@V?$allocator@H@std@@@std@@SA_KAEBV?$allocator@H@2@@Z
	?max_size@?$allocator_traits@V?$allocator@N@std@@@std@@SA_KAEBV?$allocator@N@2@@Z
	?max_size@?$allocator_traits@V?$allocator@PEAUSegment@@@std@@@std@@SA_KAEBV?$allocator@PEAUSegment@@@2@@Z
	?max_size@?$allocator_traits@V?$allocator@PEAVControl@@@std@@@std@@SA_KAEBV?$allocator@PEAVControl@@@2@@Z
	?max_size@?$allocator_traits@V?$allocator@PEAVCurve@@@std@@@std@@SA_KAEBV?$allocator@PEAVCurve@@@2@@Z
	?max_size@?$allocator_traits@V?$allocator@PEAVLink@@@std@@@std@@SA_KAEBV?$allocator@PEAVLink@@@2@@Z
	?max_size@?$allocator_traits@V?$allocator@PEAVNode@@@std@@@std@@SA_KAEBV?$allocator@PEAVNode@@@2@@Z
	?max_size@?$allocator_traits@V?$allocator@PEAVPattern@@@std@@@std@@SA_KAEBV?$allocator@PEAVPattern@@@2@@Z
	?max_size@?$allocator_traits@V?$allocator@U?$_List_node@U?$pair@$$CBV?$basic_string@DU?$char_traits@D@std@@V?$allocator@D@2@@std@@PEAVElement@@@std@@PEAX@std@@@std@@@std@@SA_KAEBV?$allocator@U?$_List_node@U?$pair@$$CBV?$basic_string@DU?$char_traits@D@std@@V?$allocator@D@2@@std@@PEAVElement@@@std@@PEAX@std@@@2@@Z
	?max_size@?$allocator_traits@V?$allocator@U?$_List_node@VDemand@@PEAX@std@@@std@@@std@@SA_KAEBV?$allocator@U?$_List_node@VDemand@@PEAX@std@@@2@@Z
	?max_size@?$allocator_traits@V?$allocator@V?$_List_unchecked_iterator@V?$_List_val@U?$_List_simple_types@U?$pair@$$CBV?$basic_string@DU?$char_traits@D@std@@V?$allocator@D@2@@std@@PEAVElement@@@std@@@std@@@std@@@std@@@std@@@std@@SA_KAEBV?$allocator@V?$_List_unchecked_iterator@V?$_List_val@U?$_List_simple_types@U?$pair@$$CBV?$basic_string@DU?$char_traits@D@std@@V?$allocator@D@2@@std@@PEAVElement@@@std@@@std@@@std@@@std@@@2@@Z
	?max_size@?$allocator_traits@V?$allocator@V?$basic_string@DU?$char_traits@D@std@@V?$allocator@D@2@@std@@@std@@@std@@SA_KAEBV?$allocator@V?$basic_string@DU?$char_traits@D@std@@V?$allocator@D@2@@std@@@2@@Z
	?max_size@?$basic_string@DU?$char_traits@D@std@@V?$allocator@D@2@@std@@QEBA_KXZ
	?max_size@?$list@U?$pair@$$CBV?$basic_string@DU?$char_traits@D@std@@V?$allocator@D@2@@std@@PEAVElement@@@std@@V?$allocator@U?$pair@$$CBV?$basic_string@DU?$char_traits@D@std@@V?$allocator@D@2@@std@@PEAVElement@@@std@@@2@@std@@QEBA_KXZ
	?max_size@?$list@VDemand@@V?$allocator@VDemand@@@std@@@std@@QEBA_KXZ
	?max_size@?$vector@DV?$allocator@D@std@@@std@@QEBA_KXZ
	?max_size@?$vector@HV?$allocator@H@std@@@std@@QEBA_KXZ
	?max_size@?$vector@NV?$allocator@N@std@@@std@@QEBA_KXZ
	?max_size@?$vector@PEAUSegment@@V?$allocator@PEAUSegment@@@std@@@std@@QEBA_KXZ
	?max_size@?$vector@PEAVControl@@V?$allocator@PEAVControl@@@std@@@std@@QEBA_KXZ
	?max_size@?$vector@PEAVCurve@@V?$allocator@PEAVCurve@@@std@@@std@@QEBA_KXZ
	?max_size@?$vector@PEAVLink@@V?$allocator@PEAVLink@@@std@@@std@@QEBA_KXZ
	?max_size@?$vector@PEAVNode@@V?$allocator@PEAVNode@@@std@@@std@@QEBA_KXZ
	?max_size@?$vector@PEAVPattern@@V?$allocator@PEAVPattern@@@std@@@std@@QEBA_KXZ
	?max_size@?$vector@V?$_List_unchecked_iterator@V?$_List_val@U?$_List_simple_types@U?$pair@$$CBV?$basic_string@DU?$char_traits@D@std@@V?$allocator@D@2@@std@@PEAVElement@@@std@@@std@@@std@@@std@@U?$_Wrap_alloc@V?$allocator@V?$_List_unchecked_iterator@V?$_List_val@U?$_List_simple_types@U?$pair@$$CBV?$basic_string@DU?$char_traits@D@std@@V?$allocator@D@2@@std@@PEAVElement@@@std@@@std@@@std@@@std@@@std@@@2@@std@@QEBA_KXZ
	?max_size@?$vector@V?$basic_string@DU?$char_traits@D@std@@V?$allocator@D@2@@std@@V?$allocator@V?$basic_string@DU?$char_traits@D@std@@V?$allocator@D@2@@std@@@2@@std@@QEBA_KXZ
	?min@?$numeric_limits@N@std@@SANXZ
	?mmdelm_@@YAHPEAH0000000000@Z
	?mmdint_@@YAHPEAH00000000@Z
	?mmdnum_@@YAHPEAH000@Z
	?mmdupd_@@YAXPEAH0000000000000@Z
	?move@?$char_traits@D@std@@SAPEADPEADPEBD_K@Z
	?name@Units@@QEAA?AV?$basic_string@DU?$char_traits@D@std@@V?$allocator@D@2@@std@@W4Quantity@1@@Z
	?nextTime@FixedPattern@@UEAAHH@Z
	?nextTime@VariablePattern@@UEAAHH@Z
	?node@Network@@QEAAPEAVNode@@AEBV?$basic_string@DU?$char_traits@D@std@@V?$allocator@D@2@@std@@@Z
	?node@Network@@QEAAPEAVNode@@H@Z
	?not_eof@?$char_traits@D@std@@SAHAEBH@Z
	?open@?$basic_filebuf@DU?$char_traits@D@std@@@std@@QEAAPEAV12@PEBDHH@Z
	?open@?$basic_fstream@DU?$char_traits@D@std@@@std@@QEAAXPEBDHH@Z
	?open@?$basic_ifstream@DU?$char_traits@D@std@@@std@@QEAAXPEBDHH@Z
	?open@?$basic_ofstream@DU?$char_traits@D@std@@@std@@QEAAXAEBV?$basic_string@DU?$char_traits@D@std@@V?$allocator@D@2@@2@HH@Z
	?open@?$basic_ofstream@DU?$char_traits@D@std@@@std@@QEAAXPEBDHH@Z
	?open@HydEngine@@QEAAXPEAVNetwork@@@Z
	?open@OutputFile@@QEAAHV?$basic_string@DU?$char_traits@D@std@@V?$allocator@D@2@@std@@PEAVNetwork@@@Z
	?open@QualEngine@@QEAAXPEAVNetwork@@@Z
	?openOutput@Project@Epanet@@QEAAHPEBD@Z
	?openReport@Project@Epanet@@QEAAHPEBD@Z
	?option@Network@@QEAA?AV?$basic_string@DU?$char_traits@D@std@@V?$allocator@D@2@@std@@W4StringOption@Options@@@Z
	?option@Network@@QEAAHW4IndexOption@Options@@@Z
	?option@Network@@QEAAJW4TimeOption@Options@@@Z
	?option@Network@@QEAANW4ValueOption@Options@@@Z
	?overflow@?$basic_filebuf@DU?$char_traits@D@std@@@std@@MEAAHH@Z
	?overflow@?$basic_stringbuf@DU?$char_traits@D@std@@V?$allocator@D@2@@std@@MEAAHH@Z
	?parseControlLine@ControlParser@@QEAAXAEAV?$basic_string@DU?$char_traits@D@std@@V?$allocator@D@2@@std@@PEAVNetwork@@@Z
	?parseCoords@NodeParser@@QEAAXPEAVNode@@AEAV?$vector@V?$basic_string@DU?$char_traits@D@std@@V?$allocator@D@2@@std@@V?$allocator@V?$basic_string@DU?$char_traits@D@std@@V?$allocator@D@2@@std@@@2@@std@@@Z
	?parseCurveData@CurveParser@@QEAAXPEAVCurve@@AEAV?$vector@V?$basic_string@DU?$char_traits@D@std@@V?$allocator@D@2@@std@@V?$allocator@V?$basic_string@DU?$char_traits@D@std@@V?$allocator@D@2@@std@@@2@@std@@@Z
	?parseDemand@NodeParser@@QEAAXPEAVNode@@PEAVNetwork@@AEAV?$vector@V?$basic_string@DU?$char_traits@D@std@@V?$allocator@D@2@@std@@V?$allocator@V?$basic_string@DU?$char_traits@D@std@@V?$allocator@D@2@@std@@@2@@std@@@Z
	?parseEmitter@NodeParser@@QEAAXPEAVNode@@PEAVNetwork@@AEAV?$vector@V?$basic_string@DU?$char_traits@D@std@@V?$allocator@D@2@@std@@V?$allocator@V?$basic_string@DU?$char_traits@D@std@@V?$allocator@D@2@@std@@@2@@std@@@Z
	?parseEnergy@LinkParser@@QEAAXPEAVLink@@PEAVNetwork@@AEAV?$vector@V?$basic_string@DU?$char_traits@D@std@@V?$allocator@D@2@@std@@V?$allocator@V?$basic_string@DU?$char_traits@D@std@@V?$allocator@D@2@@std@@@2@@std@@@Z
	?parseEnergyOption@OptionParser@@QEAAXPEAVNetwork@@AEAV?$vector@V?$basic_string@DU?$char_traits@D@std@@V?$allocator@D@2@@std@@V?$allocator@V?$basic_string@DU?$char_traits@D@std@@V?$allocator@D@2@@std@@@2@@std@@@Z
	?parseFile@InputReader@@IEAAXAEAV?$basic_istream@DU?$char_traits@D@std@@@std@@AEAVInputParser@@@Z
	?parseFixedPattern@PatternParser@@IEAAXPEAVPattern@@AEAV?$vector@V?$basic_string@DU?$char_traits@D@std@@V?$allocator@D@2@@std@@V?$allocator@V?$basic_string@DU?$char_traits@D@std@@V?$allocator@D@2@@std@@@2@@std@@@Z
	?parseInitQual@NodeParser@@QEAAXPEAVNode@@AEAV?$vector@V?$basic_string@DU?$char_traits@D@std@@V?$allocator@D@2@@std@@V?$allocator@V?$basic_string@DU?$char_traits@D@std@@V?$allocator@D@2@@std@@@2@@std@@@Z
	?parseLeakage@LinkParser@@QEAAXPEAVLink@@AEAV?$vector@V?$basic_string@DU?$char_traits@D@std@@V?$allocator@D@2@@std@@V?$allocator@V?$basic_string@DU?$char_traits@D@std@@V?$allocator@D@2@@std@@@2@@std@@@Z
	?parseLevelSetting@ControlParser@@AEAAXPEAVNetwork@@@Z
	?parseLine@ObjectParser@@UEAAXAEAV?$basic_string@DU?$char_traits@D@std@@V?$allocator@D@2@@std@@H@Z
	?parseLine@PropertyParser@@UEAAXAEAV?$basic_string@DU?$char_traits@D@std@@V?$allocator@D@2@@std@@H@Z
	?parseLinkData@LinkParser@@QEAAXAEAV?$basic_string@DU?$char_traits@D@std@@V?$allocator@D@2@@std@@PEAVNetwork@@AEAV?$vector@V?$basic_string@DU?$char_traits@D@std@@V?$allocator@D@2@@std@@V?$allocator@V?$basic_string@DU?$char_traits@D@std@@V?$allocator@D@2@@std@@@2@@3@@Z
	?parseLinkProperty@PropertyParser@@AEAAXHAEAV?$basic_string@DU?$char_traits@D@std@@V?$allocator@D@2@@std@@@Z
	?parseLinkSetting@ControlParser@@AEAAXPEAVNetwork@@@Z
	?parseNodeData@NodeParser@@QEAAXAEAV?$basic_string@DU?$char_traits@D@std@@V?$allocator@D@2@@std@@PEAVNetwork@@AEAV?$vector@V?$basic_string@DU?$char_traits@D@std@@V?$allocator@D@2@@std@@V?$allocator@V?$basic_string@DU?$char_traits@D@std@@V?$allocator@D@2@@std@@@2@@3@@Z
	?parseNodeProperty@PropertyParser@@AEAAXHAEAV?$basic_string@DU?$char_traits@D@std@@V?$allocator@D@2@@std@@@Z
	?parseOption@OptionParser@@QEAAXPEAVNetwork@@AEAV?$vector@V?$basic_string@DU?$char_traits@D@std@@V?$allocator@D@2@@std@@V?$allocator@V?$basic_string@DU?$char_traits@D@std@@V?$allocator@D@2@@std@@@2@@std@@@Z
	?parsePatternData@PatternParser@@QEAAXPEAVPattern@@AEAV?$vector@V?$basic_string@DU?$char_traits@D@std@@V?$allocator@D@2@@std@@V?$allocator@V?$basic_string@DU?$char_traits@D@std@@V?$allocator@D@2@@std@@@2@@std@@@Z
	?parseQualOption@OptionParser@@AEAAXAEBV?$basic_string@DU?$char_traits@D@std@@V?$allocator@D@2@@std@@0PEAVNetwork@@@Z
	?parseQualSource@NodeParser@@QEAAXPEAVNode@@PEAVNetwork@@AEAV?$vector@V?$basic_string@DU?$char_traits@D@std@@V?$allocator@D@2@@std@@V?$allocator@V?$basic_string@DU?$char_traits@D@std@@V?$allocator@D@2@@std@@@2@@std@@@Z
	?parseReactOption@OptionParser@@QEAAXPEAVNetwork@@AEAV?$vector@V?$basic_string@DU?$char_traits@D@std@@V?$allocator@D@2@@std@@V?$allocator@V?$basic_string@DU?$char_traits@D@std@@V?$allocator@D@2@@std@@@2@@std@@@Z
	?parseReactProperty@PropertyParser@@AEAAXAEAV?$basic_string@DU?$char_traits@D@std@@V?$allocator@D@2@@std@@@Z
	?parseReaction@LinkParser@@QEAAXPEAVLink@@HAEAV?$vector@V?$basic_string@DU?$char_traits@D@std@@V?$allocator@D@2@@std@@V?$allocator@V?$basic_string@DU?$char_traits@D@std@@V?$allocator@D@2@@std@@@2@@std@@@Z
	?parseReportField@OptionParser@@AEAAXPEAVNetwork@@HPEAV?$basic_string@DU?$char_traits@D@std@@V?$allocator@D@2@@std@@@Z
	?parseReportItems@OptionParser@@AEAAXHPEAVNetwork@@HPEAV?$basic_string@DU?$char_traits@D@std@@V?$allocator@D@2@@std@@@Z
	?parseReportOption@OptionParser@@QEAAXPEAVNetwork@@AEAV?$vector@V?$basic_string@DU?$char_traits@D@std@@V?$allocator@D@2@@std@@V?$allocator@V?$basic_string@DU?$char_traits@D@std@@V?$allocator@D@2@@std@@@2@@std@@@Z
	?parseStatus@LinkParser@@QEAAXPEAVLink@@AEAV?$vector@V?$basic_string@DU?$char_traits@D@std@@V?$allocator@D@2@@std@@V?$allocator@V?$basic_string@DU?$char_traits@D@std@@V?$allocator@D@2@@std@@@2@@std@@@Z
	?parseTankMixing@NodeParser@@QEAAXPEAVNode@@AEAV?$vector@V?$basic_string@DU?$char_traits@D@std@@V?$allocator@D@2@@std@@V?$allocator@V?$basic_string@DU?$char_traits@D@std@@V?$allocator@D@2@@std@@@2@@std@@@Z
	?parseTankReact@NodeParser@@QEAAXPEAVNode@@AEAV?$vector@V?$basic_string@DU?$char_traits@D@std@@V?$allocator@D@2@@std@@V?$allocator@V?$basic_string@DU?$char_traits@D@std@@V?$allocator@D@2@@std@@@2@@std@@@Z
	?parseTimeOfDaySetting@ControlParser@@AEAAXXZ
	?parseTimeOption@OptionParser@@QEAAXPEAVNetwork@@AEAV?$vector@V?$basic_string@DU?$char_traits@D@std@@V?$allocator@D@2@@std@@V?$allocator@V?$basic_string@DU?$char_traits@D@std@@V?$allocator@D@2@@std@@@2@@std@@@Z
	?parseTimeSetting@ControlParser@@AEAAXXZ
	?parseVariablePattern@PatternParser@@IEAAXPEAVPattern@@AEAV?$vector@V?$basic_string@DU?$char_traits@D@std@@V?$allocator@D@2@@std@@V?$allocator@V?$basic_string@DU?$char_traits@D@std@@V?$allocator@D@2@@std@@@2@@std@@@Z
	?pattern@Network@@QEAAPEAVPattern@@AEBV?$basic_string@DU?$char_traits@D@std@@V?$allocator@D@2@@std@@@Z
	?pattern@Network@@QEAAPEAVPattern@@H@Z
	?pbackfail@?$basic_filebuf@DU?$char_traits@D@std@@@std@@MEAAHH@Z
	?pbackfail@?$basic_stringbuf@DU?$char_traits@D@std@@V?$allocator@D@2@@std@@MEAAHH@Z
	?pipeReact@AgeModel@@UEAANPEAVPipe@@NN@Z
	?pipeReact@ChemModel@@UEAANPEAVPipe@@NN@Z
	?pipeReact@QualModel@@UEAANPEAVPipe@@NN@Z
	?pointer_to@?$pointer_traits@PEAD@std@@SAPEADAEAD@Z
	?pointer_to@?$pointer_traits@PEAU?$pair@$$CBV?$basic_string@DU?$char_traits@D@std@@V?$allocator@D@2@@std@@PEAVElement@@@std@@@std@@SAPEAU?$pair@$$CBV?$basic_string@DU?$char_traits@D@std@@V?$allocator@D@2@@std@@PEAVElement@@@2@AEAU32@@Z
	?pointer_to@?$pointer_traits@PEAU_Container_proxy@std@@@std@@SAPEAU_Container_proxy@2@AEAU32@@Z
	?pointer_to@?$pointer_traits@PEAVDemand@@@std@@SAPEAVDemand@@AEAV3@@Z
	?pointer_to@?$pointer_traits@PEBD@std@@SAPEBDAEBD@Z
	?pow@@YANNH@Z
	?powerFuncHeadLoss@PumpCurve@@AEAAXNNAEAN0@Z
	?pressureUnits@Options@@QEAAHXZ
	?push_back@?$list@VDemand@@V?$allocator@VDemand@@@std@@@std@@QEAAXAEBVDemand@@@Z
	?push_back@?$vector@HV?$allocator@H@std@@@std@@QEAAX$$QEAH@Z
	?push_back@?$vector@HV?$allocator@H@std@@@std@@QEAAXAEBH@Z
	?push_back@?$vector@NV?$allocator@N@std@@@std@@QEAAX$$QEAN@Z
	?push_back@?$vector@NV?$allocator@N@std@@@std@@QEAAXAEBN@Z
	?push_back@?$vector@PEAVControl@@V?$allocator@PEAVControl@@@std@@@std@@QEAAXAEBQEAVControl@@@Z
	?push_back@?$vector@PEAVCurve@@V?$allocator@PEAVCurve@@@std@@@std@@QEAAXAEBQEAVCurve@@@Z
	?push_back@?$vector@PEAVLink@@V?$allocator@PEAVLink@@@std@@@std@@QEAAXAEBQEAVLink@@@Z
	?push_back@?$vector@PEAVNode@@V?$allocator@PEAVNode@@@std@@@std@@QEAAXAEBQEAVNode@@@Z
	?push_back@?$vector@PEAVPattern@@V?$allocator@PEAVPattern@@@std@@@std@@QEAAXAEBQEAVPattern@@@Z
	?push_back@?$vector@V?$basic_string@DU?$char_traits@D@std@@V?$allocator@D@2@@std@@V?$allocator@V?$basic_string@DU?$char_traits@D@std@@V?$allocator@D@2@@std@@@2@@std@@QEAAXAEBV?$basic_string@DU?$char_traits@D@std@@V?$allocator@D@2@@2@@Z
	?qualOptionsToStr@Options@@QEAA?AV?$basic_string@DU?$char_traits@D@std@@V?$allocator@D@2@@std@@XZ
	?react@LTDSolver@@AEAAXXZ
	?react@TankMixModel@@QEAANPEAVTank@@PEAVQualModel@@N@Z
	?reactOptionsToStr@Options@@QEAA?AV?$basic_string@DU?$char_traits@D@std@@V?$allocator@D@2@@std@@XZ
	?readEnergyDemandCharge@OutputFile@@QEAAXPEAM@Z
	?readEnergyResults@OutputFile@@QEAAXPEAH@Z
	?readFile@InputReader@@QEAAXPEBDPEAVNetwork@@@Z
	?readLinkResults@OutputFile@@QEAAXXZ
	?readNodeResults@OutputFile@@QEAAXXZ
	?release@LTDSolver@@AEAAXH@Z
	?removeQuotes@Utilities@@SAXAEAV?$basic_string@DU?$char_traits@D@std@@V?$allocator@D@2@@std@@@Z
	?reorder@@YAHHPEAH000AEAH@Z
	?replace@?$basic_string@DU?$char_traits@D@std@@V?$allocator@D@2@@std@@QEAAAEAV12@V?$_String_const_iterator@V?$_String_val@U?$_Simple_types@D@std@@@std@@@2@0V?$_String_iterator@V?$_String_val@U?$_Simple_types@D@std@@@std@@@2@1@Z
	?replace@?$basic_string@DU?$char_traits@D@std@@V?$allocator@D@2@@std@@QEAAAEAV12@_K0AEBV12@00@Z
	?replace@?$basic_string@DU?$char_traits@D@std@@V?$allocator@D@2@@std@@QEAAAEAV12@_K0PEBD0@Z
	?reportDiagnostics@HydEngine@@AEAAXHH@Z
	?reportOptionsToStr@Options@@QEAA?AV?$basic_string@DU?$char_traits@D@std@@V?$allocator@D@2@@std@@XZ
	?reportTrial@GGASolver@@AEAAXHN@Z
	?reserve@?$basic_string@DU?$char_traits@D@std@@V?$allocator@D@2@@std@@QEAAX_K@Z
	?reserve@?$vector@V?$_List_unchecked_iterator@V?$_List_val@U?$_List_simple_types@U?$pair@$$CBV?$basic_string@DU?$char_traits@D@std@@V?$allocator@D@2@@std@@PEAVElement@@@std@@@std@@@std@@@std@@U?$_Wrap_alloc@V?$allocator@V?$_List_unchecked_iterator@V?$_List_val@U?$_List_simple_types@U?$pair@$$CBV?$basic_string@DU?$char_traits@D@std@@V?$allocator@D@2@@std@@PEAVElement@@@std@@@std@@@std@@@std@@@std@@@2@@std@@QEAAX_K@Z
	?reset@MemPool@@QEAAXXZ
	?reset@SparspakSolver@@UEAAXXZ
	?resize@?$vector@DV?$allocator@D@std@@@std@@QEAAX_KAEBD@Z
	?resize@?$vector@HV?$allocator@H@std@@@std@@QEAAX_KAEBH@Z
	?resize@?$vector@NV?$allocator@N@std@@@std@@QEAAX_KAEBN@Z
	?resize@?$vector@PEAUSegment@@V?$allocator@PEAUSegment@@@std@@@std@@QEAAX_KAEBQEAUSegment@@@Z
	?resolvePressureDeficiency@HydEngine@@AEAAHAEAH@Z
	?reverseFlow@LTDSolver@@UEAAXH@Z
	?reverseFlow@QualSolver@@UEAAXH@Z
	?rfind@?$basic_string@DU?$char_traits@D@std@@V?$allocator@D@2@@std@@QEBA_KD_K@Z
	?rfind@?$basic_string@DU?$char_traits@D@std@@V?$allocator@D@2@@std@@QEBA_KPEBD_K1@Z
	?right@std@@YAAEAVios_base@1@AEAV21@@Z
	?runSolver@Project@Epanet@@QEAAHPEAH@Z
	?save@Project@Epanet@@QEAAHPEBD@Z
	?saveOutput@Project@Epanet@@QEAAHXZ
	?scientific@std@@YAAEAVios_base@1@AEAV21@@Z
	?seekEnergyOffset@OutputFile@@QEAAXXZ
	?seekNetworkOffset@OutputFile@@QEAAXXZ
	?seekoff@?$basic_filebuf@DU?$char_traits@D@std@@@std@@MEAA?AV?$fpos@U_Mbstatet@@@2@_JHH@Z
	?seekoff@?$basic_stringbuf@DU?$char_traits@D@std@@V?$allocator@D@2@@std@@MEAA?AV?$fpos@U_Mbstatet@@@2@_JHH@Z
	?seekpos@?$basic_filebuf@DU?$char_traits@D@std@@@std@@MEAA?AV?$fpos@U_Mbstatet@@@2@V32@H@Z
	?seekpos@?$basic_stringbuf@DU?$char_traits@D@std@@V?$allocator@D@2@@std@@MEAA?AV?$fpos@U_Mbstatet@@@2@V32@H@Z
	?seekpos@?$fpos@U_Mbstatet@@@std@@QEBA_JXZ
	?select_on_container_copy_construction@?$_Wrap_alloc@V?$allocator@D@std@@@std@@QEBA?AU12@U_Nil@2@@Z
	?select_on_container_copy_construction@?$allocator_traits@V?$allocator@D@std@@@std@@SA?AV?$allocator@D@2@AEBV32@@Z
	?setCoeffs@LogisticDemandModel@@AEAAXNN@Z
	?setConvergenceLimits@GGASolver@@AEAAXXZ
	?setCurve@PumpCurve@@QEAAXPEAVCurve@@@Z
	?setDefaults@Options@@QEAAXXZ
	?setDefaults@ReportFields@@QEAAXXZ
	?setDiag@SparspakSolver@@UEAAXHN@Z
	?setField@ReportFields@@QEAAXHHHHNN@Z
	?setFixedGrade@Node@@UEAAXXZ
	?setFixedGrade@Reservoir@@UEAAXXZ
	?setFixedGrade@Tank@@UEAAXXZ
	?setFixedGradeNodes@GGASolver@@AEAAXXZ
	?setFlowDirections@QualEngine@@AEAAXXZ
	?setFlowFactor@Units@@AEAAHH@Z
	?setInitFlow@Link@@UEAAXXZ
	?setInitFlow@Pipe@@UEAAXXZ
	?setInitFlow@Pump@@UEAAXXZ
	?setInitFlow@Valve@@UEAAXXZ
	?setInitSetting@Link@@UEAAXN@Z
	?setInitSetting@Pipe@@UEAAXN@Z
	?setInitSetting@Pump@@UEAAXN@Z
	?setInitSetting@Valve@@UEAAXN@Z
	?setInitStatus@Link@@UEAAXH@Z
	?setInitStatus@Pipe@@UEAAXH@Z
	?setInitStatus@Pump@@UEAAXH@Z
	?setInitStatus@Valve@@UEAAXH@Z
	?setLinkCoeffs@GGASolver@@AEAAXXZ
	?setMatrixCoeffs@GGASolver@@AEAAXXZ
	?setNodeCoeffs@GGASolver@@AEAAXXZ
	?setOption@OptionParser@@AEAAXAEBV?$basic_string@DU?$char_traits@D@std@@V?$allocator@D@2@@std@@0PEAVNetwork@@@Z
	?setOption@Options@@QEAAHW4IndexOption@1@AEBV?$basic_string@DU?$char_traits@D@std@@V?$allocator@D@2@@std@@PEAVNetwork@@@Z
	?setOption@Options@@QEAAHW4StringOption@1@AEBV?$basic_string@DU?$char_traits@D@std@@V?$allocator@D@2@@std@@@Z
	?setOption@Options@@QEAAXW4IndexOption@1@H@Z
	?setOption@Options@@QEAAXW4TimeOption@1@H@Z
	?setOption@Options@@QEAAXW4ValueOption@1@N@Z
	?setOtherFactors@Units@@AEAAXH@Z
	?setPressureFactor@Units@@AEAAXHAEAVOptions@@@Z
	?setProperties@Control@@QEAAXHPEAVLink@@HNPEAVNode@@NHH@Z
	?setReactive@ChemModel@@AEAA_NPEAVNetwork@@@Z
	?setReportFieldOption@Options@@QEAAXHHHHNN@Z
	?setResistance@CM_HeadLossModel@@UEAAXPEAVPipe@@@Z
	?setResistance@DW_HeadLossModel@@UEAAXPEAVPipe@@@Z
	?setResistance@HW_HeadLossModel@@UEAAXPEAVPipe@@@Z
	?setResistance@Link@@UEAAXPEAVNetwork@@@Z
	?setResistance@Pipe@@UEAAXPEAVNetwork@@@Z
	?setRhs@SparspakSolver@@UEAAXHN@Z
	?setSourceQuality@QualEngine@@AEAAXXZ
	?setStrength@QualSource@@QEAAXPEAVNode@@@Z
	?setTimeInterval@Pattern@@QEAAXH@Z
	?setType@Curve@@QEAAXH@Z
	?setUnits@Units@@QEAAXAEAVOptions@@@Z
	?setValveCoeffs@GGASolver@@AEAAXXZ
	?setbuf@?$basic_filebuf@DU?$char_traits@D@std@@@std@@MEAAPEAV?$basic_streambuf@DU?$char_traits@D@std@@@2@PEAD_J@Z
	?setupConstHpCurve@PumpCurve@@AEAAXXZ
	?setupCurve@PumpCurve@@QEAAHPEAVNetwork@@@Z
	?setupCustomCurve@PumpCurve@@AEAAHXZ
	?setupPowerFuncCurve@PumpCurve@@AEAAHXZ
	?showpoint@std@@YAAEAVios_base@1@AEAV21@@Z
	?sign@Utilities@@SAHN@Z
	?size@?$_Hash@V?$_Umap_traits@V?$basic_string@DU?$char_traits@D@std@@V?$allocator@D@2@@std@@PEAVElement@@V?$_Uhash_compare@V?$basic_string@DU?$char_traits@D@std@@V?$allocator@D@2@@std@@U?$hash@V?$basic_string@DU?$char_traits@D@std@@V?$allocator@D@2@@std@@@2@U?$equal_to@V?$basic_string@DU?$char_traits@D@std@@V?$allocator@D@2@@std@@@2@@2@V?$allocator@U?$pair@$$CBV?$basic_string@DU?$char_traits@D@std@@V?$allocator@D@2@@std@@PEAVElement@@@std@@@2@$0A@@std@@@std@@QEBA_KXZ
	?size@?$basic_string@DU?$char_traits@D@std@@V?$allocator@D@2@@std@@QEBA_KXZ
	?size@?$list@U?$pair@$$CBV?$basic_string@DU?$char_traits@D@std@@V?$allocator@D@2@@std@@PEAVElement@@@std@@V?$allocator@U?$pair@$$CBV?$basic_string@DU?$char_traits@D@std@@V?$allocator@D@2@@std@@PEAVElement@@@std@@@2@@std@@QEBA_KXZ
	?size@?$list@VDemand@@V?$allocator@VDemand@@@std@@@std@@QEBA_KXZ
	?size@?$vector@DV?$allocator@D@std@@@std@@QEBA_KXZ
	?size@?$vector@HV?$allocator@H@std@@@std@@QEBA_KXZ
	?size@?$vector@NV?$allocator@N@std@@@std@@QEBA_KXZ
	?size@?$vector@PEAUSegment@@V?$allocator@PEAUSegment@@@std@@@std@@QEBA_KXZ
	?size@?$vector@PEAVControl@@V?$allocator@PEAVControl@@@std@@@std@@QEBA_KXZ
	?size@?$vector@PEAVCurve@@V?$allocator@PEAVCurve@@@std@@@std@@QEBA_KXZ
	?size@?$vector@PEAVLink@@V?$allocator@PEAVLink@@@std@@@std@@QEBA_KXZ
	?size@?$vector@PEAVNode@@V?$allocator@PEAVNode@@@std@@@std@@QEBA_KXZ
	?size@?$vector@PEAVPattern@@V?$allocator@PEAVPattern@@@std@@@std@@QEBA_KXZ
	?size@?$vector@V?$_List_unchecked_iterator@V?$_List_val@U?$_List_simple_types@U?$pair@$$CBV?$basic_string@DU?$char_traits@D@std@@V?$allocator@D@2@@std@@PEAVElement@@@std@@@std@@@std@@@std@@U?$_Wrap_alloc@V?$allocator@V?$_List_unchecked_iterator@V?$_List_val@U?$_List_simple_types@U?$pair@$$CBV?$basic_string@DU?$char_traits@D@std@@V?$allocator@D@2@@std@@PEAVElement@@@std@@@std@@@std@@@std@@@std@@@2@@std@@QEBA_KXZ
	?size@?$vector@V?$basic_string@DU?$char_traits@D@std@@V?$allocator@D@2@@std@@V?$allocator@V?$basic_string@DU?$char_traits@D@std@@V?$allocator@D@2@@std@@@2@@std@@QEBA_KXZ
	?size@Curve@@QEAAHXZ
	?size@Pattern@@QEAAHXZ
	?skipLinkResults@OutputFile@@QEAAXXZ
	?skipNodeResults@OutputFile@@QEAAXXZ
	?solve@GGASolver@@UEAAHNAEAH@Z
	?solve@HydEngine@@QEAAHPEAH@Z
	?solve@LTDSolver@@UEAAHPEAHH@Z
	?solve@QualEngine@@QEAAXH@Z
	?solve@SparspakSolver@@UEAAHHQEAN@Z
	?sortAdjncy@@YAXHHPEAH0000@Z
	?sortLinks@QualEngine@@AEAAXXZ
	?sp_genmmd@@YAHPEAH00000000000@Z
	?sp_numfct@@YAXHPEAHPEAN001001AEAH@Z
	?sp_smbfct@@YAXHPEAH0000AEAH0010001@Z
	?sp_solve@@YAXHPEAHPEAN0011@Z
	?split@Utilities@@SA?AV?$vector@V?$basic_string@DU?$char_traits@D@std@@V?$allocator@D@2@@std@@V?$allocator@V?$basic_string@DU?$char_traits@D@std@@V?$allocator@D@2@@std@@@2@@std@@AEBV?$basic_string@DU?$char_traits@D@std@@V?$allocator@D@2@@3@@Z
	?split@Utilities@@SAXAEAV?$vector@V?$basic_string@DU?$char_traits@D@std@@V?$allocator@D@2@@std@@V?$allocator@V?$basic_string@DU?$char_traits@D@std@@V?$allocator@D@2@@std@@@2@@std@@AEBV?$basic_string@DU?$char_traits@D@std@@V?$allocator@D@2@@3@@Z
	?state@?$fpos@U_Mbstatet@@@std@@QEBA?AU_Mbstatet@@XZ
	?storedMass@TankMixModel@@QEAANXZ
	?str@?$basic_istringstream@DU?$char_traits@D@std@@V?$allocator@D@2@@std@@QEAAXAEBV?$basic_string@DU?$char_traits@D@std@@V?$allocator@D@2@@2@@Z
	?str@?$basic_ostringstream@DU?$char_traits@D@std@@V?$allocator@D@2@@std@@QEAAXAEBV?$basic_string@DU?$char_traits@D@std@@V?$allocator@D@2@@2@@Z
	?str@?$basic_ostringstream@DU?$char_traits@D@std@@V?$allocator@D@2@@std@@QEBA?AV?$basic_string@DU?$char_traits@D@std@@V?$allocator@D@2@@2@XZ
	?str@?$basic_stringbuf@DU?$char_traits@D@std@@V?$allocator@D@2@@std@@QEAAXAEBV?$basic_string@DU?$char_traits@D@std@@V?$allocator@D@2@@2@@Z
	?str@?$basic_stringbuf@DU?$char_traits@D@std@@V?$allocator@D@2@@std@@QEBA?AV?$basic_string@DU?$char_traits@D@std@@V?$allocator@D@2@@2@XZ
	?str@?$basic_stringstream@DU?$char_traits@D@std@@V?$allocator@D@2@@std@@QEAAXAEBV?$basic_string@DU?$char_traits@D@std@@V?$allocator@D@2@@2@@Z
	?str@?$basic_stringstream@DU?$char_traits@D@std@@V?$allocator@D@2@@std@@QEBA?AV?$basic_string@DU?$char_traits@D@std@@V?$allocator@D@2@@2@XZ
	?stringOption@Options@@QEAA?AV?$basic_string@DU?$char_traits@D@std@@V?$allocator@D@2@@std@@W4StringOption@1@@Z
	?substr@?$basic_string@DU?$char_traits@D@std@@V?$allocator@D@2@@std@@QEBA?AV12@_K0@Z
	?sync@?$basic_filebuf@DU?$char_traits@D@std@@@std@@MEAAHXZ
	?tankReact@AgeModel@@UEAANPEAVTank@@NN@Z
	?tankReact@ChemModel@@UEAANPEAVTank@@NN@Z
	?tankReact@QualModel@@UEAANPEAVTank@@NN@Z
	?time@VariablePattern@@QEAAHH@Z
	?timeInterval@Pattern@@QEAAHXZ
	?timeOption@Options@@QEAAHW4TimeOption@1@@Z
	?timeOptionsToStr@Options@@QEAA?AV?$basic_string@DU?$char_traits@D@std@@V?$allocator@D@2@@std@@XZ
	?timeToActivate@Control@@QEAAHPEAVNetwork@@HH@Z
	?timeToActivateControl@HydEngine@@AEAAHH@Z
	?timeToCloseTank@HydEngine@@AEAAHH@Z
	?timeToPatternChange@HydEngine@@AEAAHH@Z
	?timeToVolume@Tank@@QEAAHN@Z
	?toStr@Control@@QEAA?AV?$basic_string@DU?$char_traits@D@std@@V?$allocator@D@2@@std@@PEAVNetwork@@@Z
	?to_char_type@?$char_traits@D@std@@SADAEBH@Z
	?to_int_type@?$char_traits@D@std@@SAHAEBD@Z
	?transport@LTDSolver@@AEAAXH@Z
	?transpose@@YAXHPEAH0000@Z
	?trimLine@InputReader@@IEAAXAEAV?$basic_string@DU?$char_traits@D@std@@V?$allocator@D@2@@std@@@Z
	?type@Junction@@UEAAHXZ
	?type@Pipe@@UEAAHXZ
	?type@Pump@@UEAAHXZ
	?type@Reservoir@@UEAAHXZ
	?type@Tank@@UEAAHXZ
	?type@Valve@@UEAAHXZ
	?typeStr@Pipe@@UEAA?AV?$basic_string@DU?$char_traits@D@std@@V?$allocator@D@2@@std@@XZ
	?typeStr@Pump@@UEAA?AV?$basic_string@DU?$char_traits@D@std@@V?$allocator@D@2@@std@@XZ
	?typeStr@Valve@@UEAA?AV?$basic_string@DU?$char_traits@D@std@@V?$allocator@D@2@@std@@XZ
	?ucf@Network@@QEAANW4Quantity@Units@@@Z
	?uflow@?$basic_filebuf@DU?$char_traits@D@std@@@std@@MEAAHXZ
	?underflow@?$basic_filebuf@DU?$char_traits@D@std@@@std@@MEAAHXZ
	?underflow@?$basic_stringbuf@DU?$char_traits@D@std@@V?$allocator@D@2@@std@@MEAAHXZ
	?updateArea@Tank@@QEAAXXZ
	?updateCurrentConditions@HydEngine@@AEAAXXZ
	?updateEnergyUsage@HydEngine@@AEAAXXZ
	?updateEnergyUsage@Link@@UEAANPEAVNetwork@@H@Z
	?updateEnergyUsage@Pump@@UEAANPEAVNetwork@@H@Z
	?updateEnergyUsage@PumpEnergy@@QEAANPEAVPump@@PEAVNetwork@@H@Z
	?updateInflow@QualBalance@@QEAAXN@Z
	?updateLinkQuality@LTDSolver@@AEAAXXZ
	?updateMassBalance@LTDSolver@@AEAAXXZ
	?updateNodeQuality@LTDSolver@@AEAAXXZ
	?updateOutflow@QualBalance@@QEAAXN@Z
	?updatePatterns@HydEngine@@AEAAXXZ
	?updatePrvStatus@Valve@@IEAAHNNN@Z
	?updatePsvStatus@Valve@@IEAAHNNN@Z
	?updateReacted@QualBalance@@QEAAXN@Z
	?updateSolution@GGASolver@@AEAAXN@Z
	?updateStatus@Link@@UEAAXNNN@Z
	?updateStatus@Valve@@UEAAXNNN@Z
	?updateStored@QualBalance@@QEAAXN@Z
	?updateTanks@HydEngine@@AEAAXXZ
	?updateVolume@Tank@@QEAAXH@Z
	?upperCase@Utilities@@SA?AV?$basic_string@DU?$char_traits@D@std@@V?$allocator@D@2@@std@@AEBV23@@Z
	?validate@Link@@UEAAXPEAVNetwork@@@Z
	?validate@Node@@UEAAXPEAVNetwork@@@Z
	?validate@Pump@@UEAAXPEAVNetwork@@@Z
	?validate@Tank@@UEAAXPEAVNetwork@@@Z
	?validateNetwork@Diagnostics@@QEAAXPEAVNetwork@@@Z
	?validateStatus@Link@@UEAAXPEAVNetwork@@N@Z
	?validateStatus@Pipe@@UEAAXPEAVNetwork@@N@Z
	?validateStatus@Pump@@UEAAXPEAVNetwork@@N@Z
	?validateStatus@Valve@@UEAAXPEAVNetwork@@N@Z
	?valueOption@Options@@QEAANW4ValueOption@1@@Z
	?what@exception@std@@UEBAPEBDXZ
	?writeAuxData@ProjectWriter@@AEAAXXZ
	?writeBalance@QualBalance@@QEAAXAEAV?$basic_ostream@DU?$char_traits@D@std@@@std@@@Z
	?writeControls@ProjectWriter@@AEAAXXZ
	?writeCoords@ProjectWriter@@AEAAXXZ
	?writeCurves@ProjectWriter@@AEAAXXZ
	?writeDemands@ProjectWriter@@AEAAXXZ
	?writeEmitters@ProjectWriter@@AEAAXXZ
	?writeEnergy@ProjectWriter@@AEAAXXZ
	?writeEnergyHeader@ReportWriter@@AEAAXXZ
	?writeEnergyResults@OutputFile@@QEAAHNN@Z
	?writeEnergyResults@ReportWriter@@AEAAXPEAVOutputFile@@@Z
	?writeFile@ProjectWriter@@QEAAHPEBDPEAVNetwork@@@Z
	?writeHeading@ReportWriter@@QEAAXXZ
	?writeJunctions@ProjectWriter@@AEAAXXZ
	?writeLeakages@ProjectWriter@@AEAAXXZ
	?writeLinkHeader@ReportWriter@@AEAAXXZ
	?writeLinkResults@OutputFile@@AEAAXXZ
	?writeLinkResults@ReportWriter@@AEAAXPEAVLink@@PEAM@Z
	?writeMixing@ProjectWriter@@AEAAXXZ
	?writeMsg@Project@Epanet@@QEAAXAEBV?$basic_string@DU?$char_traits@D@std@@V?$allocator@D@2@@std@@@Z
	?writeMsgLog@Project@Epanet@@QEAAXAEAV?$basic_ostream@DU?$char_traits@D@std@@@std@@@Z
	?writeMsgLog@Project@Epanet@@QEAAXXZ
	?writeNetworkResults@OutputFile@@QEAAHXZ
	?writeNodeHeader@ReportWriter@@AEAAXXZ
	?writeNodeResults@OutputFile@@AEAAXXZ
	?writeNodeResults@ReportWriter@@AEAAXPEAVNode@@PEAM@Z
	?writeNumber@ReportWriter@@AEAAXMHH@Z
	?writeOptions@ProjectWriter@@AEAAXXZ
	?writePatterns@ProjectWriter@@AEAAXXZ
	?writePipes@ProjectWriter@@AEAAXXZ
	?writePumpResults@ReportWriter@@AEAAXPEAVLink@@PEAM@Z
	?writePumps@ProjectWriter@@AEAAXXZ
	?writeQuality@ProjectWriter@@AEAAXXZ
	?writeReactions@ProjectWriter@@AEAAXXZ
	?writeReport@Project@Epanet@@QEAAHXZ
	?writeReport@ProjectWriter@@AEAAXXZ
	?writeReport@ReportWriter@@QEAAHV?$basic_string@DU?$char_traits@D@std@@V?$allocator@D@2@@std@@PEAVOutputFile@@@Z
	?writeReservoirs@ProjectWriter@@AEAAXXZ
	?writeResults@Project@Epanet@@QEAAXH@Z
	?writeResults@ReportWriter@@QEAAXH@Z
	?writeSavedResults@ReportWriter@@AEAAXPEAVOutputFile@@@Z
	?writeSources@ProjectWriter@@AEAAXXZ
	?writeStatus@ProjectWriter@@AEAAXXZ
	?writeStatusChange@Link@@QEAA?AV?$basic_string@DU?$char_traits@D@std@@V?$allocator@D@2@@std@@H@Z
	?writeSummary@Project@Epanet@@QEAAXXZ
	?writeSummary@ReportWriter@@QEAAXV?$basic_string@DU?$char_traits@D@std@@V?$allocator@D@2@@std@@@Z
	?writeTags@ProjectWriter@@AEAAXXZ
	?writeTanks@ProjectWriter@@AEAAXXZ
	?writeTimes@ProjectWriter@@AEAAXXZ
	?writeTitle@Network@@QEAAXAEAV?$basic_ostream@DU?$char_traits@D@std@@@std@@@Z
	?writeTitle@ProjectWriter@@AEAAXXZ
	?writeValves@ProjectWriter@@AEAAXXZ
	?x@Curve@@QEAANH@Z
	?y@Curve@@QEAANH@Z
	EN_advanceSolver
	EN_clearProject
	EN_cloneProject
	EN_createProject
	EN_deleteProject
	EN_getCount
	EN_getLinkId
	EN_getLinkIndex
	EN_getLinkNodes
	EN_getLinkType
	EN_getLinkValue
	EN_getNodeId
	EN_getNodeIndex
	EN_getNodeType
	EN_getNodeValue
	EN_getVersion
	EN_initSolver
	EN_loadProject
	EN_openOutput
	EN_openReport
	EN_runEpanet
	EN_runProject
	EN_runSolver
	EN_saveOutput
	EN_saveProject
	EN_writeMsgLog
	EN_writeReport
	EN_writeResults
	EN_writeSummary
	__local_stdio_scanf_options
	_vsscanf_l
	fabsf
	sscanf
