EXPORTS 
	??_R0?AV?$_Iosb@H@std@@@8 	 DATA
	??_R0?AV?$basic_filebuf@DU?$char_traits@D@std@@@std@@@8 	 DATA
	??_R0?AV?$basic_fstream@DU?$char_traits@D@std@@@std@@@8 	 DATA
	??_R0?AV?$basic_ifstream@DU?$char_traits@D@std@@@std@@@8 	 DATA
	??_R0?AV?$basic_ios@DU?$char_traits@D@std@@@std@@@8 	 DATA
	??_R0?AV?$basic_iostream@DU?$char_traits@D@std@@@std@@@8 	 DATA
	??_R0?AV?$basic_istream@DU?$char_traits@D@std@@@std@@@8 	 DATA
	??_R0?AV?$basic_istringstream@DU?$char_traits@D@std@@V?$allocator@D@2@@std@@@8 	 DATA
	??_R0?AV?$basic_ofstream@DU?$char_traits@D@std@@@std@@@8 	 DATA
	??_R0?AV?$basic_ostream@DU?$char_traits@D@std@@@std@@@8 	 DATA
	??_R0?AV?$basic_ostringstream@DU?$char_traits@D@std@@V?$allocator@D@2@@std@@@8 	 DATA
	??_R0?AV?$basic_streambuf@DU?$char_traits@D@std@@@std@@@8 	 DATA
	??_R0?AV?$basic_stringbuf@DU?$char_traits@D@std@@V?$allocator@D@2@@std@@@8 	 DATA
	??_R0?AV?$basic_stringstream@DU?$char_traits@D@std@@V?$allocator@D@2@@std@@@8 	 DATA
	??_R0?AVAgeModel@@@8 	 DATA
	??_R0?AVCM_HeadLossModel@@@8 	 DATA
	??_R0?AVChemModel@@@8 	 DATA
	??_R0?AVConstrainedDemandModel@@@8 	 DATA
	??_R0?AVControl@@@8 	 DATA
	??_R0?AVCurve@@@8 	 DATA
	??_R0?AVDW_HeadLossModel@@@8 	 DATA
	??_R0?AVDemandModel@@@8 	 DATA
	??_R0?AVENerror@@@8 	 DATA
	??_R0?AVElement@@@8 	 DATA
	??_R0?AVFavadLeakageModel@@@8 	 DATA
	??_R0?AVFileError@@@8 	 DATA
	??_R0?AVFixedDemandModel@@@8 	 DATA
	??_R0?AVFixedPattern@@@8 	 DATA
	??_R0?AVGGASolver@@@8 	 DATA
	??_R0?AVHW_HeadLossModel@@@8 	 DATA
	??_R0?AVHeadLossModel@@@8 	 DATA
	??_R0?AVHydSolver@@@8 	 DATA
	??_R0?AVInputError@@@8 	 DATA
	??_R0?AVInputParser@@@8 	 DATA
	??_R0?AVJunction@@@8 	 DATA
	??_R0?AVLTDSolver@@@8 	 DATA
	??_R0?AVLeakageModel@@@8 	 DATA
	??_R0?AVLink@@@8 	 DATA
	??_R0?AVLogisticDemandModel@@@8 	 DATA
	??_R0?AVMatrixSolver@@@8 	 DATA
	??_R0?AVNetworkError@@@8 	 DATA
	??_R0?AVNode@@@8 	 DATA
	??_R0?AVObjectParser@@@8 	 DATA
	??_R0?AVPattern@@@8 	 DATA
	??_R0?AVPipe@@@8 	 DATA
	??_R0?AVPowerDemandModel@@@8 	 DATA
	??_R0?AVPowerLeakageModel@@@8 	 DATA
	??_R0?AVPropertyParser@@@8 	 DATA
	??_R0?AVPump@@@8 	 DATA
	??_R0?AVQualModel@@@8 	 DATA
	??_R0?AVQualSolver@@@8 	 DATA
	??_R0?AVReservoir@@@8 	 DATA
	??_R0?AVSparspakSolver@@@8 	 DATA
	??_R0?AVSystemError@@@8 	 DATA
	??_R0?AVTank@@@8 	 DATA
	??_R0?AVTraceModel@@@8 	 DATA
	??_R0?AVValve@@@8 	 DATA
	??_R0?AVVariablePattern@@@8 	 DATA
	??_R0?AVbad_cast@std@@@8 	 DATA
	??_R0?AVexception@std@@@8 	 DATA
	??_R0?AVios_base@std@@@8 	 DATA
	?CurveTypeWords@Curve@@2PAPBDA 	 DATA
	?LinkFieldNames@ReportFields@@2PAPBDA 	 DATA
	?MixingModelWords@TankMixModel@@2PAPBDA 	 DATA
	?NodeFieldNames@ReportFields@@2PAPBDA 	 DATA
	?SourceTypeWords@QualSource@@2PAPBDA 	 DATA
	?ValveTypeWords@Valve@@2PAPBDA 	 DATA
	?_OptionsStorage@?1??__local_stdio_scanf_options@@9@4_KA 	 DATA
	?_Psave@?$_Facetptr@V?$codecvt@DDU_Mbstatet@@@std@@@std@@2PBVfacet@locale@2@B 	 DATA
	?_Psave@?$_Facetptr@V?$ctype@D@std@@@std@@2PBVfacet@locale@2@B 	 DATA
	?_Stinit@?1??_Init@?$basic_filebuf@DU?$char_traits@D@std@@@std@@IAEXPAU_iobuf@@W4_Initfl@23@@Z@4U_Mbstatet@@A 	 DATA
	?sections@@3PAPBDA 	 DATA
	??$?0V?$istream_iterator@V?$basic_string@DU?$char_traits@D@std@@V?$allocator@D@2@@std@@DU?$char_traits@D@2@H@std@@X@?$vector@V?$basic_string@DU?$char_traits@D@std@@V?$allocator@D@2@@std@@V?$allocator@V?$basic_string@DU?$char_traits@D@std@@V?$allocator@D@2@@std@@@2@@std@@QAE@V?$istream_iterator@V?$basic_string@DU?$char_traits@D@std@@V?$allocator@D@2@@std@@DU?$char_traits@D@2@H@1@0@Z
	??$?5DU?$char_traits@D@std@@V?$allocator@D@1@@std@@YAAAV?$basic_istream@DU?$char_traits@D@std@@@0@$$QAV10@AAV?$basic_string@DU?$char_traits@D@std@@V?$allocator@D@2@@0@@Z
	??$?6DU?$char_traits@D@std@@V?$allocator@D@1@@std@@YAAAV?$basic_ostream@DU?$char_traits@D@std@@@0@AAV10@ABV?$basic_string@DU?$char_traits@D@std@@V?$allocator@D@2@@0@@Z
	??$?6U?$char_traits@D@std@@@std@@YAAAV?$basic_ostream@DU?$char_traits@D@std@@@0@AAV10@PBD@Z
	??$?8DU?$char_traits@D@std@@V?$allocator@D@1@@std@@YA_NABV?$basic_string@DU?$char_traits@D@std@@V?$allocator@D@2@@0@PBD@Z
	??$?HDU?$char_traits@D@std@@V?$allocator@D@1@@std@@YA?AV?$basic_string@DU?$char_traits@D@std@@V?$allocator@D@2@@0@$$QAV10@0@Z
	??$?HDU?$char_traits@D@std@@V?$allocator@D@1@@std@@YA?AV?$basic_string@DU?$char_traits@D@std@@V?$allocator@D@2@@0@$$QAV10@ABV10@@Z
	??$?HDU?$char_traits@D@std@@V?$allocator@D@1@@std@@YA?AV?$basic_string@DU?$char_traits@D@std@@V?$allocator@D@2@@0@$$QAV10@PBD@Z
	??$?HDU?$char_traits@D@std@@V?$allocator@D@1@@std@@YA?AV?$basic_string@DU?$char_traits@D@std@@V?$allocator@D@2@@0@ABV10@0@Z
	??$?HDU?$char_traits@D@std@@V?$allocator@D@1@@std@@YA?AV?$basic_string@DU?$char_traits@D@std@@V?$allocator@D@2@@0@ABV10@PBD@Z
	??$?HDU?$char_traits@D@std@@V?$allocator@D@1@@std@@YA?AV?$basic_string@DU?$char_traits@D@std@@V?$allocator@D@2@@0@PBDABV10@@Z
	??$_Buynode@ABUpiecewise_construct_t@std@@V?$tuple@ABV?$basic_string@DU?$char_traits@D@std@@V?$allocator@D@2@@std@@@2@V?$tuple@$$V@2@@?$_List_buy@U?$pair@$$CBV?$basic_string@DU?$char_traits@D@std@@V?$allocator@D@2@@std@@PAVElement@@@std@@V?$allocator@U?$pair@$$CBV?$basic_string@DU?$char_traits@D@std@@V?$allocator@D@2@@std@@PAVElement@@@std@@@2@@std@@QAEPAU?$_List_node@U?$pair@$$CBV?$basic_string@DU?$char_traits@D@std@@V?$allocator@D@2@@std@@PAVElement@@@std@@PAX@1@PAU21@0ABUpiecewise_construct_t@1@$$QAV?$tuple@ABV?$basic_string@DU?$char_traits@D@std@@V?$allocator@D@2@@std@@@1@$$QAV?$tuple@$$V@1@@Z
	??$_Buynode@ABVDemand@@@?$_List_buy@VDemand@@V?$allocator@VDemand@@@std@@@std@@QAEPAU?$_List_node@VDemand@@PAX@1@PAU21@0ABVDemand@@@Z
	??$_Construct@V?$istream_iterator@V?$basic_string@DU?$char_traits@D@std@@V?$allocator@D@2@@std@@DU?$char_traits@D@2@H@std@@@?$vector@V?$basic_string@DU?$char_traits@D@std@@V?$allocator@D@2@@std@@V?$allocator@V?$basic_string@DU?$char_traits@D@std@@V?$allocator@D@2@@std@@@2@@std@@QAEXV?$istream_iterator@V?$basic_string@DU?$char_traits@D@std@@V?$allocator@D@2@@std@@DU?$char_traits@D@2@H@1@0@Z
	??$_Construct@V?$istream_iterator@V?$basic_string@DU?$char_traits@D@std@@V?$allocator@D@2@@std@@DU?$char_traits@D@2@H@std@@@?$vector@V?$basic_string@DU?$char_traits@D@std@@V?$allocator@D@2@@std@@V?$allocator@V?$basic_string@DU?$char_traits@D@std@@V?$allocator@D@2@@std@@@2@@std@@QAEXV?$istream_iterator@V?$basic_string@DU?$char_traits@D@std@@V?$allocator@D@2@@std@@DU?$char_traits@D@2@H@1@0Uinput_iterator_tag@1@@Z
	??$_Destroy_range1@V?$allocator@V?$basic_string@DU?$char_traits@D@std@@V?$allocator@D@2@@std@@@std@@PAV?$basic_string@DU?$char_traits@D@std@@V?$allocator@D@2@@2@@std@@YAXPAV?$basic_string@DU?$char_traits@D@std@@V?$allocator@D@2@@0@0AAU?$_Wrap_alloc@V?$allocator@V?$basic_string@DU?$char_traits@D@std@@V?$allocator@D@2@@std@@@std@@@0@U?$integral_constant@_N$0A@@0@@Z
	??$_Insert@AAU?$pair@$$CBV?$basic_string@DU?$char_traits@D@std@@V?$allocator@D@2@@std@@PAVElement@@@std@@V?$_List_unchecked_iterator@V?$_List_val@U?$_List_simple_types@U?$pair@$$CBV?$basic_string@DU?$char_traits@D@std@@V?$allocator@D@2@@std@@PAVElement@@@std@@@std@@@std@@@2@@?$_Hash@V?$_Umap_traits@V?$basic_string@DU?$char_traits@D@std@@V?$allocator@D@2@@std@@PAVElement@@V?$_Uhash_compare@V?$basic_string@DU?$char_traits@D@std@@V?$allocator@D@2@@std@@U?$hash@V?$basic_string@DU?$char_traits@D@std@@V?$allocator@D@2@@std@@@2@U?$equal_to@V?$basic_string@DU?$char_traits@D@std@@V?$allocator@D@2@@std@@@2@@2@V?$allocator@U?$pair@$$CBV?$basic_string@DU?$char_traits@D@std@@V?$allocator@D@2@@std@@PAVElement@@@std@@@2@$0A@@std@@@std@@IAE?AU?$pair@V?$_List_iterator@V?$_List_val@U?$_List_simple_types@U?$pair@$$CBV?$basic_string@DU?$char_traits@D@std@@V?$allocator@D@2@@std@@PAVElement@@@std@@@std@@@std@@@std@@_N@1@AAU?$pair@$$CBV?$basic_string@DU?$char_traits@D@std@@V?$allocator@D@2@@std@@PAVElement@@@1@V?$_List_unchecked_iterator@V?$_List_val@U?$_List_simple_types@U?$pair@$$CBV?$basic_string@DU?$char_traits@D@std@@V?$allocator@D@2@@std@@PAVElement@@@std@@@std@@@std@@@1@@Z
	??$_Uninit_alloc_fill_n1@PAHIV?$allocator@H@std@@@std@@YAXPAHIPBHAAU?$_Wrap_alloc@V?$allocator@H@std@@@0@U?$integral_constant@_N$0A@@0@@Z
	??$_Uninit_alloc_fill_n1@PANIV?$allocator@N@std@@@std@@YAXPANIPBNAAU?$_Wrap_alloc@V?$allocator@N@std@@@0@U?$integral_constant@_N$0A@@0@@Z
	??$_Uninit_alloc_fill_n1@PAPAUSegment@@IV?$allocator@PAUSegment@@@std@@@std@@YAXPAPAUSegment@@IPBQAU1@AAU?$_Wrap_alloc@V?$allocator@PAUSegment@@@std@@@0@U?$integral_constant@_N$0A@@0@@Z
	??$_Uninit_alloc_fill_n1@PAV?$_List_unchecked_iterator@V?$_List_val@U?$_List_simple_types@U?$pair@$$CBV?$basic_string@DU?$char_traits@D@std@@V?$allocator@D@2@@std@@PAVElement@@@std@@@std@@@std@@@std@@IU?$_Wrap_alloc@V?$allocator@V?$_List_unchecked_iterator@V?$_List_val@U?$_List_simple_types@U?$pair@$$CBV?$basic_string@DU?$char_traits@D@std@@V?$allocator@D@2@@std@@PAVElement@@@std@@@std@@@std@@@std@@@std@@@2@@std@@YAXPAV?$_List_unchecked_iterator@V?$_List_val@U?$_List_simple_types@U?$pair@$$CBV?$basic_string@DU?$char_traits@D@std@@V?$allocator@D@2@@std@@PAVElement@@@std@@@std@@@std@@@0@IPBV10@AAU?$_Wrap_alloc@U?$_Wrap_alloc@V?$allocator@V?$_List_unchecked_iterator@V?$_List_val@U?$_List_simple_types@U?$pair@$$CBV?$basic_string@DU?$char_traits@D@std@@V?$allocator@D@2@@std@@PAVElement@@@std@@@std@@@std@@@std@@@std@@@std@@@0@U?$integral_constant@_N$0A@@0@@Z
	??$_Uninitialized_move_al_unchecked1@PAV?$_List_unchecked_iterator@V?$_List_val@U?$_List_simple_types@U?$pair@$$CBV?$basic_string@DU?$char_traits@D@std@@V?$allocator@D@2@@std@@PAVElement@@@std@@@std@@@std@@@std@@PAV12@U?$_Wrap_alloc@V?$allocator@V?$_List_unchecked_iterator@V?$_List_val@U?$_List_simple_types@U?$pair@$$CBV?$basic_string@DU?$char_traits@D@std@@V?$allocator@D@2@@std@@PAVElement@@@std@@@std@@@std@@@std@@@std@@@2@@std@@YAPAV?$_List_unchecked_iterator@V?$_List_val@U?$_List_simple_types@U?$pair@$$CBV?$basic_string@DU?$char_traits@D@std@@V?$allocator@D@2@@std@@PAVElement@@@std@@@std@@@std@@@0@PAV10@00AAU?$_Wrap_alloc@U?$_Wrap_alloc@V?$allocator@V?$_List_unchecked_iterator@V?$_List_val@U?$_List_simple_types@U?$pair@$$CBV?$basic_string@DU?$char_traits@D@std@@V?$allocator@D@2@@std@@PAVElement@@@std@@@std@@@std@@@std@@@std@@@std@@@0@U_General_ptr_iterator_tag@0@U_Any_tag@0@@Z
	??$_Uninitialized_move_al_unchecked1@PAV?$basic_string@DU?$char_traits@D@std@@V?$allocator@D@2@@std@@PAV12@V?$allocator@V?$basic_string@DU?$char_traits@D@std@@V?$allocator@D@2@@std@@@2@@std@@YAPAV?$basic_string@DU?$char_traits@D@std@@V?$allocator@D@2@@0@PAV10@00AAU?$_Wrap_alloc@V?$allocator@V?$basic_string@DU?$char_traits@D@std@@V?$allocator@D@2@@std@@@std@@@0@U_General_ptr_iterator_tag@0@U_Any_tag@0@@Z
	??$__vcrt_va_start_verify_argument_type@QBD@@YAXXZ
	??$destroy@PAD@?$_Wrap_alloc@V?$allocator@D@std@@@std@@QAEXPAPAD@Z
	??$emplace@ABUpiecewise_construct_t@std@@V?$tuple@ABV?$basic_string@DU?$char_traits@D@std@@V?$allocator@D@2@@std@@@2@V?$tuple@$$V@2@@?$_Hash@V?$_Umap_traits@V?$basic_string@DU?$char_traits@D@std@@V?$allocator@D@2@@std@@PAVElement@@V?$_Uhash_compare@V?$basic_string@DU?$char_traits@D@std@@V?$allocator@D@2@@std@@U?$hash@V?$basic_string@DU?$char_traits@D@std@@V?$allocator@D@2@@std@@@2@U?$equal_to@V?$basic_string@DU?$char_traits@D@std@@V?$allocator@D@2@@std@@@2@@2@V?$allocator@U?$pair@$$CBV?$basic_string@DU?$char_traits@D@std@@V?$allocator@D@2@@std@@PAVElement@@@std@@@2@$0A@@std@@@std@@QAE?AU?$pair@V?$_List_iterator@V?$_List_val@U?$_List_simple_types@U?$pair@$$CBV?$basic_string@DU?$char_traits@D@std@@V?$allocator@D@2@@std@@PAVElement@@@std@@@std@@@std@@@std@@_N@1@ABUpiecewise_construct_t@1@$$QAV?$tuple@ABV?$basic_string@DU?$char_traits@D@std@@V?$allocator@D@2@@std@@@1@$$QAV?$tuple@$$V@1@@Z
	??$endl@DU?$char_traits@D@std@@@std@@YAAAV?$basic_ostream@DU?$char_traits@D@std@@@0@AAV10@@Z
	??$getline@DU?$char_traits@D@std@@V?$allocator@D@2@@std@@YAAAV?$basic_istream@DU?$char_traits@D@std@@@0@$$QAV10@AAV?$basic_string@DU?$char_traits@D@std@@V?$allocator@D@2@@0@D@Z
	??$parseNumber@H@Utilities@@SA_NABV?$basic_string@DU?$char_traits@D@std@@V?$allocator@D@2@@std@@AAH@Z
	??$parseNumber@N@Utilities@@SA_NABV?$basic_string@DU?$char_traits@D@std@@V?$allocator@D@2@@std@@AAN@Z
	??$to_string@N@Utilities@@SA?AV?$basic_string@DU?$char_traits@D@std@@V?$allocator@D@2@@std@@ABN@Z
	??$use_facet@V?$codecvt@DDU_Mbstatet@@@std@@@std@@YAABV?$codecvt@DDU_Mbstatet@@@0@ABVlocale@0@@Z
	??$use_facet@V?$ctype@D@std@@@std@@YAABV?$ctype@D@0@ABVlocale@0@@Z
	??0?$_Wrap_alloc@V?$allocator@D@std@@@std@@QAE@XZ
	??0?$basic_fstream@DU?$char_traits@D@std@@@std@@QAE@XZ
	??0?$basic_ifstream@DU?$char_traits@D@std@@@std@@QAE@PBDHH@Z
	??0?$basic_ifstream@DU?$char_traits@D@std@@@std@@QAE@XZ
	??0?$basic_ofstream@DU?$char_traits@D@std@@@std@@QAE@XZ
	??0?$basic_string@DU?$char_traits@D@std@@V?$allocator@D@2@@std@@QAE@ABV01@@Z
	??0?$basic_string@DU?$char_traits@D@std@@V?$allocator@D@2@@std@@QAE@PBD@Z
	??0?$basic_string@DU?$char_traits@D@std@@V?$allocator@D@2@@std@@QAE@XZ
	??0?$basic_stringbuf@DU?$char_traits@D@std@@V?$allocator@D@2@@std@@QAE@ABV?$basic_string@DU?$char_traits@D@std@@V?$allocator@D@2@@1@H@Z
	??0?$fpos@U_Mbstatet@@@std@@QAE@U_Mbstatet@@_J@Z
	??0?$istream_iterator@V?$basic_string@DU?$char_traits@D@std@@V?$allocator@D@2@@std@@DU?$char_traits@D@2@H@std@@QAE@AAV?$basic_istream@DU?$char_traits@D@std@@@1@@Z
	??0?$unordered_map@V?$basic_string@DU?$char_traits@D@std@@V?$allocator@D@2@@std@@PAVElement@@U?$hash@V?$basic_string@DU?$char_traits@D@std@@V?$allocator@D@2@@std@@@2@U?$equal_to@V?$basic_string@DU?$char_traits@D@std@@V?$allocator@D@2@@std@@@2@V?$allocator@U?$pair@$$CBV?$basic_string@DU?$char_traits@D@std@@V?$allocator@D@2@@std@@PAVElement@@@std@@@2@@std@@QAE@XZ
	??0?$vector@HV?$allocator@H@std@@@std@@QAE@I@Z
	??0CM_HeadLossModel@@QAE@N@Z
	??0ChemModel@@QAE@XZ
	??0ConstrainedDemandModel@@QAE@XZ
	??0Control@@QAE@HV?$basic_string@DU?$char_traits@D@std@@V?$allocator@D@2@@std@@@Z
	??0ControlParser@@QAE@XZ
	??0Curve@@QAE@V?$basic_string@DU?$char_traits@D@std@@V?$allocator@D@2@@std@@@Z
	??0DW_HeadLossModel@@QAE@N@Z
	??0Demand@@QAE@XZ
	??0DemandModel@@QAE@N@Z
	??0DemandModel@@QAE@XZ
	??0ENerror@@QAE@ABV0@@Z
	??0ENerror@@QAE@XZ
	??0Element@@QAE@V?$basic_string@DU?$char_traits@D@std@@V?$allocator@D@2@@std@@@Z
	??0Emitter@@QAE@XZ
	??0FavadLeakageModel@@QAE@N@Z
	??0Field@@QAE@XZ
	??0FileError@@QAE@ABV0@@Z
	??0FileError@@QAE@H@Z
	??0FixedDemandModel@@QAE@XZ
	??0FixedPattern@@QAE@V?$basic_string@DU?$char_traits@D@std@@V?$allocator@D@2@@std@@@Z
	??0GGASolver@@QAE@PAVNetwork@@PAVMatrixSolver@@@Z
	??0Graph@@QAE@XZ
	??0HW_HeadLossModel@@QAE@N@Z
	??0HeadLossModel@@QAE@N@Z
	??0HydEngine@@QAE@XZ
	??0HydSolver@@QAE@PAVNetwork@@PAVMatrixSolver@@@Z
	??0InputError@@QAE@ABV0@@Z
	??0InputError@@QAE@HV?$basic_string@DU?$char_traits@D@std@@V?$allocator@D@2@@std@@@Z
	??0InputParser@@QAE@PAVNetwork@@@Z
	??0InputReader@@QAE@XZ
	??0Junction@@QAE@V?$basic_string@DU?$char_traits@D@std@@V?$allocator@D@2@@std@@@Z
	??0LTDSolver@@QAE@PAVNetwork@@@Z
	??0LeakageModel@@QAE@XZ
	??0Link@@QAE@V?$basic_string@DU?$char_traits@D@std@@V?$allocator@D@2@@std@@@Z
	??0LogisticDemandModel@@QAE@N@Z
	??0MatrixSolver@@QAE@XZ
	??0MemPool@@QAE@XZ
	??0Network@@QAE@XZ
	??0NetworkError@@QAE@ABV0@@Z
	??0NetworkError@@QAE@HV?$basic_string@DU?$char_traits@D@std@@V?$allocator@D@2@@std@@@Z
	??0Node@@QAE@V?$basic_string@DU?$char_traits@D@std@@V?$allocator@D@2@@std@@@Z
	??0ObjectParser@@QAE@PAVNetwork@@@Z
	??0OptionParser@@QAE@XZ
	??0Options@@QAE@XZ
	??0OutputFile@@QAE@XZ
	??0Pattern@@QAE@V?$basic_string@DU?$char_traits@D@std@@V?$allocator@D@2@@std@@H@Z
	??0Pipe@@QAE@V?$basic_string@DU?$char_traits@D@std@@V?$allocator@D@2@@std@@@Z
	??0PowerDemandModel@@QAE@N@Z
	??0PowerLeakageModel@@QAE@NN@Z
	??0Project@Epanet@@QAE@XZ
	??0ProjectWriter@@QAE@XZ
	??0PropertyParser@@QAE@PAVNetwork@@@Z
	??0Pump@@QAE@V?$basic_string@DU?$char_traits@D@std@@V?$allocator@D@2@@std@@@Z
	??0PumpCurve@@QAE@XZ
	??0PumpEnergy@@QAE@XZ
	??0QualEngine@@QAE@XZ
	??0QualModel@@QAE@H@Z
	??0QualSolver@@QAE@PAVNetwork@@@Z
	??0QualSource@@QAE@XZ
	??0ReportFields@@QAE@XZ
	??0ReportWriter@@QAE@AAV?$basic_ofstream@DU?$char_traits@D@std@@@std@@PAVNetwork@@@Z
	??0Reservoir@@QAE@V?$basic_string@DU?$char_traits@D@std@@V?$allocator@D@2@@std@@@Z
	??0SegPool@@QAE@XZ
	??0SparspakSolver@@QAE@AAV?$basic_ostream@DU?$char_traits@D@std@@@std@@@Z
	??0SystemError@@QAE@ABV0@@Z
	??0SystemError@@QAE@H@Z
	??0Tank@@QAE@V?$basic_string@DU?$char_traits@D@std@@V?$allocator@D@2@@std@@@Z
	??0TankMixModel@@QAE@XZ
	??0Units@@QAE@XZ
	??0Valve@@QAE@V?$basic_string@DU?$char_traits@D@std@@V?$allocator@D@2@@std@@@Z
	??0VariablePattern@@QAE@V?$basic_string@DU?$char_traits@D@std@@V?$allocator@D@2@@std@@@Z
	??0bad_cast@std@@QAE@ABV01@@Z
	??0exception@std@@QAE@ABV01@@Z
	??1?$_String_alloc@U?$_String_base_types@DV?$allocator@D@std@@@std@@@std@@QAE@XZ
	??1?$basic_filebuf@DU?$char_traits@D@std@@@std@@UAE@XZ
	??1?$basic_fstream@DU?$char_traits@D@std@@@std@@UAE@XZ
	??1?$basic_ifstream@DU?$char_traits@D@std@@@std@@UAE@XZ
	??1?$basic_istringstream@DU?$char_traits@D@std@@V?$allocator@D@2@@std@@UAE@XZ
	??1?$basic_ofstream@DU?$char_traits@D@std@@@std@@UAE@XZ
	??1?$basic_ostringstream@DU?$char_traits@D@std@@V?$allocator@D@2@@std@@UAE@XZ
	??1?$basic_string@DU?$char_traits@D@std@@V?$allocator@D@2@@std@@QAE@XZ
	??1?$basic_stringbuf@DU?$char_traits@D@std@@V?$allocator@D@2@@std@@UAE@XZ
	??1?$basic_stringstream@DU?$char_traits@D@std@@V?$allocator@D@2@@std@@UAE@XZ
	??1?$istream_iterator@V?$basic_string@DU?$char_traits@D@std@@V?$allocator@D@2@@std@@DU?$char_traits@D@2@H@std@@QAE@XZ
	??1?$list@U?$pair@$$CBV?$basic_string@DU?$char_traits@D@std@@V?$allocator@D@2@@std@@PAVElement@@@std@@V?$allocator@U?$pair@$$CBV?$basic_string@DU?$char_traits@D@std@@V?$allocator@D@2@@std@@PAVElement@@@std@@@2@@std@@QAE@XZ
	??1?$unordered_map@V?$basic_string@DU?$char_traits@D@std@@V?$allocator@D@2@@std@@PAVElement@@U?$hash@V?$basic_string@DU?$char_traits@D@std@@V?$allocator@D@2@@std@@@2@U?$equal_to@V?$basic_string@DU?$char_traits@D@std@@V?$allocator@D@2@@std@@@2@V?$allocator@U?$pair@$$CBV?$basic_string@DU?$char_traits@D@std@@V?$allocator@D@2@@std@@PAVElement@@@std@@@2@@std@@QAE@XZ
	??1?$vector@DV?$allocator@D@std@@@std@@QAE@XZ
	??1?$vector@HV?$allocator@H@std@@@std@@QAE@XZ
	??1?$vector@NV?$allocator@N@std@@@std@@QAE@XZ
	??1?$vector@PAUSegment@@V?$allocator@PAUSegment@@@std@@@std@@QAE@XZ
	??1?$vector@PAVControl@@V?$allocator@PAVControl@@@std@@@std@@QAE@XZ
	??1?$vector@PAVCurve@@V?$allocator@PAVCurve@@@std@@@std@@QAE@XZ
	??1?$vector@PAVLink@@V?$allocator@PAVLink@@@std@@@std@@QAE@XZ
	??1?$vector@PAVNode@@V?$allocator@PAVNode@@@std@@@std@@QAE@XZ
	??1?$vector@PAVPattern@@V?$allocator@PAVPattern@@@std@@@std@@QAE@XZ
	??1?$vector@V?$_List_unchecked_iterator@V?$_List_val@U?$_List_simple_types@U?$pair@$$CBV?$basic_string@DU?$char_traits@D@std@@V?$allocator@D@2@@std@@PAVElement@@@std@@@std@@@std@@@std@@U?$_Wrap_alloc@V?$allocator@V?$_List_unchecked_iterator@V?$_List_val@U?$_List_simple_types@U?$pair@$$CBV?$basic_string@DU?$char_traits@D@std@@V?$allocator@D@2@@std@@PAVElement@@@std@@@std@@@std@@@std@@@std@@@2@@std@@QAE@XZ
	??1?$vector@V?$basic_string@DU?$char_traits@D@std@@V?$allocator@D@2@@std@@V?$allocator@V?$basic_string@DU?$char_traits@D@std@@V?$allocator@D@2@@std@@@2@@std@@QAE@XZ
	??1Control@@UAE@XZ
	??1Curve@@UAE@XZ
	??1Demand@@QAE@XZ
	??1DemandModel@@UAE@XZ
	??1ENerror@@UAE@XZ
	??1Element@@UAE@XZ
	??1Emitter@@QAE@XZ
	??1Field@@QAE@XZ
	??1FileError@@UAE@XZ
	??1FixedPattern@@UAE@XZ
	??1GGASolver@@UAE@XZ
	??1Graph@@QAE@XZ
	??1HeadLossModel@@UAE@XZ
	??1HydEngine@@QAE@XZ
	??1HydSolver@@UAE@XZ
	??1InputError@@UAE@XZ
	??1InputParser@@UAE@XZ
	??1InputReader@@QAE@XZ
	??1Junction@@UAE@XZ
	??1LTDSolver@@UAE@XZ
	??1LeakageModel@@UAE@XZ
	??1Link@@UAE@XZ
	??1MatrixSolver@@UAE@XZ
	??1MemPool@@QAE@XZ
	??1Network@@QAE@XZ
	??1NetworkError@@UAE@XZ
	??1Node@@UAE@XZ
	??1ObjectParser@@UAE@XZ
	??1Options@@QAE@XZ
	??1OutputFile@@QAE@XZ
	??1Pattern@@UAE@XZ
	??1Pipe@@UAE@XZ
	??1Project@Epanet@@QAE@XZ
	??1ProjectWriter@@QAE@XZ
	??1PropertyParser@@UAE@XZ
	??1Pump@@UAE@XZ
	??1PumpCurve@@QAE@XZ
	??1QualEngine@@QAE@XZ
	??1QualModel@@UAE@XZ
	??1QualSolver@@UAE@XZ
	??1QualSource@@QAE@XZ
	??1ReportFields@@QAE@XZ
	??1ReportWriter@@QAE@XZ
	??1Reservoir@@UAE@XZ
	??1SegPool@@QAE@XZ
	??1SparspakSolver@@UAE@XZ
	??1SystemError@@UAE@XZ
	??1TankMixModel@@QAE@XZ
	??1Units@@QAE@XZ
	??1Valve@@UAE@XZ
	??1VariablePattern@@UAE@XZ
	??1_Sentry_base@?$basic_istream@DU?$char_traits@D@std@@@std@@QAE@XZ
	??1_Sentry_base@?$basic_ostream@DU?$char_traits@D@std@@@std@@QAE@XZ
	??1bad_cast@std@@UAE@XZ
	??1exception@std@@UAE@XZ
	??1locale@std@@QAE@XZ
	??1sentry@?$basic_istream@DU?$char_traits@D@std@@@std@@QAE@XZ
	??1sentry@?$basic_ostream@DU?$char_traits@D@std@@@std@@QAE@XZ
	??3@YAXPAX0@Z
	??4?$basic_string@DU?$char_traits@D@std@@V?$allocator@D@2@@std@@QAEAAV01@$$QAV01@@Z
	??4?$basic_string@DU?$char_traits@D@std@@V?$allocator@D@2@@std@@QAEAAV01@ABV01@@Z
	??4?$basic_string@DU?$char_traits@D@std@@V?$allocator@D@2@@std@@QAEAAV01@PBD@Z
	??A?$unordered_map@V?$basic_string@DU?$char_traits@D@std@@V?$allocator@D@2@@std@@PAVElement@@U?$hash@V?$basic_string@DU?$char_traits@D@std@@V?$allocator@D@2@@std@@@2@U?$equal_to@V?$basic_string@DU?$char_traits@D@std@@V?$allocator@D@2@@std@@@2@V?$allocator@U?$pair@$$CBV?$basic_string@DU?$char_traits@D@std@@V?$allocator@D@2@@std@@PAVElement@@@std@@@2@@std@@QAEAAPAVElement@@ABV?$basic_string@DU?$char_traits@D@std@@V?$allocator@D@2@@1@@Z
	??_D?$basic_ifstream@DU?$char_traits@D@std@@@std@@QAEXXZ
	??_D?$basic_istringstream@DU?$char_traits@D@std@@V?$allocator@D@2@@std@@QAEXXZ
	??_D?$basic_ofstream@DU?$char_traits@D@std@@@std@@QAEXXZ
	??_D?$basic_ostringstream@DU?$char_traits@D@std@@V?$allocator@D@2@@std@@QAEXXZ
	??_D?$basic_stringstream@DU?$char_traits@D@std@@V?$allocator@D@2@@std@@QAEXXZ
	?_Assign_rv@?$basic_string@DU?$char_traits@D@std@@V?$allocator@D@2@@std@@QAEX$$QAV12@@Z
	?_Buynode0@?$_List_alloc@U?$_List_base_types@U?$pair@$$CBV?$basic_string@DU?$char_traits@D@std@@V?$allocator@D@2@@std@@PAVElement@@@std@@V?$allocator@U?$pair@$$CBV?$basic_string@DU?$char_traits@D@std@@V?$allocator@D@2@@std@@PAVElement@@@std@@@2@@std@@@std@@QAEPAU?$_List_node@U?$pair@$$CBV?$basic_string@DU?$char_traits@D@std@@V?$allocator@D@2@@std@@PAVElement@@@std@@PAX@2@PAU32@0@Z
	?_Buynode0@?$_List_alloc@U?$_List_base_types@VDemand@@V?$allocator@VDemand@@@std@@@std@@@std@@QAEPAU?$_List_node@VDemand@@PAX@2@PAU32@0@Z
	?_Chassign@?$basic_string@DU?$char_traits@D@std@@V?$allocator@D@2@@std@@QAEXIID@Z
	?_Check_size@?$_Hash@V?$_Umap_traits@V?$basic_string@DU?$char_traits@D@std@@V?$allocator@D@2@@std@@PAVElement@@V?$_Uhash_compare@V?$basic_string@DU?$char_traits@D@std@@V?$allocator@D@2@@std@@U?$hash@V?$basic_string@DU?$char_traits@D@std@@V?$allocator@D@2@@std@@@2@U?$equal_to@V?$basic_string@DU?$char_traits@D@std@@V?$allocator@D@2@@std@@@2@@2@V?$allocator@U?$pair@$$CBV?$basic_string@DU?$char_traits@D@std@@V?$allocator@D@2@@std@@PAVElement@@@std@@@2@$0A@@std@@@std@@IAEXXZ
	?_Construct_n@?$vector@DV?$allocator@D@std@@@std@@QAEXIPBD@Z
	?_Construct_n@?$vector@HV?$allocator@H@std@@@std@@QAEXIPBH@Z
	?_Copy@?$basic_string@DU?$char_traits@D@std@@V?$allocator@D@2@@std@@QAEXII@Z
	?_Deallocate@std@@YAXPAXII@Z
	?_Endwrite@?$basic_filebuf@DU?$char_traits@D@std@@@std@@IAE_NXZ
	?_Grow@?$basic_string@DU?$char_traits@D@std@@V?$allocator@D@2@@std@@QAE_NI_N@Z
	?_Init@?$_Hash@V?$_Umap_traits@V?$basic_string@DU?$char_traits@D@std@@V?$allocator@D@2@@std@@PAVElement@@V?$_Uhash_compare@V?$basic_string@DU?$char_traits@D@std@@V?$allocator@D@2@@std@@U?$hash@V?$basic_string@DU?$char_traits@D@std@@V?$allocator@D@2@@std@@@2@U?$equal_to@V?$basic_string@DU?$char_traits@D@std@@V?$allocator@D@2@@std@@@2@@2@V?$allocator@U?$pair@$$CBV?$basic_string@DU?$char_traits@D@std@@V?$allocator@D@2@@std@@PAVElement@@@std@@@2@$0A@@std@@@std@@IAEXI@Z
	?_Init@?$basic_filebuf@DU?$char_traits@D@std@@@std@@IAEXPAU_iobuf@@W4_Initfl@12@@Z
	?_Init@?$basic_stringbuf@DU?$char_traits@D@std@@V?$allocator@D@2@@std@@IAEXPBDIH@Z
	?_Insert_n@?$vector@V?$_List_unchecked_iterator@V?$_List_val@U?$_List_simple_types@U?$pair@$$CBV?$basic_string@DU?$char_traits@D@std@@V?$allocator@D@2@@std@@PAVElement@@@std@@@std@@@std@@@std@@U?$_Wrap_alloc@V?$allocator@V?$_List_unchecked_iterator@V?$_List_val@U?$_List_simple_types@U?$pair@$$CBV?$basic_string@DU?$char_traits@D@std@@V?$allocator@D@2@@std@@PAVElement@@@std@@@std@@@std@@@std@@@std@@@2@@std@@IAE?AV?$_Vector_iterator@V?$_Vector_val@U?$_Simple_types@V?$_List_unchecked_iterator@V?$_List_val@U?$_List_simple_types@U?$pair@$$CBV?$basic_string@DU?$char_traits@D@std@@V?$allocator@D@2@@std@@PAVElement@@@std@@@std@@@std@@@std@@@std@@@std@@@2@V?$_Vector_const_iterator@V?$_Vector_val@U?$_Simple_types@V?$_List_unchecked_iterator@V?$_List_val@U?$_List_simple_types@U?$pair@$$CBV?$basic_string@DU?$char_traits@D@std@@V?$allocator@D@2@@std@@PAVElement@@@std@@@std@@@std@@@std@@@std@@@std@@@2@IABV?$_List_unchecked_iterator@V?$_List_val@U?$_List_simple_types@U?$pair@$$CBV?$basic_string@DU?$char_traits@D@std@@V?$allocator@D@2@@std@@PAVElement@@@std@@@std@@@std@@@2@@Z
	?_Lock@?$basic_filebuf@DU?$char_traits@D@std@@@std@@UAEXXZ
	?_Myptr@?$_String_alloc@U?$_String_base_types@DV?$allocator@D@std@@@std@@@std@@QBEPBDXZ
	?_Reallocate@?$vector@DV?$allocator@D@std@@@std@@IAEXI@Z
	?_Reallocate@?$vector@HV?$allocator@H@std@@@std@@IAEXI@Z
	?_Reallocate@?$vector@NV?$allocator@N@std@@@std@@IAEXI@Z
	?_Reallocate@?$vector@PAUSegment@@V?$allocator@PAUSegment@@@std@@@std@@IAEXI@Z
	?_Reallocate@?$vector@PAVControl@@V?$allocator@PAVControl@@@std@@@std@@IAEXI@Z
	?_Reallocate@?$vector@PAVCurve@@V?$allocator@PAVCurve@@@std@@@std@@IAEXI@Z
	?_Reallocate@?$vector@PAVLink@@V?$allocator@PAVLink@@@std@@@std@@IAEXI@Z
	?_Reallocate@?$vector@PAVNode@@V?$allocator@PAVNode@@@std@@@std@@IAEXI@Z
	?_Reallocate@?$vector@PAVPattern@@V?$allocator@PAVPattern@@@std@@@std@@IAEXI@Z
	?_Reallocate@?$vector@V?$_List_unchecked_iterator@V?$_List_val@U?$_List_simple_types@U?$pair@$$CBV?$basic_string@DU?$char_traits@D@std@@V?$allocator@D@2@@std@@PAVElement@@@std@@@std@@@std@@@std@@U?$_Wrap_alloc@V?$allocator@V?$_List_unchecked_iterator@V?$_List_val@U?$_List_simple_types@U?$pair@$$CBV?$basic_string@DU?$char_traits@D@std@@V?$allocator@D@2@@std@@PAVElement@@@std@@@std@@@std@@@std@@@std@@@2@@std@@IAEXI@Z
	?_Reallocate@?$vector@V?$basic_string@DU?$char_traits@D@std@@V?$allocator@D@2@@std@@V?$allocator@V?$basic_string@DU?$char_traits@D@std@@V?$allocator@D@2@@std@@@2@@std@@IAEXI@Z
	?_Reserve@?$vector@DV?$allocator@D@std@@@std@@IAEXI@Z
	?_Reserve@?$vector@HV?$allocator@H@std@@@std@@IAEXI@Z
	?_Reserve@?$vector@NV?$allocator@N@std@@@std@@IAEXI@Z
	?_Reserve@?$vector@PAUSegment@@V?$allocator@PAUSegment@@@std@@@std@@IAEXI@Z
	?_Reserve@?$vector@PAVControl@@V?$allocator@PAVControl@@@std@@@std@@IAEXI@Z
	?_Reserve@?$vector@PAVCurve@@V?$allocator@PAVCurve@@@std@@@std@@IAEXI@Z
	?_Reserve@?$vector@PAVLink@@V?$allocator@PAVLink@@@std@@@std@@IAEXI@Z
	?_Reserve@?$vector@PAVNode@@V?$allocator@PAVNode@@@std@@@std@@IAEXI@Z
	?_Reserve@?$vector@PAVPattern@@V?$allocator@PAVPattern@@@std@@@std@@IAEXI@Z
	?_Reserve@?$vector@V?$basic_string@DU?$char_traits@D@std@@V?$allocator@D@2@@std@@V?$allocator@V?$basic_string@DU?$char_traits@D@std@@V?$allocator@D@2@@std@@@2@@std@@IAEXI@Z
	?_Reset_back@?$basic_filebuf@DU?$char_traits@D@std@@@std@@AAEXXZ
	?_Set_back@?$basic_filebuf@DU?$char_traits@D@std@@@std@@AAEXXZ
	?_Tidy@?$basic_string@DU?$char_traits@D@std@@V?$allocator@D@2@@std@@QAEX_NI@Z
	?_Tidy@?$basic_stringbuf@DU?$char_traits@D@std@@V?$allocator@D@2@@std@@IAEXXZ
	?_Tidy@?$vector@HV?$allocator@H@std@@@std@@IAEXXZ
	?_Tidy@?$vector@NV?$allocator@N@std@@@std@@IAEXXZ
	?_Tidy@?$vector@PAUSegment@@V?$allocator@PAUSegment@@@std@@@std@@IAEXXZ
	?_Tidy@?$vector@V?$basic_string@DU?$char_traits@D@std@@V?$allocator@D@2@@std@@V?$allocator@V?$basic_string@DU?$char_traits@D@std@@V?$allocator@D@2@@std@@@2@@std@@IAEXXZ
	?_Unlock@?$basic_filebuf@DU?$char_traits@D@std@@@std@@UAEXXZ
	?activate@Control@@AAE_N_NAAV?$basic_ostream@DU?$char_traits@D@std@@@std@@@Z
	?addCVHeadLoss@HeadLossModel@@SAXNAAN0@Z
	?addData@Curve@@QAEXNN@Z
	?addElement@Network@@QAE_NW4ElementType@Element@@HV?$basic_string@DU?$char_traits@D@std@@V?$allocator@D@2@@std@@@Z
	?addEmitter@Emitter@@SA_NPAVJunction@@NNPAVPattern@@@Z
	?addSegment@LTDSolver@@AAEXHNN@Z
	?addSource@QualSource@@SA_NPAVNode@@HNPAVPattern@@@Z
	?addToDiag@SparspakSolver@@UAEXHN@Z
	?addToOffDiag@SparspakSolver@@UAEXHN@Z
	?addToRhs@SparspakSolver@@UAEXHN@Z
	?adjustOptions@Options@@QAEXXZ
	?advance@FixedPattern@@UAEXH@Z
	?advance@HydEngine@@QAEXPAH@Z
	?advance@VariablePattern@@UAEXH@Z
	?advanceSolver@Project@Epanet@@QAEHPAH@Z
	?aij2lnz@@YAXHPAH000000@Z
	?alloc@MemPool@@QAEPADI@Z
	?allocate@?$_Wrap_alloc@V?$allocator@D@std@@@std@@QAEPADI@Z
	?allocate@?$allocator@D@std@@QAEPADI@Z
	?allocate@?$allocator@H@std@@QAEPAHI@Z
	?allocate@?$allocator@N@std@@QAEPANI@Z
	?allocate@?$allocator@PAUSegment@@@std@@QAEPAPAUSegment@@I@Z
	?allocate@?$allocator@PAVControl@@@std@@QAEPAPAVControl@@I@Z
	?allocate@?$allocator@PAVCurve@@@std@@QAEPAPAVCurve@@I@Z
	?allocate@?$allocator@PAVLink@@@std@@QAEPAPAVLink@@I@Z
	?allocate@?$allocator@PAVNode@@@std@@QAEPAPAVNode@@I@Z
	?allocate@?$allocator@PAVPattern@@@std@@QAEPAPAVPattern@@I@Z
	?allocate@?$allocator@V?$_List_unchecked_iterator@V?$_List_val@U?$_List_simple_types@U?$pair@$$CBV?$basic_string@DU?$char_traits@D@std@@V?$allocator@D@2@@std@@PAVElement@@@std@@@std@@@std@@@std@@@std@@QAEPAV?$_List_unchecked_iterator@V?$_List_val@U?$_List_simple_types@U?$pair@$$CBV?$basic_string@DU?$char_traits@D@std@@V?$allocator@D@2@@std@@PAVElement@@@std@@@std@@@std@@@2@I@Z
	?allocate@?$allocator@V?$basic_string@DU?$char_traits@D@std@@V?$allocator@D@2@@std@@@std@@QAEPAV?$basic_string@DU?$char_traits@D@std@@V?$allocator@D@2@@2@I@Z
	?append@?$basic_string@DU?$char_traits@D@std@@V?$allocator@D@2@@std@@QAEAAV12@ABV12@II@Z
	?append@?$basic_string@DU?$char_traits@D@std@@V?$allocator@D@2@@std@@QAEAAV12@ID@Z
	?append@?$basic_string@DU?$char_traits@D@std@@V?$allocator@D@2@@std@@QAEAAV12@PBDI@Z
	?apply@Control@@QAEXPAVNetwork@@HH@Z
	?applyControlPattern@Link@@UAEXAAV?$basic_ostream@DU?$char_traits@D@std@@@std@@@Z
	?applyControlPattern@Pump@@UAEXAAV?$basic_ostream@DU?$char_traits@D@std@@@std@@@Z
	?applyPressureControls@Control@@SAXPAVNetwork@@@Z
	?assign@?$basic_string@DU?$char_traits@D@std@@V?$allocator@D@2@@std@@QAEAAV12@ABV12@II@Z
	?assign@?$basic_string@DU?$char_traits@D@std@@V?$allocator@D@2@@std@@QAEAAV12@PBDI@Z
	?buildAdjncy@@YAXHHPAH000000@Z
	?canLeak@Link@@UAE_NXZ
	?canLeak@Pipe@@UAE_NXZ
	?changeSetting@Link@@UAE_NN_NV?$basic_string@DU?$char_traits@D@std@@V?$allocator@D@2@@std@@AAV?$basic_ostream@DU?$char_traits@D@std@@@3@@Z
	?changeSetting@Pump@@UAE_NN_NV?$basic_string@DU?$char_traits@D@std@@V?$allocator@D@2@@std@@AAV?$basic_ostream@DU?$char_traits@D@std@@@3@@Z
	?changeSetting@Valve@@UAE_NN_NV?$basic_string@DU?$char_traits@D@std@@V?$allocator@D@2@@std@@AAV?$basic_ostream@DU?$char_traits@D@std@@@3@@Z
	?changeStatus@Link@@UAE_NH_NV?$basic_string@DU?$char_traits@D@std@@V?$allocator@D@2@@std@@AAV?$basic_ostream@DU?$char_traits@D@std@@@3@@Z
	?changeStatus@Pipe@@UAE_NH_NV?$basic_string@DU?$char_traits@D@std@@V?$allocator@D@2@@std@@AAV?$basic_ostream@DU?$char_traits@D@std@@@3@@Z
	?changeStatus@Pump@@UAE_NH_NV?$basic_string@DU?$char_traits@D@std@@V?$allocator@D@2@@std@@AAV?$basic_ostream@DU?$char_traits@D@std@@@3@@Z
	?changeStatus@Valve@@UAE_NH_NV?$basic_string@DU?$char_traits@D@std@@V?$allocator@D@2@@std@@AAV?$basic_ostream@DU?$char_traits@D@std@@@3@@Z
	?clear@?$list@U?$pair@$$CBV?$basic_string@DU?$char_traits@D@std@@V?$allocator@D@2@@std@@PAVElement@@@std@@V?$allocator@U?$pair@$$CBV?$basic_string@DU?$char_traits@D@std@@V?$allocator@D@2@@std@@PAVElement@@@std@@@2@@std@@QAEXXZ
	?clear@?$list@VDemand@@V?$allocator@VDemand@@@std@@@std@@QAEXXZ
	?clear@Network@@QAEXXZ
	?clear@Project@Epanet@@QAEXXZ
	?close@?$basic_filebuf@DU?$char_traits@D@std@@@std@@QAEPAV12@XZ
	?close@?$basic_ifstream@DU?$char_traits@D@std@@@std@@QAEXXZ
	?close@HydEngine@@QAEXXZ
	?close@OutputFile@@QAEXXZ
	?close@QualEngine@@QAEXXZ
	?closeReport@Project@Epanet@@AAEXXZ
	?compare@?$basic_string@DU?$char_traits@D@std@@V?$allocator@D@2@@std@@QBEHPBD@Z
	?compare@?$char_traits@D@std@@SAHPBD0I@Z
	?compress@@YAHHHPAH0000@Z
	?constHpHeadLoss@PumpCurve@@AAEXNNAAN0@Z
	?control@Network@@QAEPAVControl@@ABV?$basic_string@DU?$char_traits@D@std@@V?$allocator@D@2@@std@@@Z
	?control@Network@@QAEPAVControl@@H@Z
	?convertSetting@Link@@UAENPAVNetwork@@N@Z
	?convertSetting@Valve@@UAENPAVNetwork@@N@Z
	?convertUnits@Control@@QAEXPAVNetwork@@@Z
	?convertUnits@Emitter@@QAEXPAVNetwork@@@Z
	?convertUnits@Junction@@UAEXPAVNetwork@@@Z
	?convertUnits@Network@@QAEXXZ
	?convertUnits@Pipe@@UAEXPAVNetwork@@@Z
	?convertUnits@Pump@@UAEXPAVNetwork@@@Z
	?convertUnits@Reservoir@@UAEXPAVNetwork@@@Z
	?convertUnits@Tank@@UAEXPAVNetwork@@@Z
	?convertUnits@Valve@@UAEXPAVNetwork@@@Z
	?count@Network@@QAEHW4ElementType@Element@@@Z
	?createAdjLists@Graph@@QAEXPAVNetwork@@@Z
	?createControl@ControlParser@@AAEXPAVNetwork@@@Z
	?createDemandModel@Network@@QAE_NXZ
	?createHeadLossModel@Network@@QAE_NXZ
	?createLeakageModel@Network@@QAE_NXZ
	?createQualModel@Network@@QAE_NXZ
	?currentFactor@Pattern@@QAENXZ
	?curve@Network@@QAEPAVCurve@@ABV?$basic_string@DU?$char_traits@D@std@@V?$allocator@D@2@@std@@@Z
	?curve@Network@@QAEPAVCurve@@H@Z
	?customCurveHeadLoss@PumpCurve@@AAEXNNAAN0@Z
	?debug@MatrixSolver@@UAEXAAV?$basic_ostream@DU?$char_traits@D@std@@@std@@@Z
	?demandOptionsToStr@Options@@QAE?AV?$basic_string@DU?$char_traits@D@std@@V?$allocator@D@2@@std@@XZ
	?energyOptionsToStr@Options@@QAE?AV?$basic_string@DU?$char_traits@D@std@@V?$allocator@D@2@@std@@PAVNetwork@@@Z
	?erase@?$_Hash@V?$_Umap_traits@V?$basic_string@DU?$char_traits@D@std@@V?$allocator@D@2@@std@@PAVElement@@V?$_Uhash_compare@V?$basic_string@DU?$char_traits@D@std@@V?$allocator@D@2@@std@@U?$hash@V?$basic_string@DU?$char_traits@D@std@@V?$allocator@D@2@@std@@@2@U?$equal_to@V?$basic_string@DU?$char_traits@D@std@@V?$allocator@D@2@@std@@@2@@2@V?$allocator@U?$pair@$$CBV?$basic_string@DU?$char_traits@D@std@@V?$allocator@D@2@@std@@PAVElement@@@std@@@2@$0A@@std@@@std@@QAE?AV?$_List_iterator@V?$_List_val@U?$_List_simple_types@U?$pair@$$CBV?$basic_string@DU?$char_traits@D@std@@V?$allocator@D@2@@std@@PAVElement@@@std@@@std@@@std@@@2@V?$_List_const_iterator@V?$_List_val@U?$_List_simple_types@U?$pair@$$CBV?$basic_string@DU?$char_traits@D@std@@V?$allocator@D@2@@std@@PAVElement@@@std@@@std@@@std@@@2@@Z
	?erase@?$basic_string@DU?$char_traits@D@std@@V?$allocator@D@2@@std@@QAEAAV12@II@Z
	?erase@?$list@U?$pair@$$CBV?$basic_string@DU?$char_traits@D@std@@V?$allocator@D@2@@std@@PAVElement@@@std@@V?$allocator@U?$pair@$$CBV?$basic_string@DU?$char_traits@D@std@@V?$allocator@D@2@@std@@PAVElement@@@std@@@2@@std@@QAE?AV?$_List_iterator@V?$_List_val@U?$_List_simple_types@U?$pair@$$CBV?$basic_string@DU?$char_traits@D@std@@V?$allocator@D@2@@std@@PAVElement@@@std@@@std@@@std@@@2@V?$_List_const_iterator@V?$_List_val@U?$_List_simple_types@U?$pair@$$CBV?$basic_string@DU?$char_traits@D@std@@V?$allocator@D@2@@std@@PAVElement@@@std@@@std@@@std@@@2@@Z
	?evaluate@HydBalance@@QAENNQAN00PAVNetwork@@@Z
	?factorize@@YAHHAAHPAH111111@Z
	?factory@DemandModel@@SAPAV1@V?$basic_string@DU?$char_traits@D@std@@V?$allocator@D@2@@std@@N@Z
	?factory@HeadLossModel@@SAPAV1@V?$basic_string@DU?$char_traits@D@std@@V?$allocator@D@2@@std@@N@Z
	?factory@HydSolver@@SAPAV1@V?$basic_string@DU?$char_traits@D@std@@V?$allocator@D@2@@std@@PAVNetwork@@PAVMatrixSolver@@@Z
	?factory@LeakageModel@@SAPAV1@V?$basic_string@DU?$char_traits@D@std@@V?$allocator@D@2@@std@@NN@Z
	?factory@Link@@SAPAV1@HV?$basic_string@DU?$char_traits@D@std@@V?$allocator@D@2@@std@@PAVMemPool@@@Z
	?factory@MatrixSolver@@SAPAV1@V?$basic_string@DU?$char_traits@D@std@@V?$allocator@D@2@@std@@AAV?$basic_ostream@DU?$char_traits@D@std@@@3@@Z
	?factory@Node@@SAPAV1@HV?$basic_string@DU?$char_traits@D@std@@V?$allocator@D@2@@std@@PAVMemPool@@@Z
	?factory@Pattern@@SAPAV1@HV?$basic_string@DU?$char_traits@D@std@@V?$allocator@D@2@@std@@PAVMemPool@@@Z
	?factory@QualModel@@SAPAV1@V?$basic_string@DU?$char_traits@D@std@@V?$allocator@D@2@@std@@@Z
	?factory@QualSolver@@SAPAV1@V?$basic_string@DU?$char_traits@D@std@@V?$allocator@D@2@@std@@PAVNetwork@@@Z
	?finalizeSolver@Project@Epanet@@AAEXXZ
	?find@?$basic_string@DU?$char_traits@D@std@@V?$allocator@D@2@@std@@QBEIPBDII@Z
	?findActualDemand@Junction@@UAENPAVNetwork@@NAAN@Z
	?findActualDemand@Node@@UAENPAVNetwork@@NAAN@Z
	?findBulkRate@ChemModel@@AAENNNN@Z
	?findClosedHeadLoss@HeadLossModel@@SAXNAAN0@Z
	?findCostFactor@PumpEnergy@@AAENPAVPump@@PAVNetwork@@@Z
	?findDemand@ConstrainedDemandModel@@UAENPAVJunction@@NAAN@Z
	?findDemand@DemandModel@@UAENPAVJunction@@NAAN@Z
	?findDemand@LogisticDemandModel@@UAENPAVJunction@@NAAN@Z
	?findDemand@PowerDemandModel@@UAENPAVJunction@@NAAN@Z
	?findEfficiency@PumpEnergy@@AAENPAVPump@@PAVNetwork@@@Z
	?findEmitterFlow@Junction@@UAENNAAN@Z
	?findEmitterFlow@Node@@UAENNAAN@Z
	?findErrorNorm@GGASolver@@AAENN@Z
	?findFIFOQuality@TankMixModel@@AAENNNNPAVSegPool@@@Z
	?findFcvHeadLoss@Valve@@IAEXN@Z
	?findFlow@FavadLeakageModel@@UAENNNNNAAN@Z
	?findFlow@PowerLeakageModel@@UAENNNNNAAN@Z
	?findFlowChanges@GGASolver@@AAEXXZ
	?findFlowErrorNorm@HydBalance@@QAENQANPAVNetwork@@@Z
	?findFlowRate@Emitter@@QAENNAAN@Z
	?findFullDemand@Junction@@UAEXNN@Z
	?findFullDemand@Node@@UAEXNN@Z
	?findFullMatch@Utilities@@SAHABV?$basic_string@DU?$char_traits@D@std@@V?$allocator@D@2@@std@@QAPBD@Z
	?findGpvHeadLoss@Valve@@IAEXPAVNetwork@@N@Z
	?findHead@Tank@@QAENN@Z
	?findHeadChanges@GGASolver@@AAEHXZ
	?findHeadErrorNorm@HydBalance@@QAENNQAN00PAVNetwork@@@Z
	?findHeadLoss@CM_HeadLossModel@@UAEXPAVPipe@@NAAN1@Z
	?findHeadLoss@DW_HeadLossModel@@UAEXPAVPipe@@NAAN1@Z
	?findHeadLoss@HW_HeadLossModel@@UAEXPAVPipe@@NAAN1@Z
	?findHeadLoss@Pipe@@UAEXPAVNetwork@@N@Z
	?findHeadLoss@Pump@@UAEXPAVNetwork@@N@Z
	?findHeadLoss@PumpCurve@@QAEXNNAAN0@Z
	?findHeadLoss@Valve@@UAEXPAVNetwork@@N@Z
	?findLIFOQuality@TankMixModel@@AAENNNNPAVSegPool@@@Z
	?findLeakage@Link@@UAENPAVNetwork@@NAAN@Z
	?findLeakage@Pipe@@UAENPAVNetwork@@NAAN@Z
	?findLeakageFlows@@YAXNQAN0PAVNetwork@@@Z
	?findMIX1Quality@TankMixModel@@AAENNNN@Z
	?findMIX2Quality@TankMixModel@@AAENNNN@Z
	?findMassTransCoeff@ChemModel@@UAEXPAVPipe@@@Z
	?findMassTransCoeff@QualModel@@UAEXPAVPipe@@@Z
	?findMatch@Utilities@@SAHABV?$basic_string@DU?$char_traits@D@std@@V?$allocator@D@2@@std@@QAPBD@Z
	?findNodeOutflows@@YAXNQAN0PAVNetwork@@@Z
	?findOpenHeadLoss@Valve@@IAEXN@Z
	?findPbvHeadLoss@Valve@@IAEXN@Z
	?findQuality@TankMixModel@@QAENNNNPAVSegPool@@@Z
	?findSection@InputReader@@IAEXAAV?$basic_string@DU?$char_traits@D@std@@V?$allocator@D@2@@std@@@Z
	?findSegment@Curve@@QAEXNAAN0@Z
	?findStepSize@GGASolver@@AAENH@Z
	?findStoredMass@LTDSolver@@AAENXZ
	?findTcvHeadLoss@Valve@@IAEXN@Z
	?findTotalFlowChange@@YANNQANPAVNetwork@@@Z
	?findTracerAdded@QualModel@@UAENPAVNode@@N@Z
	?findTracerAdded@TraceModel@@UAENPAVNode@@N@Z
	?findVolume@Tank@@QAENN@Z
	?findWallRate@ChemModel@@AAENNNNN@Z
	?find_last_not_of@?$basic_string@DU?$char_traits@D@std@@V?$allocator@D@2@@std@@QBEIPBDII@Z
	?fixed@std@@YAAAVios_base@1@AAV21@@Z
	?flowDirectionsChanged@QualEngine@@AAE_NXZ
	?freeSegment@SegPool@@QAEXPAUSegment@@@Z
	?frictionFactor@@YANNNNAAN@Z
	?getCount@DataManager@@SAHHPAHPAVNetwork@@@Z
	?getDiag@MatrixSolver@@UAENH@Z
	?getDiag@SparspakSolver@@UAENH@Z
	?getEpanet3Keyword@OptionParser@@AAE?AV?$basic_string@DU?$char_traits@D@std@@V?$allocator@D@2@@std@@ABV23@0AAV23@@Z
	?getFileName@Utilities@@SA?AV?$basic_string@DU?$char_traits@D@std@@V?$allocator@D@2@@std@@V23@@Z
	?getFullDemand@Demand@@QAENNN@Z
	?getLinkId@DataManager@@SAHHPADPAVNetwork@@@Z
	?getLinkIndex@DataManager@@SAHPADPAHPAVNetwork@@@Z
	?getLinkNodes@DataManager@@SAHHPAH0PAVNetwork@@@Z
	?getLinkType@DataManager@@SAHHPAHPAVNetwork@@@Z
	?getLinkValue@DataManager@@SAHHHPANPAVNetwork@@@Z
	?getNodeId@DataManager@@SAHHPADPAVNetwork@@@Z
	?getNodeIndex@DataManager@@SAHPADPAHPAVNetwork@@@Z
	?getNodeType@DataManager@@SAHHPAHPAVNetwork@@@Z
	?getNodeValue@DataManager@@SAHHHPANPAVNetwork@@@Z
	?getOffDiag@MatrixSolver@@UAENH@Z
	?getOffDiag@SparspakSolver@@UAENH@Z
	?getPipeValue@@YAHHPAVLink@@PANPAVNetwork@@@Z
	?getQualSourceValue@@YAHHPAVNode@@PANPAVNetwork@@@Z
	?getQuality@QualSource@@QAENPAVNode@@@Z
	?getRe@Link@@UAENNN@Z
	?getRe@Pipe@@UAENNN@Z
	?getRe@Valve@@UAENNN@Z
	?getResistance@Link@@UAENXZ
	?getResistance@Pipe@@UAENXZ
	?getRhs@MatrixSolver@@UAENH@Z
	?getRhs@SparspakSolver@@UAENH@Z
	?getSeconds@Utilities@@SAHABV?$basic_string@DU?$char_traits@D@std@@V?$allocator@D@2@@std@@0@Z
	?getSegment@SegPool@@QAEPAUSegment@@NN@Z
	?getSetting@Link@@UAENPAVNetwork@@@Z
	?getSetting@Pipe@@UAENPAVNetwork@@@Z
	?getSetting@Pump@@UAENPAVNetwork@@@Z
	?getSetting@Valve@@UAENPAVNetwork@@@Z
	?getTankValue@@YAHHPAVNode@@PANPAVNetwork@@@Z
	?getTime@Utilities@@SA?AV?$basic_string@DU?$char_traits@D@std@@V?$allocator@D@2@@std@@H@Z
	?getTimeStep@HydEngine@@AAEHXZ
	?getTmpFileName@Utilities@@SA_NAAV?$basic_string@DU?$char_traits@D@std@@V?$allocator@D@2@@std@@@Z
	?getUnitHeadLoss@Link@@UAENXZ
	?getUnitHeadLoss@Pipe@@UAENXZ
	?getUnits@Network@@QAE?AV?$basic_string@DU?$char_traits@D@std@@V?$allocator@D@2@@std@@W4Quantity@Units@@@Z
	?getVelocity@Link@@UAENXZ
	?getVelocity@Pipe@@UAENXZ
	?getVelocity@Valve@@UAENXZ
	?getVolume@Link@@UAENXZ
	?getVolume@Node@@UAENXZ
	?getVolume@Pipe@@UAENXZ
	?getVolume@Tank@@UAENXZ
	?getXofY@Curve@@QAENN@Z
	?getYofX@Curve@@QAENN@Z
	?hasConnectedNodes@@YA_NPAVNetwork@@@Z
	?hasConverged@GGASolver@@AAE_NXZ
	?hasEmitter@Junction@@UAE_NXZ
	?hasEmitter@Node@@UAE_NXZ
	?hasFixedGradeNodes@@YA_NPAVNetwork@@@Z
	?hasValidCurves@@YA_NPAVNetwork@@@Z
	?hasValidLinks@@YA_NPAVNetwork@@@Z
	?hasValidNodes@@YA_NPAVNetwork@@@Z
	?hasValidValves@@YA_NPAVNetwork@@@Z
	?hydOptionsToStr@Options@@QAE?AV?$basic_string@DU?$char_traits@D@std@@V?$allocator@D@2@@std@@XZ
	?imbue@?$basic_filebuf@DU?$char_traits@D@std@@@std@@MAEXABVlocale@2@@Z
	?indexOf@Network@@QAEHW4ElementType@Element@@ABV?$basic_string@DU?$char_traits@D@std@@V?$allocator@D@2@@std@@@Z
	?init@ChemModel@@UAEXPAVNetwork@@@Z
	?init@FixedPattern@@UAEXHH@Z
	?init@HydEngine@@QAEX_N@Z
	?init@LTDSolver@@UAEXXZ
	?init@PumpEnergy@@QAEXXZ
	?init@QualBalance@@QAEXN@Z
	?init@QualEngine@@QAEXXZ
	?init@QualModel@@UAEXPAVNetwork@@@Z
	?init@QualSolver@@UAEXXZ
	?init@SegPool@@QAEXXZ
	?init@SparspakSolver@@UAEHHHPAH0@Z
	?init@TankMixModel@@QAEXPAVTank@@PAVSegPool@@N@Z
	?init@TraceModel@@UAEXPAVNetwork@@@Z
	?init@VariablePattern@@UAEXHH@Z
	?initMatrixSolver@HydEngine@@AAEXXZ
	?initReader@OutputFile@@QAEHXZ
	?initSolver@Project@Epanet@@QAEH_N@Z
	?initWriter@OutputFile@@QAEHXZ
	?initialize@Junction@@UAEXPAVNetwork@@@Z
	?initialize@Link@@UAEX_N@Z
	?initialize@Node@@UAEXPAVNetwork@@@Z
	?initialize@Tank@@UAEXPAVNetwork@@@Z
	?initialize@Valve@@UAEX_N@Z
	?initializeControlSettings@ControlParser@@AAEXXZ
	?insert@?$basic_string@DU?$char_traits@D@std@@V?$allocator@D@2@@std@@QAEAAV12@IABV12@II@Z
	?isClosed@Node@@UAE_NN@Z
	?isClosed@Tank@@UAE_NN@Z
	?isEmpty@Node@@UAE_NXZ
	?isEmpty@Tank@@UAE_NXZ
	?isFull@Node@@UAE_NXZ
	?isFull@Tank@@UAE_NXZ
	?isHpPump@Link@@UAE_NXZ
	?isHpPump@Pump@@UAE_NXZ
	?isPRV@Link@@UAE_NXZ
	?isPRV@Valve@@UAE_NXZ
	?isPSV@Link@@UAE_NXZ
	?isPSV@Valve@@UAE_NXZ
	?isPressureDeficient@ConstrainedDemandModel@@UAE_NPAVJunction@@@Z
	?isPressureDeficient@DemandModel@@UAE_NPAVJunction@@@Z
	?isPressureDeficient@HydEngine@@AAE_NXZ
	?isPressureDeficient@Junction@@UAE_NPAVNetwork@@@Z
	?isPressureDeficient@Node@@UAE_NPAVNetwork@@@Z
	?isReactive@AgeModel@@UAE_NXZ
	?isReactive@ChemModel@@UAE_NXZ
	?isReactive@Link@@UAE_NXZ
	?isReactive@Node@@UAE_NXZ
	?isReactive@Pipe@@UAE_NXZ
	?isReactive@QualModel@@UAE_NXZ
	?isReactive@Tank@@UAE_NXZ
	?left@std@@YAAAVios_base@1@AAV21@@Z
	?link@Network@@QAEPAVLink@@ABV?$basic_string@DU?$char_traits@D@std@@V?$allocator@D@2@@std@@@Z
	?link@Network@@QAEPAVLink@@H@Z
	?linksChangedStatus@GGASolver@@AAE_NXZ
	?load@Project@Epanet@@QAEHPBD@Z
	?lower_bound@?$_Hash@V?$_Umap_traits@V?$basic_string@DU?$char_traits@D@std@@V?$allocator@D@2@@std@@PAVElement@@V?$_Uhash_compare@V?$basic_string@DU?$char_traits@D@std@@V?$allocator@D@2@@std@@U?$hash@V?$basic_string@DU?$char_traits@D@std@@V?$allocator@D@2@@std@@@2@U?$equal_to@V?$basic_string@DU?$char_traits@D@std@@V?$allocator@D@2@@std@@@2@@2@V?$allocator@U?$pair@$$CBV?$basic_string@DU?$char_traits@D@std@@V?$allocator@D@2@@std@@PAVElement@@@std@@@2@$0A@@std@@@std@@QAE?AV?$_List_iterator@V?$_List_val@U?$_List_simple_types@U?$pair@$$CBV?$basic_string@DU?$char_traits@D@std@@V?$allocator@D@2@@std@@PAVElement@@@std@@@std@@@std@@@2@ABV?$basic_string@DU?$char_traits@D@std@@V?$allocator@D@2@@2@@Z
	?match@Utilities@@SA_NABV?$basic_string@DU?$char_traits@D@std@@V?$allocator@D@2@@std@@0@Z
	?mmdelm_@@YAHPAH0000000000@Z
	?mmdint_@@YAHPAH00000000@Z
	?mmdnum_@@YAHPAH000@Z
	?mmdupd_@@YAXPAH0000000000000@Z
	?name@Units@@QAE?AV?$basic_string@DU?$char_traits@D@std@@V?$allocator@D@2@@std@@W4Quantity@1@@Z
	?nextTime@FixedPattern@@UAEHH@Z
	?nextTime@VariablePattern@@UAEHH@Z
	?node@Network@@QAEPAVNode@@ABV?$basic_string@DU?$char_traits@D@std@@V?$allocator@D@2@@std@@@Z
	?node@Network@@QAEPAVNode@@H@Z
	?open@?$basic_filebuf@DU?$char_traits@D@std@@@std@@QAEPAV12@PBDHH@Z
	?open@?$basic_ofstream@DU?$char_traits@D@std@@@std@@QAEXABV?$basic_string@DU?$char_traits@D@std@@V?$allocator@D@2@@2@HH@Z
	?open@HydEngine@@QAEXPAVNetwork@@@Z
	?open@OutputFile@@QAEHV?$basic_string@DU?$char_traits@D@std@@V?$allocator@D@2@@std@@PAVNetwork@@@Z
	?open@QualEngine@@QAEXPAVNetwork@@@Z
	?openOutput@Project@Epanet@@QAEHPBD@Z
	?openReport@Project@Epanet@@QAEHPBD@Z
	?option@Network@@QAE?AV?$basic_string@DU?$char_traits@D@std@@V?$allocator@D@2@@std@@W4StringOption@Options@@@Z
	?overflow@?$basic_filebuf@DU?$char_traits@D@std@@@std@@MAEHH@Z
	?overflow@?$basic_stringbuf@DU?$char_traits@D@std@@V?$allocator@D@2@@std@@MAEHH@Z
	?parseControlLine@ControlParser@@QAEXAAV?$basic_string@DU?$char_traits@D@std@@V?$allocator@D@2@@std@@PAVNetwork@@@Z
	?parseCoords@NodeParser@@QAEXPAVNode@@AAV?$vector@V?$basic_string@DU?$char_traits@D@std@@V?$allocator@D@2@@std@@V?$allocator@V?$basic_string@DU?$char_traits@D@std@@V?$allocator@D@2@@std@@@2@@std@@@Z
	?parseCurveData@CurveParser@@QAEXPAVCurve@@AAV?$vector@V?$basic_string@DU?$char_traits@D@std@@V?$allocator@D@2@@std@@V?$allocator@V?$basic_string@DU?$char_traits@D@std@@V?$allocator@D@2@@std@@@2@@std@@@Z
	?parseDemand@NodeParser@@QAEXPAVNode@@PAVNetwork@@AAV?$vector@V?$basic_string@DU?$char_traits@D@std@@V?$allocator@D@2@@std@@V?$allocator@V?$basic_string@DU?$char_traits@D@std@@V?$allocator@D@2@@std@@@2@@std@@@Z
	?parseEmitter@NodeParser@@QAEXPAVNode@@PAVNetwork@@AAV?$vector@V?$basic_string@DU?$char_traits@D@std@@V?$allocator@D@2@@std@@V?$allocator@V?$basic_string@DU?$char_traits@D@std@@V?$allocator@D@2@@std@@@2@@std@@@Z
	?parseEnergy@LinkParser@@QAEXPAVLink@@PAVNetwork@@AAV?$vector@V?$basic_string@DU?$char_traits@D@std@@V?$allocator@D@2@@std@@V?$allocator@V?$basic_string@DU?$char_traits@D@std@@V?$allocator@D@2@@std@@@2@@std@@@Z
	?parseEnergyOption@OptionParser@@QAEXPAVNetwork@@AAV?$vector@V?$basic_string@DU?$char_traits@D@std@@V?$allocator@D@2@@std@@V?$allocator@V?$basic_string@DU?$char_traits@D@std@@V?$allocator@D@2@@std@@@2@@std@@@Z
	?parseFile@InputReader@@IAEXAAV?$basic_istream@DU?$char_traits@D@std@@@std@@AAVInputParser@@@Z
	?parseFixedPattern@PatternParser@@IAEXPAVPattern@@AAV?$vector@V?$basic_string@DU?$char_traits@D@std@@V?$allocator@D@2@@std@@V?$allocator@V?$basic_string@DU?$char_traits@D@std@@V?$allocator@D@2@@std@@@2@@std@@@Z
	?parseInitQual@NodeParser@@QAEXPAVNode@@AAV?$vector@V?$basic_string@DU?$char_traits@D@std@@V?$allocator@D@2@@std@@V?$allocator@V?$basic_string@DU?$char_traits@D@std@@V?$allocator@D@2@@std@@@2@@std@@@Z
	?parseLeakage@LinkParser@@QAEXPAVLink@@AAV?$vector@V?$basic_string@DU?$char_traits@D@std@@V?$allocator@D@2@@std@@V?$allocator@V?$basic_string@DU?$char_traits@D@std@@V?$allocator@D@2@@std@@@2@@std@@@Z
	?parseLevelSetting@ControlParser@@AAEXPAVNetwork@@@Z
	?parseLine@ObjectParser@@UAEXAAV?$basic_string@DU?$char_traits@D@std@@V?$allocator@D@2@@std@@H@Z
	?parseLine@PropertyParser@@UAEXAAV?$basic_string@DU?$char_traits@D@std@@V?$allocator@D@2@@std@@H@Z
	?parseLinkData@LinkParser@@QAEXAAV?$basic_string@DU?$char_traits@D@std@@V?$allocator@D@2@@std@@PAVNetwork@@AAV?$vector@V?$basic_string@DU?$char_traits@D@std@@V?$allocator@D@2@@std@@V?$allocator@V?$basic_string@DU?$char_traits@D@std@@V?$allocator@D@2@@std@@@2@@3@@Z
	?parseLinkProperty@PropertyParser@@AAEXHAAV?$basic_string@DU?$char_traits@D@std@@V?$allocator@D@2@@std@@@Z
	?parseLinkSetting@ControlParser@@AAEXPAVNetwork@@@Z
	?parseNodeData@NodeParser@@QAEXAAV?$basic_string@DU?$char_traits@D@std@@V?$allocator@D@2@@std@@PAVNetwork@@AAV?$vector@V?$basic_string@DU?$char_traits@D@std@@V?$allocator@D@2@@std@@V?$allocator@V?$basic_string@DU?$char_traits@D@std@@V?$allocator@D@2@@std@@@2@@3@@Z
	?parseNodeProperty@PropertyParser@@AAEXHAAV?$basic_string@DU?$char_traits@D@std@@V?$allocator@D@2@@std@@@Z
	?parseOption@OptionParser@@QAEXPAVNetwork@@AAV?$vector@V?$basic_string@DU?$char_traits@D@std@@V?$allocator@D@2@@std@@V?$allocator@V?$basic_string@DU?$char_traits@D@std@@V?$allocator@D@2@@std@@@2@@std@@@Z
	?parsePatternData@PatternParser@@QAEXPAVPattern@@AAV?$vector@V?$basic_string@DU?$char_traits@D@std@@V?$allocator@D@2@@std@@V?$allocator@V?$basic_string@DU?$char_traits@D@std@@V?$allocator@D@2@@std@@@2@@std@@@Z
	?parseQualOption@OptionParser@@AAEXABV?$basic_string@DU?$char_traits@D@std@@V?$allocator@D@2@@std@@0PAVNetwork@@@Z
	?parseQualSource@NodeParser@@QAEXPAVNode@@PAVNetwork@@AAV?$vector@V?$basic_string@DU?$char_traits@D@std@@V?$allocator@D@2@@std@@V?$allocator@V?$basic_string@DU?$char_traits@D@std@@V?$allocator@D@2@@std@@@2@@std@@@Z
	?parseReactOption@OptionParser@@QAEXPAVNetwork@@AAV?$vector@V?$basic_string@DU?$char_traits@D@std@@V?$allocator@D@2@@std@@V?$allocator@V?$basic_string@DU?$char_traits@D@std@@V?$allocator@D@2@@std@@@2@@std@@@Z
	?parseReactProperty@PropertyParser@@AAEXAAV?$basic_string@DU?$char_traits@D@std@@V?$allocator@D@2@@std@@@Z
	?parseReaction@LinkParser@@QAEXPAVLink@@HAAV?$vector@V?$basic_string@DU?$char_traits@D@std@@V?$allocator@D@2@@std@@V?$allocator@V?$basic_string@DU?$char_traits@D@std@@V?$allocator@D@2@@std@@@2@@std@@@Z
	?parseReportField@OptionParser@@AAEXPAVNetwork@@HPAV?$basic_string@DU?$char_traits@D@std@@V?$allocator@D@2@@std@@@Z
	?parseReportItems@OptionParser@@AAEXHPAVNetwork@@HPAV?$basic_string@DU?$char_traits@D@std@@V?$allocator@D@2@@std@@@Z
	?parseReportOption@OptionParser@@QAEXPAVNetwork@@AAV?$vector@V?$basic_string@DU?$char_traits@D@std@@V?$allocator@D@2@@std@@V?$allocator@V?$basic_string@DU?$char_traits@D@std@@V?$allocator@D@2@@std@@@2@@std@@@Z
	?parseStatus@LinkParser@@QAEXPAVLink@@AAV?$vector@V?$basic_string@DU?$char_traits@D@std@@V?$allocator@D@2@@std@@V?$allocator@V?$basic_string@DU?$char_traits@D@std@@V?$allocator@D@2@@std@@@2@@std@@@Z
	?parseTankMixing@NodeParser@@QAEXPAVNode@@AAV?$vector@V?$basic_string@DU?$char_traits@D@std@@V?$allocator@D@2@@std@@V?$allocator@V?$basic_string@DU?$char_traits@D@std@@V?$allocator@D@2@@std@@@2@@std@@@Z
	?parseTankReact@NodeParser@@QAEXPAVNode@@AAV?$vector@V?$basic_string@DU?$char_traits@D@std@@V?$allocator@D@2@@std@@V?$allocator@V?$basic_string@DU?$char_traits@D@std@@V?$allocator@D@2@@std@@@2@@std@@@Z
	?parseTimeOfDaySetting@ControlParser@@AAEXXZ
	?parseTimeOption@OptionParser@@QAEXPAVNetwork@@AAV?$vector@V?$basic_string@DU?$char_traits@D@std@@V?$allocator@D@2@@std@@V?$allocator@V?$basic_string@DU?$char_traits@D@std@@V?$allocator@D@2@@std@@@2@@std@@@Z
	?parseTimeSetting@ControlParser@@AAEXXZ
	?parseVariablePattern@PatternParser@@IAEXPAVPattern@@AAV?$vector@V?$basic_string@DU?$char_traits@D@std@@V?$allocator@D@2@@std@@V?$allocator@V?$basic_string@DU?$char_traits@D@std@@V?$allocator@D@2@@std@@@2@@std@@@Z
	?pattern@Network@@QAEPAVPattern@@ABV?$basic_string@DU?$char_traits@D@std@@V?$allocator@D@2@@std@@@Z
	?pattern@Network@@QAEPAVPattern@@H@Z
	?pbackfail@?$basic_filebuf@DU?$char_traits@D@std@@@std@@MAEHH@Z
	?pbackfail@?$basic_stringbuf@DU?$char_traits@D@std@@V?$allocator@D@2@@std@@MAEHH@Z
	?pipeReact@AgeModel@@UAENPAVPipe@@NN@Z
	?pipeReact@ChemModel@@UAENPAVPipe@@NN@Z
	?pipeReact@QualModel@@UAENPAVPipe@@NN@Z
	?powerFuncHeadLoss@PumpCurve@@AAEXNNAAN0@Z
	?push_back@?$vector@HV?$allocator@H@std@@@std@@QAEX$$QAH@Z
	?push_back@?$vector@NV?$allocator@N@std@@@std@@QAEX$$QAN@Z
	?push_back@?$vector@PAVControl@@V?$allocator@PAVControl@@@std@@@std@@QAEXABQAVControl@@@Z
	?push_back@?$vector@PAVCurve@@V?$allocator@PAVCurve@@@std@@@std@@QAEXABQAVCurve@@@Z
	?push_back@?$vector@PAVLink@@V?$allocator@PAVLink@@@std@@@std@@QAEXABQAVLink@@@Z
	?push_back@?$vector@PAVNode@@V?$allocator@PAVNode@@@std@@@std@@QAEXABQAVNode@@@Z
	?push_back@?$vector@PAVPattern@@V?$allocator@PAVPattern@@@std@@@std@@QAEXABQAVPattern@@@Z
	?push_back@?$vector@V?$basic_string@DU?$char_traits@D@std@@V?$allocator@D@2@@std@@V?$allocator@V?$basic_string@DU?$char_traits@D@std@@V?$allocator@D@2@@std@@@2@@std@@QAEXABV?$basic_string@DU?$char_traits@D@std@@V?$allocator@D@2@@2@@Z
	?qualOptionsToStr@Options@@QAE?AV?$basic_string@DU?$char_traits@D@std@@V?$allocator@D@2@@std@@XZ
	?react@LTDSolver@@AAEXXZ
	?react@TankMixModel@@QAENPAVTank@@PAVQualModel@@N@Z
	?reactOptionsToStr@Options@@QAE?AV?$basic_string@DU?$char_traits@D@std@@V?$allocator@D@2@@std@@XZ
	?readEnergyDemandCharge@OutputFile@@QAEXPAM@Z
	?readEnergyResults@OutputFile@@QAEXPAH@Z
	?readFile@InputReader@@QAEXPBDPAVNetwork@@@Z
	?readLinkResults@OutputFile@@QAEXXZ
	?readNodeResults@OutputFile@@QAEXXZ
	?release@LTDSolver@@AAEXH@Z
	?removeQuotes@Utilities@@SAXAAV?$basic_string@DU?$char_traits@D@std@@V?$allocator@D@2@@std@@@Z
	?reorder@@YAHHPAH000AAH@Z
	?reportDiagnostics@HydEngine@@AAEXHH@Z
	?reportOptionsToStr@Options@@QAE?AV?$basic_string@DU?$char_traits@D@std@@V?$allocator@D@2@@std@@XZ
	?reportTrial@GGASolver@@AAEXHN@Z
	?reset@MemPool@@QAEXXZ
	?reset@SparspakSolver@@UAEXXZ
	?resize@?$vector@DV?$allocator@D@std@@@std@@QAEXIABD@Z
	?resize@?$vector@HV?$allocator@H@std@@@std@@QAEXIABH@Z
	?resize@?$vector@NV?$allocator@N@std@@@std@@QAEXIABN@Z
	?resize@?$vector@PAUSegment@@V?$allocator@PAUSegment@@@std@@@std@@QAEXIABQAUSegment@@@Z
	?resolvePressureDeficiency@HydEngine@@AAEHAAH@Z
	?reverseFlow@LTDSolver@@UAEXH@Z
	?reverseFlow@QualSolver@@UAEXH@Z
	?rfind@?$basic_string@DU?$char_traits@D@std@@V?$allocator@D@2@@std@@QBEIPBDII@Z
	?right@std@@YAAAVios_base@1@AAV21@@Z
	?runSolver@Project@Epanet@@QAEHPAH@Z
	?save@Project@Epanet@@QAEHPBD@Z
	?saveOutput@Project@Epanet@@QAEHXZ
	?scientific@std@@YAAAVios_base@1@AAV21@@Z
	?seekEnergyOffset@OutputFile@@QAEXXZ
	?seekNetworkOffset@OutputFile@@QAEXXZ
	?seekoff@?$basic_filebuf@DU?$char_traits@D@std@@@std@@MAE?AV?$fpos@U_Mbstatet@@@2@_JHH@Z
	?seekoff@?$basic_stringbuf@DU?$char_traits@D@std@@V?$allocator@D@2@@std@@MAE?AV?$fpos@U_Mbstatet@@@2@_JHH@Z
	?seekpos@?$basic_filebuf@DU?$char_traits@D@std@@@std@@MAE?AV?$fpos@U_Mbstatet@@@2@V32@H@Z
	?seekpos@?$basic_stringbuf@DU?$char_traits@D@std@@V?$allocator@D@2@@std@@MAE?AV?$fpos@U_Mbstatet@@@2@V32@H@Z
	?setCoeffs@LogisticDemandModel@@AAEXNN@Z
	?setConvergenceLimits@GGASolver@@AAEXXZ
	?setCurve@PumpCurve@@QAEXPAVCurve@@@Z
	?setDefaults@Options@@QAEXXZ
	?setDefaults@ReportFields@@QAEXXZ
	?setDiag@SparspakSolver@@UAEXHN@Z
	?setField@ReportFields@@QAEXHHHHNN@Z
	?setFixedGrade@Node@@UAEXXZ
	?setFixedGrade@Reservoir@@UAEXXZ
	?setFixedGrade@Tank@@UAEXXZ
	?setFixedGradeNodes@GGASolver@@AAEXXZ
	?setFlowDirections@QualEngine@@AAEXXZ
	?setFlowFactor@Units@@AAEHH@Z
	?setInitFlow@Link@@UAEXXZ
	?setInitFlow@Pipe@@UAEXXZ
	?setInitFlow@Pump@@UAEXXZ
	?setInitFlow@Valve@@UAEXXZ
	?setInitSetting@Link@@UAEXN@Z
	?setInitSetting@Pipe@@UAEXN@Z
	?setInitSetting@Pump@@UAEXN@Z
	?setInitSetting@Valve@@UAEXN@Z
	?setInitStatus@Link@@UAEXH@Z
	?setInitStatus@Pipe@@UAEXH@Z
	?setInitStatus@Pump@@UAEXH@Z
	?setInitStatus@Valve@@UAEXH@Z
	?setLinkCoeffs@GGASolver@@AAEXXZ
	?setMatrixCoeffs@GGASolver@@AAEXXZ
	?setNodeCoeffs@GGASolver@@AAEXXZ
	?setOption@OptionParser@@AAEXABV?$basic_string@DU?$char_traits@D@std@@V?$allocator@D@2@@std@@0PAVNetwork@@@Z
	?setOption@Options@@QAEHW4IndexOption@1@ABV?$basic_string@DU?$char_traits@D@std@@V?$allocator@D@2@@std@@PAVNetwork@@@Z
	?setOption@Options@@QAEHW4StringOption@1@ABV?$basic_string@DU?$char_traits@D@std@@V?$allocator@D@2@@std@@@Z
	?setOption@Options@@QAEXW4IndexOption@1@H@Z
	?setOption@Options@@QAEXW4TimeOption@1@H@Z
	?setOption@Options@@QAEXW4ValueOption@1@N@Z
	?setOtherFactors@Units@@AAEXH@Z
	?setPressureFactor@Units@@AAEXHAAVOptions@@@Z
	?setProperties@Control@@QAEXHPAVLink@@HNPAVNode@@NHH@Z
	?setReactive@ChemModel@@AAE_NPAVNetwork@@@Z
	?setReportFieldOption@Options@@QAEXHHHHNN@Z
	?setResistance@CM_HeadLossModel@@UAEXPAVPipe@@@Z
	?setResistance@DW_HeadLossModel@@UAEXPAVPipe@@@Z
	?setResistance@HW_HeadLossModel@@UAEXPAVPipe@@@Z
	?setResistance@Link@@UAEXPAVNetwork@@@Z
	?setResistance@Pipe@@UAEXPAVNetwork@@@Z
	?setRhs@SparspakSolver@@UAEXHN@Z
	?setSourceQuality@QualEngine@@AAEXXZ
	?setStrength@QualSource@@QAEXPAVNode@@@Z
	?setUnits@Units@@QAEXAAVOptions@@@Z
	?setValveCoeffs@GGASolver@@AAEXXZ
	?setbuf@?$basic_filebuf@DU?$char_traits@D@std@@@std@@MAEPAV?$basic_streambuf@DU?$char_traits@D@std@@@2@PAD_J@Z
	?setupConstHpCurve@PumpCurve@@AAEXXZ
	?setupCurve@PumpCurve@@QAEHPAVNetwork@@@Z
	?setupCustomCurve@PumpCurve@@AAEHXZ
	?setupPowerFuncCurve@PumpCurve@@AAEHXZ
	?showpoint@std@@YAAAVios_base@1@AAV21@@Z
	?skipLinkResults@OutputFile@@QAEXXZ
	?skipNodeResults@OutputFile@@QAEXXZ
	?solve@GGASolver@@UAEHNAAH@Z
	?solve@HydEngine@@QAEHPAH@Z
	?solve@LTDSolver@@UAEHPAHH@Z
	?solve@QualEngine@@QAEXH@Z
	?solve@SparspakSolver@@UAEHHQAN@Z
	?sortAdjncy@@YAXHHPAH0000@Z
	?sortLinks@QualEngine@@AAEXXZ
	?sp_genmmd@@YAHPAH00000000000@Z
	?sp_numfct@@YAXHPAHPAN001001AAH@Z
	?sp_smbfct@@YAXHPAH0000AAH0010001@Z
	?sp_solve@@YAXHPAHPAN0011@Z
	?split@Utilities@@SA?AV?$vector@V?$basic_string@DU?$char_traits@D@std@@V?$allocator@D@2@@std@@V?$allocator@V?$basic_string@DU?$char_traits@D@std@@V?$allocator@D@2@@std@@@2@@std@@ABV?$basic_string@DU?$char_traits@D@std@@V?$allocator@D@2@@3@@Z
	?split@Utilities@@SAXAAV?$vector@V?$basic_string@DU?$char_traits@D@std@@V?$allocator@D@2@@std@@V?$allocator@V?$basic_string@DU?$char_traits@D@std@@V?$allocator@D@2@@std@@@2@@std@@ABV?$basic_string@DU?$char_traits@D@std@@V?$allocator@D@2@@3@@Z
	?storedMass@TankMixModel@@QAENXZ
	?str@?$basic_ostringstream@DU?$char_traits@D@std@@V?$allocator@D@2@@std@@QAEXABV?$basic_string@DU?$char_traits@D@std@@V?$allocator@D@2@@2@@Z
	?str@?$basic_ostringstream@DU?$char_traits@D@std@@V?$allocator@D@2@@std@@QBE?AV?$basic_string@DU?$char_traits@D@std@@V?$allocator@D@2@@2@XZ
	?str@?$basic_stringbuf@DU?$char_traits@D@std@@V?$allocator@D@2@@std@@QBE?AV?$basic_string@DU?$char_traits@D@std@@V?$allocator@D@2@@2@XZ
	?str@?$basic_stringstream@DU?$char_traits@D@std@@V?$allocator@D@2@@std@@QBE?AV?$basic_string@DU?$char_traits@D@std@@V?$allocator@D@2@@2@XZ
	?stringOption@Options@@QAE?AV?$basic_string@DU?$char_traits@D@std@@V?$allocator@D@2@@std@@W4StringOption@1@@Z
	?substr@?$basic_string@DU?$char_traits@D@std@@V?$allocator@D@2@@std@@QBE?AV12@II@Z
	?sync@?$basic_filebuf@DU?$char_traits@D@std@@@std@@MAEHXZ
	?tankReact@AgeModel@@UAENPAVTank@@NN@Z
	?tankReact@ChemModel@@UAENPAVTank@@NN@Z
	?tankReact@QualModel@@UAENPAVTank@@NN@Z
	?timeOptionsToStr@Options@@QAE?AV?$basic_string@DU?$char_traits@D@std@@V?$allocator@D@2@@std@@XZ
	?timeToActivate@Control@@QAEHPAVNetwork@@HH@Z
	?timeToActivateControl@HydEngine@@AAEHH@Z
	?timeToCloseTank@HydEngine@@AAEHH@Z
	?timeToPatternChange@HydEngine@@AAEHH@Z
	?timeToVolume@Tank@@QAEHN@Z
	?toStr@Control@@QAE?AV?$basic_string@DU?$char_traits@D@std@@V?$allocator@D@2@@std@@PAVNetwork@@@Z
	?transport@LTDSolver@@AAEXH@Z
	?transpose@@YAXHPAH0000@Z
	?trimLine@InputReader@@IAEXAAV?$basic_string@DU?$char_traits@D@std@@V?$allocator@D@2@@std@@@Z
	?type@Junction@@UAEHXZ
	?type@Pipe@@UAEHXZ
	?type@Pump@@UAEHXZ
	?type@Reservoir@@UAEHXZ
	?type@Tank@@UAEHXZ
	?type@Valve@@UAEHXZ
	?typeStr@Pipe@@UAE?AV?$basic_string@DU?$char_traits@D@std@@V?$allocator@D@2@@std@@XZ
	?typeStr@Pump@@UAE?AV?$basic_string@DU?$char_traits@D@std@@V?$allocator@D@2@@std@@XZ
	?typeStr@Valve@@UAE?AV?$basic_string@DU?$char_traits@D@std@@V?$allocator@D@2@@std@@XZ
	?uflow@?$basic_filebuf@DU?$char_traits@D@std@@@std@@MAEHXZ
	?underflow@?$basic_filebuf@DU?$char_traits@D@std@@@std@@MAEHXZ
	?underflow@?$basic_stringbuf@DU?$char_traits@D@std@@V?$allocator@D@2@@std@@MAEHXZ
	?updateArea@Tank@@QAEXXZ
	?updateCurrentConditions@HydEngine@@AAEXXZ
	?updateEnergyUsage@HydEngine@@AAEXXZ
	?updateEnergyUsage@Link@@UAENPAVNetwork@@H@Z
	?updateEnergyUsage@Pump@@UAENPAVNetwork@@H@Z
	?updateEnergyUsage@PumpEnergy@@QAENPAVPump@@PAVNetwork@@H@Z
	?updateLinkQuality@LTDSolver@@AAEXXZ
	?updateMassBalance@LTDSolver@@AAEXXZ
	?updateNodeQuality@LTDSolver@@AAEXXZ
	?updatePatterns@HydEngine@@AAEXXZ
	?updatePrvStatus@Valve@@IAEHNNN@Z
	?updatePsvStatus@Valve@@IAEHNNN@Z
	?updateSolution@GGASolver@@AAEXN@Z
	?updateStatus@Link@@UAEXNNN@Z
	?updateStatus@Valve@@UAEXNNN@Z
	?updateTanks@HydEngine@@AAEXXZ
	?updateVolume@Tank@@QAEXH@Z
	?upperCase@Utilities@@SA?AV?$basic_string@DU?$char_traits@D@std@@V?$allocator@D@2@@std@@ABV23@@Z
	?validate@Link@@UAEXPAVNetwork@@@Z
	?validate@Node@@UAEXPAVNetwork@@@Z
	?validate@Pump@@UAEXPAVNetwork@@@Z
	?validate@Tank@@UAEXPAVNetwork@@@Z
	?validateNetwork@Diagnostics@@QAEXPAVNetwork@@@Z
	?validateStatus@Link@@UAEXPAVNetwork@@N@Z
	?validateStatus@Pipe@@UAEXPAVNetwork@@N@Z
	?validateStatus@Pump@@UAEXPAVNetwork@@N@Z
	?validateStatus@Valve@@UAEXPAVNetwork@@N@Z
	?what@exception@std@@UBEPBDXZ
	?writeAuxData@ProjectWriter@@AAEXXZ
	?writeBalance@QualBalance@@QAEXAAV?$basic_ostream@DU?$char_traits@D@std@@@std@@@Z
	?writeControls@ProjectWriter@@AAEXXZ
	?writeCoords@ProjectWriter@@AAEXXZ
	?writeCurves@ProjectWriter@@AAEXXZ
	?writeDemands@ProjectWriter@@AAEXXZ
	?writeEmitters@ProjectWriter@@AAEXXZ
	?writeEnergy@ProjectWriter@@AAEXXZ
	?writeEnergyHeader@ReportWriter@@AAEXXZ
	?writeEnergyResults@OutputFile@@QAEHNN@Z
	?writeEnergyResults@ReportWriter@@AAEXPAVOutputFile@@@Z
	?writeFile@ProjectWriter@@QAEHPBDPAVNetwork@@@Z
	?writeHeading@ReportWriter@@QAEXXZ
	?writeJunctions@ProjectWriter@@AAEXXZ
	?writeLeakages@ProjectWriter@@AAEXXZ
	?writeLinkHeader@ReportWriter@@AAEXXZ
	?writeLinkResults@OutputFile@@AAEXXZ
	?writeLinkResults@ReportWriter@@AAEXPAVLink@@PAM@Z
	?writeMixing@ProjectWriter@@AAEXXZ
	?writeMsg@Project@Epanet@@QAEXABV?$basic_string@DU?$char_traits@D@std@@V?$allocator@D@2@@std@@@Z
	?writeMsgLog@Project@Epanet@@QAEXAAV?$basic_ostream@DU?$char_traits@D@std@@@std@@@Z
	?writeMsgLog@Project@Epanet@@QAEXXZ
	?writeNetworkResults@OutputFile@@QAEHXZ
	?writeNodeHeader@ReportWriter@@AAEXXZ
	?writeNodeResults@OutputFile@@AAEXXZ
	?writeNodeResults@ReportWriter@@AAEXPAVNode@@PAM@Z
	?writeNumber@ReportWriter@@AAEXMHH@Z
	?writeOptions@ProjectWriter@@AAEXXZ
	?writePatterns@ProjectWriter@@AAEXXZ
	?writePipes@ProjectWriter@@AAEXXZ
	?writePumpResults@ReportWriter@@AAEXPAVLink@@PAM@Z
	?writePumps@ProjectWriter@@AAEXXZ
	?writeQuality@ProjectWriter@@AAEXXZ
	?writeReactions@ProjectWriter@@AAEXXZ
	?writeReport@Project@Epanet@@QAEHXZ
	?writeReport@ProjectWriter@@AAEXXZ
	?writeReport@ReportWriter@@QAEHV?$basic_string@DU?$char_traits@D@std@@V?$allocator@D@2@@std@@PAVOutputFile@@@Z
	?writeReservoirs@ProjectWriter@@AAEXXZ
	?writeResults@Project@Epanet@@QAEXH@Z
	?writeResults@ReportWriter@@QAEXH@Z
	?writeSavedResults@ReportWriter@@AAEXPAVOutputFile@@@Z
	?writeSources@ProjectWriter@@AAEXXZ
	?writeStatus@ProjectWriter@@AAEXXZ
	?writeStatusChange@Link@@QAE?AV?$basic_string@DU?$char_traits@D@std@@V?$allocator@D@2@@std@@H@Z
	?writeSummary@Project@Epanet@@QAEXXZ
	?writeSummary@ReportWriter@@QAEXV?$basic_string@DU?$char_traits@D@std@@V?$allocator@D@2@@std@@@Z
	?writeTags@ProjectWriter@@AAEXXZ
	?writeTanks@ProjectWriter@@AAEXXZ
	?writeTimes@ProjectWriter@@AAEXXZ
	?writeTitle@Network@@QAEXAAV?$basic_ostream@DU?$char_traits@D@std@@@std@@@Z
	?writeTitle@ProjectWriter@@AAEXXZ
	?writeValves@ProjectWriter@@AAEXXZ
	EN_advanceSolver
	EN_clearProject
	EN_cloneProject
	EN_createProject
	EN_deleteProject
	EN_getCount
	EN_getLinkId
	EN_getLinkIndex
	EN_getLinkNodes
	EN_getLinkType
	EN_getLinkValue
	EN_getNodeId
	EN_getNodeIndex
	EN_getNodeType
	EN_getNodeValue
	EN_getVersion
	EN_initSolver
	EN_loadProject
	EN_openOutput
	EN_openReport
	EN_runEpanet
	EN_runProject
	EN_runSolver
	EN_saveOutput
	EN_saveProject
	EN_writeMsgLog
	EN_writeReport
	EN_writeResults
	EN_writeSummary
	__local_stdio_scanf_options
	sscanf
